

Microchip MPLAB XC8 Assembler V2.32 build 20210201212658 
                                                                                               Sun May 16 18:19:25 2021

Microchip MPLAB XC8 C Compiler v2.32 (Free license) build 20210201212658 Og1 
     1                           	processor	18F4520
     2                           	fnconf	rparam,??,?,0
     3                           	pagewidth 120
     4                           	opt	flic
     5                           	psect	nvBANK0,global,class=BANK0,space=1,delta=1,lowdata,noexec
     6                           	psect	smallconst,global,reloc=2,class=SMALLCONST,delta=1,noexec
     7                           	psect	cinit,global,reloc=2,class=CODE,delta=1
     8                           	psect	bssBANK0,global,class=BANK0,space=1,delta=1,lowdata,noexec
     9                           	psect	bssBANK1,global,class=BANK1,space=1,delta=1,lowdata,noexec
    10                           	psect	cstackBANK0,global,class=BANK0,space=1,delta=1,lowdata,noexec
    11                           	psect	cstackCOMRAM,global,class=COMRAM,space=1,delta=1,lowdata,noexec
    12                           	psect	text0,global,reloc=2,class=CODE,delta=1
    13                           	psect	text1,global,reloc=2,class=CODE,delta=1,group=3
    14                           	psect	text2,global,reloc=2,class=CODE,delta=1,group=3
    15                           	psect	text3,global,reloc=2,class=CODE,delta=1,group=3
    16                           	psect	text4,global,reloc=2,class=CODE,delta=1,group=3
    17                           	psect	text5,global,reloc=2,class=CODE,delta=1,group=3
    18                           	psect	text6,global,reloc=2,class=CODE,delta=1,group=2
    19                           	psect	text7,global,reloc=2,class=CODE,delta=1,group=3
    20                           	psect	text8,global,reloc=2,class=CODE,delta=1,group=1
    21                           	psect	text9,global,reloc=2,class=CODE,delta=1,group=1
    22                           	psect	text10,global,reloc=2,class=CODE,delta=1,group=3
    23                           	psect	text11,global,reloc=2,class=CODE,delta=1,group=1
    24                           	psect	text12,global,reloc=2,class=CODE,delta=1,group=3
    25                           	psect	text13,global,reloc=2,class=CODE,delta=1,group=3
    26                           	psect	text14,global,reloc=2,class=CODE,delta=1,group=3
    27                           	psect	text15,global,reloc=2,class=CODE,delta=1,group=1
    28                           	psect	text16,global,reloc=2,class=CODE,delta=1,group=3
    29                           	psect	text17,global,reloc=2,class=CODE,delta=1,group=3
    30                           	psect	text18,global,reloc=2,class=CODE,delta=1,group=3
    31                           	psect	text19,global,reloc=2,class=CODE,delta=1,group=3
    32                           	psect	text20,global,reloc=2,class=CODE,delta=1,group=2
    33                           	psect	text21,global,reloc=2,class=CODE,delta=1,group=2
    34                           	psect	text22,global,reloc=2,class=CODE,delta=1,group=2
    35                           	psect	text23,global,reloc=2,class=CODE,delta=1,group=2
    36                           	psect	text24,global,reloc=2,class=CODE,delta=1,group=2
    37                           	psect	text25,global,reloc=2,class=CODE,delta=1,group=2
    38                           	psect	text26,global,reloc=2,class=CODE,delta=1,group=2
    39                           	psect	text27,global,reloc=2,class=CODE,delta=1,group=2
    40                           	psect	text28,global,reloc=2,class=CODE,delta=1,group=2
    41                           	psect	text29,global,reloc=2,class=CODE,delta=1,group=2
    42                           	psect	text30,global,reloc=2,class=CODE,delta=1,group=1
    43                           	psect	text31,global,reloc=2,class=CODE,delta=1,group=3
    44                           	psect	text32,global,reloc=2,class=CODE,delta=1
    45                           	psect	text33,global,reloc=2,class=CODE,delta=1
    46                           	psect	text34,global,reloc=2,class=CODE,delta=1,group=3
    47                           	psect	text35,global,reloc=2,class=CODE,delta=1,group=3
    48                           	psect	text36,global,reloc=2,class=CODE,delta=1,group=3
    49                           	psect	text37,global,reloc=2,class=CODE,delta=1,group=2
    50                           	psect	text38,global,reloc=2,class=CODE,delta=1
    51                           	psect	text39,global,reloc=2,class=CODE,delta=1
    52                           	psect	text40,global,reloc=2,class=CODE,delta=1
    53                           	psect	text41,global,reloc=2,class=CODE,delta=1
    54                           	psect	text42,global,reloc=2,class=CODE,delta=1
    55                           	psect	text43,global,reloc=2,class=CODE,delta=1
    56                           	psect	text44,global,reloc=2,class=CODE,delta=1,group=2
    57                           	psect	intsave_regs,global,class=BIGRAM,space=1,delta=1,noexec
    58                           	psect	rparam,global,class=COMRAM,space=1,delta=1,noexec
    59                           	psect	idloc,global,abs,ovrld,class=IDLOC,space=5,delta=1,noexec
    60                           	psect	config,global,abs,ovrld,class=CONFIG,space=4,delta=1,noexec
    61  0000                     
    62                           ; Version 2.20
    63                           ; Generated 12/02/2020 GMT
    64                           ; 
    65                           ; Copyright © 2020, Microchip Technology Inc. and its subsidiaries ("Microchip")
    66                           ; All rights reserved.
    67                           ; 
    68                           ; This software is developed by Microchip Technology Inc. and its subsidiaries ("Microch
      +                          ip").
    69                           ; 
    70                           ; Redistribution and use in source and binary forms, with or without modification, are
    71                           ; permitted provided that the following conditions are met:
    72                           ; 
    73                           ;     1. Redistributions of source code must retain the above copyright notice, this lis
      +                          t of
    74                           ;        conditions and the following disclaimer.
    75                           ; 
    76                           ;     2. Redistributions in binary form must reproduce the above copyright notice, this 
      +                          list
    77                           ;        of conditions and the following disclaimer in the documentation and/or other
    78                           ;        materials provided with the distribution.
    79                           ; 
    80                           ;     3. Microchip's name may not be used to endorse or promote products derived from th
      +                          is
    81                           ;        software without specific prior written permission.
    82                           ; 
    83                           ; THIS SOFTWARE IS PROVIDED BY MICROCHIP "AS IS" AND ANY EXPRESS OR IMPLIED WARRANTIES,
    84                           ; INCLUDING, BUT NOT LIMITED TO, THE IMPLIED WARRANTIES OF MERCHANTABILITY AND FITNESS F
      +                          OR
    85                           ; PURPOSE ARE DISCLAIMED.  IN NO EVENT SHALL MICROCHIP BE LIABLE FOR ANY DIRECT, INDIREC
      +                          T,
    86                           ; INCIDENTAL, SPECIAL, EXEMPLARY, OR CONSEQUENTIAL DAMAGES (INCLUDING BUT NOT LIMITED TO
    87                           ; PROCUREMENT OF SUBSTITUTE GOODS OR SERVICES; LOSS OF USE, DATA OR PROFITS; OR BUSINESS
    88                           ; INTERRUPTION) HOWSOEVER CAUSED AND ON ANY THEORY OF LIABILITY, WHETHER IN CONTRACT, ST
      +                          RICT
    89                           ; LIABILITY, OR TORT (INCLUDING NEGLIGENCE OR OTHERWISE) ARISING IN ANY WAY OUT OF THE U
      +                          SE OF
    90                           ; THIS SOFTWARE, EVEN IF ADVISED OF THE POSSIBILITY OF SUCH DAMAGE.
    91                           ; 
    92                           ; 
    93                           ; Code-generator required, PIC18F4520 Definitions
    94                           ; 
    95                           ; SFR Addresses
    96  0000                     
    97                           	psect	nvBANK0
    98  0000F2                     __pnvBANK0:
    99                           	callstack 0
   100  0000F2                     _pLCD:
   101                           	callstack 0
   102  0000F2                     	ds	2
   103  0000                     _INTCON2bits	set	4081
   104  0000                     _TRISBbits	set	3987
   105  0000                     _ADCON1	set	4033
   106  0000                     _PORTBbits	set	3969
   107  0000                     _TRISD	set	3989
   108  0000                     _PORTD	set	3971
   109                           
   110                           	psect	smallconst
   111  000600                     __psmallconst:
   112                           	callstack 0
   113  000600  00                 	db	0
   114  000601                     STR_5:
   115  000601  25                 	db	37
   116  000602  2E                 	db	46
   117  000603  32                 	db	50	;'2'
   118  000604  66                 	db	102	;'f'
   119  000605  00                 	db	0
   120  000606                     STR_21:
   121  000606  49                 	db	73	;'I'
   122  000607  4E                 	db	78	;'N'
   123  000608  46                 	db	70	;'F'
   124  000609  00                 	db	0
   125  00060A                     STR_25:
   126  00060A  4E                 	db	78	;'N'
   127  00060B  41                 	db	65	;'A'
   128  00060C  4E                 	db	78	;'N'
   129  00060D  00                 	db	0
   130  00060E                     STR_22:
   131  00060E  69                 	db	105	;'i'
   132  00060F  6E                 	db	110	;'n'
   133  000610  66                 	db	102	;'f'
   134  000611  00                 	db	0
   135  000612                     STR_26:
   136  000612  6E                 	db	110	;'n'
   137  000613  61                 	db	97	;'a'
   138  000614  6E                 	db	110	;'n'
   139  000615  00                 	db	0
   140  000616                     STR_29:
   141  000616  6C                 	db	108	;'l'
   142  000617  66                 	db	102	;'f'
   143  000618  00                 	db	0
   144  000619                     STR_1:
   145  000619  25                 	db	37
   146  00061A  63                 	db	99	;'c'
   147  00061B  00                 	db	0
   148  00061C  00                 	db	0	; dummy byte at the end
   149  0000                     
   150                           ; #config settings
   151                           
   152                           	psect	cinit
   153  004990                     __pcinit:
   154                           	callstack 0
   155  004990                     start_initialization:
   156                           	callstack 0
   157  004990                     __initialization:
   158                           	callstack 0
   159                           
   160                           ; Clear objects allocated to BANK1 (80 bytes)
   161  004990  EE01  F000         	lfsr	0,__pbssBANK1
   162  004994  0E50               	movlw	80
   163  004996                     clear_0:
   164  004996  6AEE               	clrf	postinc0,c
   165  004998  06E8               	decf	wreg,f,c
   166  00499A  E1FD               	bnz	clear_0
   167                           
   168                           ; Clear objects allocated to BANK0 (18 bytes)
   169  00499C  EE00  F0E0         	lfsr	0,__pbssBANK0
   170  0049A0  0E12               	movlw	18
   171  0049A2                     clear_1:
   172  0049A2  6AEE               	clrf	postinc0,c
   173  0049A4  06E8               	decf	wreg,f,c
   174  0049A6  E1FD               	bnz	clear_1
   175  0049A8                     end_of_initialization:
   176                           	callstack 0
   177  0049A8                     __end_of__initialization:
   178                           	callstack 0
   179  0049A8  0E00               	movlw	low (__Lmediumconst shr (0+16))
   180  0049AA  6EF8               	movwf	tblptru,c
   181  0049AC  0100               	movlb	0
   182  0049AE  EF54  F009         	goto	_main	;jump to C main() function
   183                           
   184                           	psect	bssBANK0
   185  0000E0                     __pbssBANK0:
   186                           	callstack 0
   187  0000E0                     floorf@F527:
   188                           	callstack 0
   189  0000E0                     	ds	4
   190  0000E4                     ___fpclassifyf@F465:
   191                           	callstack 0
   192  0000E4                     	ds	4
   193  0000E8                     _errno:
   194                           	callstack 0
   195  0000E8                     	ds	2
   196  0000EA                     _nout:
   197                           	callstack 0
   198  0000EA                     	ds	2
   199  0000EC                     _width:
   200                           	callstack 0
   201  0000EC                     	ds	2
   202  0000EE                     _prec:
   203                           	callstack 0
   204  0000EE                     	ds	2
   205  0000F0                     _flags:
   206                           	callstack 0
   207  0000F0                     	ds	2
   208                           
   209                           	psect	bssBANK1
   210  000100                     __pbssBANK1:
   211                           	callstack 0
   212  000100                     _dbuf:
   213                           	callstack 0
   214  000100                     	ds	80
   215                           
   216                           	psect	cstackBANK0
   217  000080                     __pcstackBANK0:
   218                           	callstack 0
   219  000080                     _vfpfcnvrt$873:
   220                           	callstack 0
   221                           
   222                           ; 2 bytes @ 0x0
   223  000080                     	ds	2
   224  000082                     _vfpfcnvrt$878:
   225                           	callstack 0
   226                           
   227                           ; 2 bytes @ 0x2
   228  000082                     	ds	2
   229  000084                     vfpfcnvrt@f:
   230                           	callstack 0
   231                           
   232                           ; 4 bytes @ 0x4
   233  000084                     	ds	4
   234  000088                     vfpfcnvrt@ct:
   235                           	callstack 0
   236                           
   237                           ; 3 bytes @ 0x8
   238  000088                     	ds	3
   239  00008B                     vfpfcnvrt@c:
   240                           	callstack 0
   241                           
   242                           ; 1 bytes @ 0xB
   243  00008B                     	ds	1
   244  00008C                     ?_vfprintf:
   245                           	callstack 0
   246  00008C                     vfprintf@fp:
   247                           	callstack 0
   248                           
   249                           ; 2 bytes @ 0xC
   250  00008C                     	ds	2
   251  00008E                     vfprintf@fmt:
   252                           	callstack 0
   253                           
   254                           ; 2 bytes @ 0xE
   255  00008E                     	ds	2
   256  000090                     vfprintf@ap:
   257                           	callstack 0
   258                           
   259                           ; 2 bytes @ 0x10
   260  000090                     	ds	2
   261  000092                     ?_printf:
   262                           	callstack 0
   263  000092                     printf@fmt:
   264                           	callstack 0
   265                           
   266                           ; 2 bytes @ 0x12
   267  000092                     	ds	6
   268  000098                     ??_main:
   269                           
   270                           ; 1 bytes @ 0x18
   271  000098                     	ds	5
   272  00009D                     main@vetaux1:
   273                           	callstack 0
   274                           
   275                           ; 10 bytes @ 0x1D
   276  00009D                     	ds	10
   277  0000A7                     main@vetaux2:
   278                           	callstack 0
   279                           
   280                           ; 10 bytes @ 0x27
   281  0000A7                     	ds	10
   282  0000B1                     _main$1300:
   283                           	callstack 0
   284                           
   285                           ; 4 bytes @ 0x31
   286  0000B1                     	ds	4
   287  0000B5                     _main$1301:
   288                           	callstack 0
   289                           
   290                           ; 4 bytes @ 0x35
   291  0000B5                     	ds	4
   292  0000B9                     main@op:
   293                           	callstack 0
   294                           
   295                           ; 1 bytes @ 0x39
   296  0000B9                     	ds	1
   297  0000BA                     main@equacao:
   298                           	callstack 0
   299                           
   300                           ; 10 bytes @ 0x3A
   301  0000BA                     	ds	10
   302  0000C4                     main@a:
   303                           	callstack 0
   304                           
   305                           ; 2 bytes @ 0x44
   306  0000C4                     	ds	2
   307  0000C6                     main@a_261:
   308                           	callstack 0
   309                           
   310                           ; 2 bytes @ 0x46
   311  0000C6                     	ds	2
   312  0000C8                     main@a_262:
   313                           	callstack 0
   314                           
   315                           ; 2 bytes @ 0x48
   316  0000C8                     	ds	2
   317  0000CA                     main@a_267:
   318                           	callstack 0
   319                           
   320                           ; 2 bytes @ 0x4A
   321  0000CA                     	ds	2
   322  0000CC                     main@a_272:
   323                           	callstack 0
   324                           
   325                           ; 2 bytes @ 0x4C
   326  0000CC                     	ds	2
   327  0000CE                     main@a_277:
   328                           	callstack 0
   329                           
   330                           ; 2 bytes @ 0x4E
   331  0000CE                     	ds	2
   332  0000D0                     main@a_282:
   333                           	callstack 0
   334                           
   335                           ; 2 bytes @ 0x50
   336  0000D0                     	ds	2
   337  0000D2                     main@num1:
   338                           	callstack 0
   339                           
   340                           ; 4 bytes @ 0x52
   341  0000D2                     	ds	4
   342  0000D6                     main@num2:
   343                           	callstack 0
   344                           
   345                           ; 4 bytes @ 0x56
   346  0000D6                     	ds	4
   347  0000DA                     main@i:
   348                           	callstack 0
   349                           
   350                           ; 2 bytes @ 0x5A
   351  0000DA                     	ds	2
   352  0000DC                     main@resp:
   353                           	callstack 0
   354                           
   355                           ; 4 bytes @ 0x5C
   356  0000DC                     	ds	4
   357                           
   358                           	psect	cstackCOMRAM
   359  000001                     __pcstackCOMRAM:
   360                           	callstack 0
   361  000001                     ??_waitIdle:
   362  000001                     ??_verifica_linha_col:
   363  000001                     ?_strlen:
   364                           	callstack 0
   365  000001                     ?___fpclassifyf:
   366                           	callstack 0
   367  000001                     ?_isupper:
   368                           	callstack 0
   369  000001                     ?_isdigit:
   370                           	callstack 0
   371  000001                     ?_strncmp:
   372                           	callstack 0
   373  000001                     ?_isspace:
   374                           	callstack 0
   375  000001                     ?_isalpha:
   376                           	callstack 0
   377  000001                     ?_islower:
   378                           	callstack 0
   379  000001                     ?___wmul:
   380                           	callstack 0
   381  000001                     ?___awdiv:
   382                           	callstack 0
   383  000001                     ?___awmod:
   384                           	callstack 0
   385  000001                     ?___fladd:
   386                           	callstack 0
   387  000001                     ?___fldiv:
   388                           	callstack 0
   389  000001                     ?___flmul:
   390                           	callstack 0
   391  000001                     ?___lmul:
   392                           	callstack 0
   393  000001                     ?___flneg:
   394                           	callstack 0
   395  000001                     ?___fltol:
   396                           	callstack 0
   397  000001                     ___wmul@multiplier:
   398                           	callstack 0
   399  000001                     ___awdiv@dividend:
   400                           	callstack 0
   401  000001                     ___awmod@dividend:
   402                           	callstack 0
   403  000001                     isdigit@c:
   404                           	callstack 0
   405  000001                     isspace@c:
   406                           	callstack 0
   407  000001                     isupper@c:
   408                           	callstack 0
   409  000001                     strcpy@dest:
   410                           	callstack 0
   411  000001                     strlen@s:
   412                           	callstack 0
   413  000001                     strncmp@_l:
   414                           	callstack 0
   415  000001                     isalpha@c:
   416                           	callstack 0
   417  000001                     islower@c:
   418                           	callstack 0
   419  000001                     ___lmul@multiplier:
   420                           	callstack 0
   421  000001                     ___fleq@ff1:
   422                           	callstack 0
   423  000001                     ___flneg@f1:
   424                           	callstack 0
   425  000001                     ___fltol@f1:
   426                           	callstack 0
   427  000001                     ___fladd@b:
   428                           	callstack 0
   429  000001                     ___fldiv@b:
   430                           	callstack 0
   431  000001                     ___flmul@b:
   432                           	callstack 0
   433  000001                     ___fpclassifyf@x:
   434                           	callstack 0
   435                           
   436                           ; 4 bytes @ 0x0
   437  000001                     	ds	1
   438  000002                     waitIdle@aux:
   439                           	callstack 0
   440  000002                     pega_tecla@tecla:
   441                           	callstack 0
   442                           
   443                           ; 1 bytes @ 0x1
   444  000002                     	ds	1
   445  000003                     ??_isupper:
   446  000003                     ??_isdigit:
   447  000003                     ??_isspace:
   448  000003                     ??_isalpha:
   449  000003                     ??_islower:
   450  000003                     ??_sendCMD:
   451  000003                     ??_sendData:
   452  000003                     ___wmul@multiplicand:
   453                           	callstack 0
   454  000003                     ___awdiv@divisor:
   455                           	callstack 0
   456  000003                     ___awmod@divisor:
   457                           	callstack 0
   458  000003                     strcpy@src:
   459                           	callstack 0
   460  000003                     strlen@a:
   461                           	callstack 0
   462  000003                     strncmp@_r:
   463                           	callstack 0
   464                           
   465                           ; 2 bytes @ 0x2
   466  000003                     	ds	1
   467  000004                     sendCMD@dado:
   468                           	callstack 0
   469  000004                     sendData@dado:
   470                           	callstack 0
   471                           
   472                           ; 1 bytes @ 0x3
   473  000004                     	ds	1
   474  000005                     ??___fpclassifyf:
   475  000005                     ??_strcpy:
   476  000005                     ??___fltol:
   477  000005                     putch@c:
   478                           	callstack 0
   479  000005                     ___awdiv@counter:
   480                           	callstack 0
   481  000005                     ___awmod@counter:
   482                           	callstack 0
   483  000005                     ___wmul@product:
   484                           	callstack 0
   485  000005                     strncmp@n:
   486                           	callstack 0
   487  000005                     ___lmul@multiplicand:
   488                           	callstack 0
   489  000005                     ___fleq@ff2:
   490                           	callstack 0
   491  000005                     ___fladd@a:
   492                           	callstack 0
   493  000005                     ___fldiv@a:
   494                           	callstack 0
   495  000005                     ___flmul@a:
   496                           	callstack 0
   497                           
   498                           ; 4 bytes @ 0x4
   499  000005                     	ds	1
   500  000006                     ___awdiv@sign:
   501                           	callstack 0
   502  000006                     ___awmod@sign:
   503                           	callstack 0
   504  000006                     fputc@c:
   505                           	callstack 0
   506                           
   507                           ; 2 bytes @ 0x5
   508  000006                     	ds	1
   509  000007                     ??_strncmp:
   510  000007                     ?_tolower:
   511                           	callstack 0
   512  000007                     ?_toupper:
   513                           	callstack 0
   514  000007                     _isspace$943:
   515                           	callstack 0
   516  000007                     ___awdiv@quotient:
   517                           	callstack 0
   518  000007                     strcpy@s:
   519                           	callstack 0
   520  000007                     tolower@c:
   521                           	callstack 0
   522  000007                     toupper@c:
   523                           	callstack 0
   524                           
   525                           ; 2 bytes @ 0x6
   526  000007                     	ds	1
   527  000008                     ?_atoi:
   528                           	callstack 0
   529  000008                     atoi@s:
   530                           	callstack 0
   531  000008                     fputc@fp:
   532                           	callstack 0
   533  000008                     strncmp@l:
   534                           	callstack 0
   535                           
   536                           ; 2 bytes @ 0x7
   537  000008                     	ds	1
   538  000009                     ??___fladd:
   539  000009                     ??___fldiv:
   540  000009                     ??___flmul:
   541  000009                     ??_tolower:
   542  000009                     ??_toupper:
   543  000009                     ??___fleq:
   544  000009                     ___fltol@sign1:
   545                           	callstack 0
   546  000009                     ___fpclassifyf@e:
   547                           	callstack 0
   548  000009                     strcpy@d:
   549                           	callstack 0
   550  000009                     ___lmul@product:
   551                           	callstack 0
   552                           
   553                           ; 4 bytes @ 0x8
   554  000009                     	ds	1
   555  00000A                     ??_fputc:
   556  00000A                     ??_atoi:
   557  00000A                     ___fltol@exp1:
   558                           	callstack 0
   559  00000A                     strncmp@r:
   560                           	callstack 0
   561                           
   562                           ; 2 bytes @ 0x9
   563  00000A                     	ds	1
   564  00000B                     ___fpclassifyf@u:
   565                           	callstack 0
   566                           
   567                           ; 4 bytes @ 0xA
   568  00000B                     	ds	2
   569  00000D                     ___fladd@signs:
   570                           	callstack 0
   571  00000D                     ___flmul@sign:
   572                           	callstack 0
   573  00000D                     _tolower$1055:
   574                           	callstack 0
   575  00000D                     _toupper$1070:
   576                           	callstack 0
   577  00000D                     ___fldiv@rem:
   578                           	callstack 0
   579                           
   580                           ; 4 bytes @ 0xC
   581  00000D                     	ds	1
   582  00000E                     ___fladd@aexp:
   583                           	callstack 0
   584  00000E                     atoi@neg:
   585                           	callstack 0
   586  00000E                     ___flmul@grs:
   587                           	callstack 0
   588                           
   589                           ; 4 bytes @ 0xD
   590  00000E                     	ds	1
   591  00000F                     ?_ctoa:
   592                           	callstack 0
   593  00000F                     ?___strtoxl:
   594                           	callstack 0
   595  00000F                     ___fladd@bexp:
   596                           	callstack 0
   597  00000F                     ctoa@fp:
   598                           	callstack 0
   599  00000F                     fputs@s:
   600                           	callstack 0
   601  00000F                     ___strtoxl@s:
   602                           	callstack 0
   603                           
   604                           ; 2 bytes @ 0xE
   605  00000F                     	ds	1
   606  000010                     ___fladd@grs:
   607                           	callstack 0
   608  000010                     _atoi$912:
   609                           	callstack 0
   610                           
   611                           ; 2 bytes @ 0xF
   612  000010                     	ds	1
   613  000011                     ___fldiv@sign:
   614                           	callstack 0
   615  000011                     ctoa@c:
   616                           	callstack 0
   617  000011                     fputs@fp:
   618                           	callstack 0
   619  000011                     ___strtoxl@endptr:
   620                           	callstack 0
   621                           
   622                           ; 2 bytes @ 0x10
   623  000011                     	ds	1
   624  000012                     ??_ctoa:
   625  000012                     ___flmul@aexp:
   626                           	callstack 0
   627  000012                     ___fldiv@new_exp:
   628                           	callstack 0
   629  000012                     _atoi$914:
   630                           	callstack 0
   631                           
   632                           ; 2 bytes @ 0x11
   633  000012                     	ds	1
   634  000013                     ___flmul@bexp:
   635                           	callstack 0
   636  000013                     fputs@c:
   637                           	callstack 0
   638  000013                     ctoa@l:
   639                           	callstack 0
   640  000013                     ___strtoxl@base:
   641                           	callstack 0
   642                           
   643                           ; 2 bytes @ 0x12
   644  000013                     	ds	1
   645  000014                     _atoi$913:
   646                           	callstack 0
   647  000014                     fputs@i:
   648                           	callstack 0
   649  000014                     ___fldiv@grs:
   650                           	callstack 0
   651  000014                     ___flmul@prod:
   652                           	callstack 0
   653                           
   654                           ; 4 bytes @ 0x13
   655  000014                     	ds	1
   656  000015                     ___strtoxl@is_signed:
   657                           	callstack 0
   658  000015                     ctoa@w:
   659                           	callstack 0
   660  000015                     atoi@n:
   661                           	callstack 0
   662                           
   663                           ; 2 bytes @ 0x14
   664  000015                     	ds	1
   665  000016                     ??___strtoxl:
   666  000016                     ?_pad:
   667                           	callstack 0
   668  000016                     pad@fp:
   669                           	callstack 0
   670                           
   671                           ; 2 bytes @ 0x15
   672  000016                     	ds	2
   673  000018                     ___fldiv@bexp:
   674                           	callstack 0
   675  000018                     ___flmul@temp:
   676                           	callstack 0
   677  000018                     pad@buf:
   678                           	callstack 0
   679                           
   680                           ; 2 bytes @ 0x17
   681  000018                     	ds	1
   682  000019                     ___fldiv@aexp:
   683                           	callstack 0
   684                           
   685                           ; 1 bytes @ 0x18
   686  000019                     	ds	1
   687  00001A                     ?___flsub:
   688                           	callstack 0
   689  00001A                     ?_floorf:
   690                           	callstack 0
   691  00001A                     pad@p:
   692                           	callstack 0
   693  00001A                     ___flge@ff1:
   694                           	callstack 0
   695  00001A                     ___flsub@b:
   696                           	callstack 0
   697  00001A                     floorf@x:
   698                           	callstack 0
   699  00001A                     ___strtoxl@prev_a:
   700                           	callstack 0
   701                           
   702                           ; 4 bytes @ 0x19
   703  00001A                     	ds	2
   704  00001C                     ??_pad:
   705                           
   706                           ; 1 bytes @ 0x1B
   707  00001C                     	ds	1
   708  00001D                     pad@i:
   709                           	callstack 0
   710                           
   711                           ; 2 bytes @ 0x1C
   712  00001D                     	ds	1
   713  00001E                     ??_floorf:
   714  00001E                     ___strtoxl$1034:
   715                           	callstack 0
   716  00001E                     ___flge@ff2:
   717                           	callstack 0
   718  00001E                     ___flsub@a:
   719                           	callstack 0
   720                           
   721                           ; 4 bytes @ 0x1D
   722  00001E                     	ds	1
   723  00001F                     pad@w:
   724                           	callstack 0
   725                           
   726                           ; 2 bytes @ 0x1E
   727  00001F                     	ds	1
   728  000020                     ___strtoxl$1036:
   729                           	callstack 0
   730                           
   731                           ; 2 bytes @ 0x1F
   732  000020                     	ds	2
   733  000022                     ??___flge:
   734  000022                     ___strtoxl$1037:
   735                           	callstack 0
   736                           
   737                           ; 2 bytes @ 0x21
   738  000022                     	ds	2
   739  000024                     ___strtoxl$1035:
   740                           	callstack 0
   741  000024                     floorf@m:
   742                           	callstack 0
   743                           
   744                           ; 4 bytes @ 0x23
   745  000024                     	ds	1
   746  000025                     ___strtoxl@conv_done:
   747                           	callstack 0
   748                           
   749                           ; 1 bytes @ 0x24
   750  000025                     	ds	1
   751  000026                     ___strtoxl@limit:
   752                           	callstack 0
   753                           
   754                           ; 4 bytes @ 0x25
   755  000026                     	ds	2
   756  000028                     floorf@e:
   757                           	callstack 0
   758                           
   759                           ; 2 bytes @ 0x27
   760  000028                     	ds	2
   761  00002A                     ___strtoxl@sign:
   762                           	callstack 0
   763  00002A                     floorf@u:
   764                           	callstack 0
   765                           
   766                           ; 4 bytes @ 0x29
   767  00002A                     	ds	1
   768  00002B                     ___strtoxl@skip:
   769                           	callstack 0
   770                           
   771                           ; 1 bytes @ 0x2A
   772  00002B                     	ds	1
   773  00002C                     ___strtoxl@a:
   774                           	callstack 0
   775                           
   776                           ; 4 bytes @ 0x2B
   777  00002C                     	ds	2
   778  00002E                     ?_efgtoa:
   779                           	callstack 0
   780  00002E                     efgtoa@fp:
   781                           	callstack 0
   782                           
   783                           ; 2 bytes @ 0x2D
   784  00002E                     	ds	2
   785  000030                     ___strtoxl@cp:
   786                           	callstack 0
   787  000030                     efgtoa@f:
   788                           	callstack 0
   789                           
   790                           ; 4 bytes @ 0x2F
   791  000030                     	ds	2
   792  000032                     ___strtoxl@c:
   793                           	callstack 0
   794                           
   795                           ; 1 bytes @ 0x31
   796  000032                     	ds	1
   797  000033                     ?_strtol:
   798                           	callstack 0
   799  000033                     strtol@s:
   800                           	callstack 0
   801                           
   802                           ; 2 bytes @ 0x32
   803  000033                     	ds	1
   804  000034                     efgtoa@c:
   805                           	callstack 0
   806                           
   807                           ; 1 bytes @ 0x33
   808  000034                     	ds	1
   809  000035                     ??_efgtoa:
   810  000035                     strtol@endptr:
   811                           	callstack 0
   812                           
   813                           ; 2 bytes @ 0x34
   814  000035                     	ds	2
   815  000037                     strtol@base:
   816                           	callstack 0
   817                           
   818                           ; 2 bytes @ 0x36
   819  000037                     	ds	2
   820  000039                     ?___xxtofl:
   821                           	callstack 0
   822  000039                     ___xxtofl@val:
   823                           	callstack 0
   824                           
   825                           ; 4 bytes @ 0x38
   826  000039                     	ds	1
   827  00003A                     _efgtoa$847:
   828                           	callstack 0
   829                           
   830                           ; 2 bytes @ 0x39
   831  00003A                     	ds	2
   832  00003C                     _efgtoa$848:
   833                           	callstack 0
   834                           
   835                           ; 2 bytes @ 0x3B
   836  00003C                     	ds	1
   837  00003D                     ??___xxtofl:
   838                           
   839                           ; 1 bytes @ 0x3C
   840  00003D                     	ds	1
   841  00003E                     _efgtoa$853:
   842                           	callstack 0
   843                           
   844                           ; 2 bytes @ 0x3D
   845  00003E                     	ds	2
   846  000040                     _efgtoa$857:
   847                           	callstack 0
   848                           
   849                           ; 2 bytes @ 0x3F
   850  000040                     	ds	1
   851  000041                     ___xxtofl@sign:
   852                           	callstack 0
   853                           
   854                           ; 1 bytes @ 0x40
   855  000041                     	ds	1
   856  000042                     ___xxtofl@exp:
   857                           	callstack 0
   858  000042                     _efgtoa$858:
   859                           	callstack 0
   860                           
   861                           ; 2 bytes @ 0x41
   862  000042                     	ds	1
   863  000043                     ___xxtofl@arg:
   864                           	callstack 0
   865                           
   866                           ; 4 bytes @ 0x42
   867  000043                     	ds	1
   868  000044                     _efgtoa$859:
   869                           	callstack 0
   870                           
   871                           ; 2 bytes @ 0x43
   872  000044                     	ds	2
   873  000046                     efgtoa@t:
   874                           	callstack 0
   875                           
   876                           ; 2 bytes @ 0x45
   877  000046                     	ds	2
   878  000048                     efgtoa@pp:
   879                           	callstack 0
   880                           
   881                           ; 2 bytes @ 0x47
   882  000048                     	ds	2
   883  00004A                     efgtoa@ne:
   884                           	callstack 0
   885                           
   886                           ; 2 bytes @ 0x49
   887  00004A                     	ds	2
   888  00004C                     efgtoa@m:
   889                           	callstack 0
   890                           
   891                           ; 2 bytes @ 0x4B
   892  00004C                     	ds	2
   893  00004E                     efgtoa@ou:
   894                           	callstack 0
   895                           
   896                           ; 4 bytes @ 0x4D
   897  00004E                     	ds	4
   898  000052                     efgtoa@d:
   899                           	callstack 0
   900                           
   901                           ; 2 bytes @ 0x51
   902  000052                     	ds	2
   903  000054                     efgtoa@sign:
   904                           	callstack 0
   905                           
   906                           ; 2 bytes @ 0x53
   907  000054                     	ds	2
   908  000056                     efgtoa@p:
   909                           	callstack 0
   910                           
   911                           ; 2 bytes @ 0x55
   912  000056                     	ds	2
   913  000058                     efgtoa@w:
   914                           	callstack 0
   915                           
   916                           ; 2 bytes @ 0x57
   917  000058                     	ds	2
   918  00005A                     efgtoa@nmode:
   919                           	callstack 0
   920                           
   921                           ; 1 bytes @ 0x59
   922  00005A                     	ds	1
   923  00005B                     efgtoa@mode:
   924                           	callstack 0
   925                           
   926                           ; 1 bytes @ 0x5A
   927  00005B                     	ds	1
   928  00005C                     efgtoa@h:
   929                           	callstack 0
   930                           
   931                           ; 4 bytes @ 0x5B
   932  00005C                     	ds	4
   933  000060                     efgtoa@l:
   934                           	callstack 0
   935                           
   936                           ; 4 bytes @ 0x5F
   937  000060                     	ds	4
   938  000064                     efgtoa@i:
   939                           	callstack 0
   940                           
   941                           ; 2 bytes @ 0x63
   942  000064                     	ds	2
   943  000066                     efgtoa@g:
   944                           	callstack 0
   945                           
   946                           ; 4 bytes @ 0x65
   947  000066                     	ds	4
   948  00006A                     efgtoa@e:
   949                           	callstack 0
   950                           
   951                           ; 2 bytes @ 0x69
   952  00006A                     	ds	2
   953  00006C                     efgtoa@n:
   954                           	callstack 0
   955                           
   956                           ; 2 bytes @ 0x6B
   957  00006C                     	ds	2
   958  00006E                     efgtoa@u:
   959                           	callstack 0
   960                           
   961                           ; 4 bytes @ 0x6D
   962  00006E                     	ds	4
   963  000072                     ?_vfpfcnvrt:
   964                           	callstack 0
   965  000072                     vfpfcnvrt@fp:
   966                           	callstack 0
   967                           
   968                           ; 2 bytes @ 0x71
   969  000072                     	ds	2
   970  000074                     vfpfcnvrt@fmt:
   971                           	callstack 0
   972                           
   973                           ; 2 bytes @ 0x73
   974  000074                     	ds	2
   975  000076                     vfpfcnvrt@ap:
   976                           	callstack 0
   977                           
   978                           ; 2 bytes @ 0x75
   979  000076                     	ds	2
   980  000078                     ??_vfpfcnvrt:
   981                           
   982                           ; 1 bytes @ 0x77
   983  000078                     	ds	4
   984  00007C                     vfprintf@cfmt:
   985                           	callstack 0
   986                           
   987                           ; 2 bytes @ 0x7B
   988  00007C                     	ds	2
   989  00007E                     printf@ap:
   990                           	callstack 0
   991                           
   992                           ; 2 bytes @ 0x7D
   993  00007E                     	ds	2
   994                           
   995 ;;
   996 ;;Main: autosize = 0, tempsize = 5, incstack = 0, save=0
   997 ;;
   998 ;; *************** function _main *****************
   999 ;; Defined at:
  1000 ;;		line 259 in file "main.c"
  1001 ;; Parameters:    Size  Location     Type
  1002 ;;		None
  1003 ;; Auto vars:     Size  Location     Type
  1004 ;;  a               2   78[BANK0 ] int 
  1005 ;;  a               2   76[BANK0 ] int 
  1006 ;;  a               2   74[BANK0 ] int 
  1007 ;;  a               2   72[BANK0 ] int 
  1008 ;;  a               2   80[BANK0 ] int 
  1009 ;;  a               2   70[BANK0 ] int 
  1010 ;;  a               2   68[BANK0 ] int 
  1011 ;;  equacao        10   58[BANK0 ] unsigned char [10]
  1012 ;;  vetaux2        10   39[BANK0 ] unsigned char [10]
  1013 ;;  vetaux1        10   29[BANK0 ] unsigned char [10]
  1014 ;;  resp            4   92[BANK0 ] float 
  1015 ;;  num2            4   86[BANK0 ] float 
  1016 ;;  num1            4   82[BANK0 ] float 
  1017 ;;  i               2   90[BANK0 ] int 
  1018 ;;  op              1   57[BANK0 ] unsigned char 
  1019 ;; Return value:  Size  Location     Type
  1020 ;;                  1    wreg      void 
  1021 ;; Registers used:
  1022 ;;		wreg, fsr1l, fsr1h, fsr2l, fsr2h, status,2, status,0, tblptrl, tblptrh, tblptru, prodl, prodh, cstack
  1023 ;; Tracked objects:
  1024 ;;		On entry : 0/0
  1025 ;;		On exit  : 0/0
  1026 ;;		Unchanged: 0/0
  1027 ;; Data sizes:     COMRAM   BANK0   BANK1   BANK2   BANK3   BANK4   BANK5
  1028 ;;      Params:         0       0       0       0       0       0       0
  1029 ;;      Locals:         0      67       0       0       0       0       0
  1030 ;;      Temps:          0       5       0       0       0       0       0
  1031 ;;      Totals:         0      72       0       0       0       0       0
  1032 ;;Total ram usage:       72 bytes
  1033 ;; Hardware stack levels required when called: 10
  1034 ;; This function calls:
  1035 ;;		___fladd
  1036 ;;		___fldiv
  1037 ;;		___fleq
  1038 ;;		___flmul
  1039 ;;		___flsub
  1040 ;;		___xxtofl
  1041 ;;		_initLCD
  1042 ;;		_pega_tecla
  1043 ;;		_printf
  1044 ;;		_sendCMD
  1045 ;;		_strtol
  1046 ;; This function is called by:
  1047 ;;		Startup code after reset
  1048 ;; This function uses a non-reentrant model
  1049 ;;
  1050                           
  1051                           	psect	text0
  1052  0012A8                     __ptext0:
  1053                           	callstack 0
  1054  0012A8                     _main:
  1055                           	callstack 21
  1056  0012A8                     
  1057                           ;main.c: 260:     ADCON1 = 0x0F;
  1058  0012A8  0E0F               	movlw	15
  1059  0012AA  6EC1               	movwf	193,c	;volatile
  1060  0012AC                     
  1061                           ;main.c: 261:     TRISBbits.RB0 = 0;
  1062  0012AC  9093               	bcf	147,0,c	;volatile
  1063  0012AE                     
  1064                           ;main.c: 262:     TRISBbits.RB1 = 0;
  1065  0012AE  9293               	bcf	147,1,c	;volatile
  1066  0012B0                     
  1067                           ;main.c: 263:     TRISBbits.RB2 = 0;
  1068  0012B0  9493               	bcf	147,2,c	;volatile
  1069  0012B2                     
  1070                           ;main.c: 264:     TRISBbits.RB3 = 0;
  1071  0012B2  9693               	bcf	147,3,c	;volatile
  1072  0012B4                     
  1073                           ;main.c: 265:     TRISBbits.RB4 = 1;
  1074  0012B4  8893               	bsf	147,4,c	;volatile
  1075  0012B6                     
  1076                           ;main.c: 266:     TRISBbits.RB5 = 1;
  1077  0012B6  8A93               	bsf	147,5,c	;volatile
  1078  0012B8                     
  1079                           ;main.c: 267:     TRISBbits.RB6 = 1;
  1080  0012B8  8C93               	bsf	147,6,c	;volatile
  1081  0012BA                     
  1082                           ;main.c: 268:     TRISBbits.RB7 = 1;
  1083  0012BA  8E93               	bsf	147,7,c	;volatile
  1084  0012BC                     
  1085                           ;main.c: 269:     INTCON2bits.RBPU = 0;
  1086  0012BC  9EF1               	bcf	241,7,c	;volatile
  1087                           
  1088                           ;main.c: 270:     char equacao[10], vetaux1[10], vetaux2[10];;main.c: 271:     float num
      +                          1, num2;;main.c: 272:     char op;;main.c: 273:     float resp = 0.0;
  1089  0012BE  0E00               	movlw	0
  1090  0012C0  0100               	movlb	0	; () banked
  1091  0012C2  6FDC               	movwf	main@resp& (0+255),b
  1092  0012C4  0E00               	movlw	0
  1093  0012C6  6FDD               	movwf	(main@resp+1)& (0+255),b
  1094  0012C8  0E00               	movlw	0
  1095  0012CA  6FDE               	movwf	(main@resp+2)& (0+255),b
  1096  0012CC  0E00               	movlw	0
  1097  0012CE  6FDF               	movwf	(main@resp+3)& (0+255),b
  1098                           
  1099                           ;main.c: 274:     int i = 0;
  1100  0012D0  0E00               	movlw	0
  1101  0012D2  6FDB               	movwf	(main@i+1)& (0+255),b
  1102  0012D4  0E00               	movlw	0
  1103  0012D6  6FDA               	movwf	main@i& (0+255),b
  1104  0012D8                     
  1105                           ; BSR set to: 0
  1106                           ;main.c: 275:     initLCD();
  1107  0012D8  EC58  F022         	call	_initLCD	;wreg free
  1108  0012DC                     l4946:
  1109                           
  1110                           ;main.c: 277:         equacao[i] = pega_tecla();
  1111  0012DC  0EBA               	movlw	low main@equacao
  1112  0012DE  0100               	movlb	0	; () banked
  1113  0012E0  25DA               	addwf	main@i& (0+255),w,b
  1114  0012E2  6ED9               	movwf	fsr2l,c
  1115  0012E4  0E00               	movlw	high main@equacao
  1116  0012E6  21DB               	addwfc	(main@i+1)& (0+255),w,b
  1117  0012E8  6EDA               	movwf	fsr2h,c
  1118  0012EA  ECB6  F024         	call	_pega_tecla	;wreg free
  1119  0012EE  6EDF               	movwf	indf2,c
  1120  0012F0                     
  1121                           ;main.c: 278:         printf("%c", equacao[i]);
  1122  0012F0  0E19               	movlw	low STR_1
  1123  0012F2  0100               	movlb	0	; () banked
  1124  0012F4  6F92               	movwf	printf@fmt& (0+255),b
  1125  0012F6  0E06               	movlw	high STR_1
  1126  0012F8  6F93               	movwf	(printf@fmt+1)& (0+255),b
  1127  0012FA  0EBA               	movlw	low main@equacao
  1128  0012FC  25DA               	addwf	main@i& (0+255),w,b
  1129  0012FE  6ED9               	movwf	fsr2l,c
  1130  001300  0E00               	movlw	high main@equacao
  1131  001302  21DB               	addwfc	(main@i+1)& (0+255),w,b
  1132  001304  6EDA               	movwf	fsr2h,c
  1133  001306  50DF               	movf	indf2,w,c
  1134  001308  6F98               	movwf	??_main& (0+255),b
  1135  00130A  5198               	movf	??_main& (0+255),w,b
  1136  00130C  6F94               	movwf	(?_printf+2)& (0+255),b
  1137  00130E  6B95               	clrf	(?_printf+3)& (0+255),b
  1138  001310  EC8F  F024         	call	_printf	;wreg free
  1139  001314                     
  1140                           ;main.c: 279:         i++;
  1141  001314  0100               	movlb	0	; () banked
  1142  001316  4BDA               	infsnz	main@i& (0+255),f,b
  1143  001318  2BDB               	incf	(main@i+1)& (0+255),f,b
  1144  00131A                     
  1145                           ; BSR set to: 0
  1146                           ;main.c: 281:         if (equacao[i - 1] == '+' || equacao[i - 1] == '-' || equacao[i - 
      +                          1] == '/' || equacao[i - 1] == 'x') {
  1147  00131A  0EFF               	movlw	255
  1148  00131C  6F98               	movwf	??_main& (0+255),b
  1149  00131E  0EFF               	movlw	255
  1150  001320  6F99               	movwf	(??_main+1)& (0+255),b
  1151  001322  C0DA  F09A         	movff	main@i,??_main+2
  1152  001326  C0DB  F09B         	movff	main@i+1,??_main+3
  1153  00132A  5198               	movf	??_main& (0+255),w,b
  1154  00132C  279A               	addwf	(??_main+2)& (0+255),f,b
  1155  00132E  5199               	movf	(??_main+1)& (0+255),w,b
  1156  001330  239B               	addwfc	(??_main+3)& (0+255),f,b
  1157  001332  0EBA               	movlw	low main@equacao
  1158  001334  259A               	addwf	(??_main+2)& (0+255),w,b
  1159  001336  6ED9               	movwf	fsr2l,c
  1160  001338  0E00               	movlw	high main@equacao
  1161  00133A  219B               	addwfc	(??_main+3)& (0+255),w,b
  1162  00133C  6EDA               	movwf	fsr2h,c
  1163  00133E  0E2B               	movlw	43
  1164  001340  18DE               	xorwf	postinc2,w,c
  1165  001342  B4D8               	btfsc	status,2,c
  1166  001344  EFA6  F009         	goto	u6591
  1167  001348  EFA8  F009         	goto	u6590
  1168  00134C                     u6591:
  1169  00134C  EFF9  F009         	goto	l4960
  1170  001350                     u6590:
  1171  001350                     
  1172                           ; BSR set to: 0
  1173  001350  0EFF               	movlw	255
  1174  001352  6F98               	movwf	??_main& (0+255),b
  1175  001354  0EFF               	movlw	255
  1176  001356  6F99               	movwf	(??_main+1)& (0+255),b
  1177  001358  C0DA  F09A         	movff	main@i,??_main+2
  1178  00135C  C0DB  F09B         	movff	main@i+1,??_main+3
  1179  001360  5198               	movf	??_main& (0+255),w,b
  1180  001362  279A               	addwf	(??_main+2)& (0+255),f,b
  1181  001364  5199               	movf	(??_main+1)& (0+255),w,b
  1182  001366  239B               	addwfc	(??_main+3)& (0+255),f,b
  1183  001368  0EBA               	movlw	low main@equacao
  1184  00136A  259A               	addwf	(??_main+2)& (0+255),w,b
  1185  00136C  6ED9               	movwf	fsr2l,c
  1186  00136E  0E00               	movlw	high main@equacao
  1187  001370  219B               	addwfc	(??_main+3)& (0+255),w,b
  1188  001372  6EDA               	movwf	fsr2h,c
  1189  001374  0E2D               	movlw	45
  1190  001376  18DE               	xorwf	postinc2,w,c
  1191  001378  B4D8               	btfsc	status,2,c
  1192  00137A  EFC1  F009         	goto	u6601
  1193  00137E  EFC3  F009         	goto	u6600
  1194  001382                     u6601:
  1195  001382  EFF9  F009         	goto	l4960
  1196  001386                     u6600:
  1197  001386                     
  1198                           ; BSR set to: 0
  1199  001386  0EFF               	movlw	255
  1200  001388  6F98               	movwf	??_main& (0+255),b
  1201  00138A  0EFF               	movlw	255
  1202  00138C  6F99               	movwf	(??_main+1)& (0+255),b
  1203  00138E  C0DA  F09A         	movff	main@i,??_main+2
  1204  001392  C0DB  F09B         	movff	main@i+1,??_main+3
  1205  001396  5198               	movf	??_main& (0+255),w,b
  1206  001398  279A               	addwf	(??_main+2)& (0+255),f,b
  1207  00139A  5199               	movf	(??_main+1)& (0+255),w,b
  1208  00139C  239B               	addwfc	(??_main+3)& (0+255),f,b
  1209  00139E  0EBA               	movlw	low main@equacao
  1210  0013A0  259A               	addwf	(??_main+2)& (0+255),w,b
  1211  0013A2  6ED9               	movwf	fsr2l,c
  1212  0013A4  0E00               	movlw	high main@equacao
  1213  0013A6  219B               	addwfc	(??_main+3)& (0+255),w,b
  1214  0013A8  6EDA               	movwf	fsr2h,c
  1215  0013AA  0E2F               	movlw	47
  1216  0013AC  18DE               	xorwf	postinc2,w,c
  1217  0013AE  B4D8               	btfsc	status,2,c
  1218  0013B0  EFDC  F009         	goto	u6611
  1219  0013B4  EFDE  F009         	goto	u6610
  1220  0013B8                     u6611:
  1221  0013B8  EFF9  F009         	goto	l4960
  1222  0013BC                     u6610:
  1223  0013BC                     
  1224                           ; BSR set to: 0
  1225  0013BC  0EFF               	movlw	255
  1226  0013BE  6F98               	movwf	??_main& (0+255),b
  1227  0013C0  0EFF               	movlw	255
  1228  0013C2  6F99               	movwf	(??_main+1)& (0+255),b
  1229  0013C4  C0DA  F09A         	movff	main@i,??_main+2
  1230  0013C8  C0DB  F09B         	movff	main@i+1,??_main+3
  1231  0013CC  5198               	movf	??_main& (0+255),w,b
  1232  0013CE  279A               	addwf	(??_main+2)& (0+255),f,b
  1233  0013D0  5199               	movf	(??_main+1)& (0+255),w,b
  1234  0013D2  239B               	addwfc	(??_main+3)& (0+255),f,b
  1235  0013D4  0EBA               	movlw	low main@equacao
  1236  0013D6  259A               	addwf	(??_main+2)& (0+255),w,b
  1237  0013D8  6ED9               	movwf	fsr2l,c
  1238  0013DA  0E00               	movlw	high main@equacao
  1239  0013DC  219B               	addwfc	(??_main+3)& (0+255),w,b
  1240  0013DE  6EDA               	movwf	fsr2h,c
  1241  0013E0  0E78               	movlw	120
  1242  0013E2  18DE               	xorwf	postinc2,w,c
  1243  0013E4  A4D8               	btfss	status,2,c
  1244  0013E6  EFF7  F009         	goto	u6621
  1245  0013EA  EFF9  F009         	goto	u6620
  1246  0013EE                     u6621:
  1247  0013EE  EF66  F00A         	goto	l4974
  1248  0013F2                     u6620:
  1249  0013F2                     l4960:
  1250                           
  1251                           ; BSR set to: 0
  1252                           ;main.c: 283:             for (int a = 0; a < i - 1; a++) {
  1253  0013F2  0E00               	movlw	0
  1254  0013F4  6FC5               	movwf	(main@a+1)& (0+255),b
  1255  0013F6  0E00               	movlw	0
  1256  0013F8  6FC4               	movwf	main@a& (0+255),b
  1257  0013FA  EF0F  F00A         	goto	l4966
  1258  0013FE                     l4962:
  1259                           
  1260                           ; BSR set to: 0
  1261                           ;main.c: 284:                 vetaux1[a] = equacao[a];
  1262  0013FE  0EBA               	movlw	low main@equacao
  1263  001400  25C4               	addwf	main@a& (0+255),w,b
  1264  001402  6ED9               	movwf	fsr2l,c
  1265  001404  0E00               	movlw	high main@equacao
  1266  001406  21C5               	addwfc	(main@a+1)& (0+255),w,b
  1267  001408  6EDA               	movwf	fsr2h,c
  1268  00140A  0E9D               	movlw	low main@vetaux1
  1269  00140C  25C4               	addwf	main@a& (0+255),w,b
  1270  00140E  6EE1               	movwf	fsr1l,c
  1271  001410  0E00               	movlw	high main@vetaux1
  1272  001412  21C5               	addwfc	(main@a+1)& (0+255),w,b
  1273  001414  6EE2               	movwf	fsr1h,c
  1274  001416  CFDF FFE7          	movff	indf2,indf1
  1275  00141A                     
  1276                           ; BSR set to: 0
  1277                           ;main.c: 285:             }
  1278  00141A  4BC4               	infsnz	main@a& (0+255),f,b
  1279  00141C  2BC5               	incf	(main@a+1)& (0+255),f,b
  1280  00141E                     l4966:
  1281                           
  1282                           ; BSR set to: 0
  1283  00141E  0EFF               	movlw	255
  1284  001420  6F98               	movwf	??_main& (0+255),b
  1285  001422  0EFF               	movlw	255
  1286  001424  6F99               	movwf	(??_main+1)& (0+255),b
  1287  001426  C0DA  F09A         	movff	main@i,??_main+2
  1288  00142A  C0DB  F09B         	movff	main@i+1,??_main+3
  1289  00142E  5198               	movf	??_main& (0+255),w,b
  1290  001430  279A               	addwf	(??_main+2)& (0+255),f,b
  1291  001432  5199               	movf	(??_main+1)& (0+255),w,b
  1292  001434  239B               	addwfc	(??_main+3)& (0+255),f,b
  1293  001436  519A               	movf	(??_main+2)& (0+255),w,b
  1294  001438  5DC4               	subwf	main@a& (0+255),w,b
  1295  00143A  51C5               	movf	(main@a+1)& (0+255),w,b
  1296  00143C  0A80               	xorlw	128
  1297  00143E  6F9C               	movwf	(??_main+4)& (0+255),b
  1298  001440  519B               	movf	(??_main+3)& (0+255),w,b
  1299  001442  0A80               	xorlw	128
  1300  001444  599C               	subwfb	(??_main+4)& (0+255),w,b
  1301  001446  A0D8               	btfss	status,0,c
  1302  001448  EF28  F00A         	goto	u6631
  1303  00144C  EF2A  F00A         	goto	u6630
  1304  001450                     u6631:
  1305  001450  EFFF  F009         	goto	l4962
  1306  001454                     u6630:
  1307  001454                     
  1308                           ; BSR set to: 0
  1309                           ;main.c: 286:             num1 = strtol(vetaux1, ((void*)0), 10);
  1310  001454  0E00               	movlw	0
  1311  001456  6E38               	movwf	(strtol@base+1)^0,c
  1312  001458  0E0A               	movlw	10
  1313  00145A  6E37               	movwf	strtol@base^0,c
  1314  00145C  0E00               	movlw	0
  1315  00145E  6E35               	movwf	strtol@endptr^0,c
  1316  001460  0E00               	movlw	0
  1317  001462  6E36               	movwf	(strtol@endptr+1)^0,c
  1318  001464  0E9D               	movlw	low main@vetaux1
  1319  001466  6E33               	movwf	strtol@s^0,c
  1320  001468  0E00               	movlw	high main@vetaux1
  1321  00146A  6E34               	movwf	(strtol@s+1)^0,c
  1322  00146C  EC61  F024         	call	_strtol	;wreg free
  1323  001470  C033  F039         	movff	?_strtol,___xxtofl@val
  1324  001474  C034  F03A         	movff	?_strtol+1,___xxtofl@val+1
  1325  001478  C035  F03B         	movff	?_strtol+2,___xxtofl@val+2
  1326  00147C  C036  F03C         	movff	?_strtol+3,___xxtofl@val+3
  1327  001480  0E01               	movlw	1
  1328  001482  ECA4  F01B         	call	___xxtofl
  1329  001486  C039  F0D2         	movff	?___xxtofl,main@num1
  1330  00148A  C03A  F0D3         	movff	?___xxtofl+1,main@num1+1
  1331  00148E  C03B  F0D4         	movff	?___xxtofl+2,main@num1+2
  1332  001492  C03C  F0D5         	movff	?___xxtofl+3,main@num1+3
  1333  001496                     
  1334                           ;main.c: 287:             op = equacao[i - 1];
  1335  001496  0EFF               	movlw	255
  1336  001498  0100               	movlb	0	; () banked
  1337  00149A  6F98               	movwf	??_main& (0+255),b
  1338  00149C  0EFF               	movlw	255
  1339  00149E  6F99               	movwf	(??_main+1)& (0+255),b
  1340  0014A0  C0DA  F09A         	movff	main@i,??_main+2
  1341  0014A4  C0DB  F09B         	movff	main@i+1,??_main+3
  1342  0014A8  5198               	movf	??_main& (0+255),w,b
  1343  0014AA  279A               	addwf	(??_main+2)& (0+255),f,b
  1344  0014AC  5199               	movf	(??_main+1)& (0+255),w,b
  1345  0014AE  239B               	addwfc	(??_main+3)& (0+255),f,b
  1346  0014B0  0EBA               	movlw	low main@equacao
  1347  0014B2  259A               	addwf	(??_main+2)& (0+255),w,b
  1348  0014B4  6ED9               	movwf	fsr2l,c
  1349  0014B6  0E00               	movlw	high main@equacao
  1350  0014B8  219B               	addwfc	(??_main+3)& (0+255),w,b
  1351  0014BA  6EDA               	movwf	fsr2h,c
  1352  0014BC  50DF               	movf	indf2,w,c
  1353  0014BE  6FB9               	movwf	main@op& (0+255),b
  1354  0014C0                     
  1355                           ; BSR set to: 0
  1356                           ;main.c: 288:             i = 0;
  1357  0014C0  0E00               	movlw	0
  1358  0014C2  6FDB               	movwf	(main@i+1)& (0+255),b
  1359  0014C4  0E00               	movlw	0
  1360  0014C6  6FDA               	movwf	main@i& (0+255),b
  1361                           
  1362                           ;main.c: 289:         } else if (equacao[i - 1] == '=') {
  1363  0014C8  EF6E  F009         	goto	l4946
  1364  0014CC                     l4974:
  1365                           
  1366                           ; BSR set to: 0
  1367  0014CC  0EFF               	movlw	255
  1368  0014CE  6F98               	movwf	??_main& (0+255),b
  1369  0014D0  0EFF               	movlw	255
  1370  0014D2  6F99               	movwf	(??_main+1)& (0+255),b
  1371  0014D4  C0DA  F09A         	movff	main@i,??_main+2
  1372  0014D8  C0DB  F09B         	movff	main@i+1,??_main+3
  1373  0014DC  5198               	movf	??_main& (0+255),w,b
  1374  0014DE  279A               	addwf	(??_main+2)& (0+255),f,b
  1375  0014E0  5199               	movf	(??_main+1)& (0+255),w,b
  1376  0014E2  239B               	addwfc	(??_main+3)& (0+255),f,b
  1377  0014E4  0EBA               	movlw	low main@equacao
  1378  0014E6  259A               	addwf	(??_main+2)& (0+255),w,b
  1379  0014E8  6ED9               	movwf	fsr2l,c
  1380  0014EA  0E00               	movlw	high main@equacao
  1381  0014EC  219B               	addwfc	(??_main+3)& (0+255),w,b
  1382  0014EE  6EDA               	movwf	fsr2h,c
  1383  0014F0  0E3D               	movlw	61
  1384  0014F2  18DE               	xorwf	postinc2,w,c
  1385  0014F4  A4D8               	btfss	status,2,c
  1386  0014F6  EF7F  F00A         	goto	u6641
  1387  0014FA  EF81  F00A         	goto	u6640
  1388  0014FE                     u6641:
  1389  0014FE  EFB8  F00D         	goto	l5094
  1390  001502                     u6640:
  1391  001502                     
  1392                           ; BSR set to: 0
  1393                           ;main.c: 291:             for (int a = 0; a < i - 1; a++) {
  1394  001502  0E00               	movlw	0
  1395  001504  6FC7               	movwf	(main@a_261+1)& (0+255),b
  1396  001506  0E00               	movlw	0
  1397  001508  6FC6               	movwf	main@a_261& (0+255),b
  1398  00150A  EF97  F00A         	goto	l4982
  1399  00150E                     l4978:
  1400                           
  1401                           ; BSR set to: 0
  1402                           ;main.c: 292:                 vetaux2[a] = equacao[a];
  1403  00150E  0EBA               	movlw	low main@equacao
  1404  001510  25C6               	addwf	main@a_261& (0+255),w,b
  1405  001512  6ED9               	movwf	fsr2l,c
  1406  001514  0E00               	movlw	high main@equacao
  1407  001516  21C7               	addwfc	(main@a_261+1)& (0+255),w,b
  1408  001518  6EDA               	movwf	fsr2h,c
  1409  00151A  0EA7               	movlw	low main@vetaux2
  1410  00151C  25C6               	addwf	main@a_261& (0+255),w,b
  1411  00151E  6EE1               	movwf	fsr1l,c
  1412  001520  0E00               	movlw	high main@vetaux2
  1413  001522  21C7               	addwfc	(main@a_261+1)& (0+255),w,b
  1414  001524  6EE2               	movwf	fsr1h,c
  1415  001526  CFDF FFE7          	movff	indf2,indf1
  1416  00152A                     
  1417                           ; BSR set to: 0
  1418                           ;main.c: 293:             }
  1419  00152A  4BC6               	infsnz	main@a_261& (0+255),f,b
  1420  00152C  2BC7               	incf	(main@a_261+1)& (0+255),f,b
  1421  00152E                     l4982:
  1422                           
  1423                           ; BSR set to: 0
  1424  00152E  0EFF               	movlw	255
  1425  001530  6F98               	movwf	??_main& (0+255),b
  1426  001532  0EFF               	movlw	255
  1427  001534  6F99               	movwf	(??_main+1)& (0+255),b
  1428  001536  C0DA  F09A         	movff	main@i,??_main+2
  1429  00153A  C0DB  F09B         	movff	main@i+1,??_main+3
  1430  00153E  5198               	movf	??_main& (0+255),w,b
  1431  001540  279A               	addwf	(??_main+2)& (0+255),f,b
  1432  001542  5199               	movf	(??_main+1)& (0+255),w,b
  1433  001544  239B               	addwfc	(??_main+3)& (0+255),f,b
  1434  001546  519A               	movf	(??_main+2)& (0+255),w,b
  1435  001548  5DC6               	subwf	main@a_261& (0+255),w,b
  1436  00154A  51C7               	movf	(main@a_261+1)& (0+255),w,b
  1437  00154C  0A80               	xorlw	128
  1438  00154E  6F9C               	movwf	(??_main+4)& (0+255),b
  1439  001550  519B               	movf	(??_main+3)& (0+255),w,b
  1440  001552  0A80               	xorlw	128
  1441  001554  599C               	subwfb	(??_main+4)& (0+255),w,b
  1442  001556  A0D8               	btfss	status,0,c
  1443  001558  EFB0  F00A         	goto	u6651
  1444  00155C  EFB2  F00A         	goto	u6650
  1445  001560                     u6651:
  1446  001560  EF87  F00A         	goto	l4978
  1447  001564                     u6650:
  1448  001564                     
  1449                           ; BSR set to: 0
  1450                           ;main.c: 294:             num2 = strtol(vetaux2, ((void*)0), 10);
  1451  001564  0E00               	movlw	0
  1452  001566  6E38               	movwf	(strtol@base+1)^0,c
  1453  001568  0E0A               	movlw	10
  1454  00156A  6E37               	movwf	strtol@base^0,c
  1455  00156C  0E00               	movlw	0
  1456  00156E  6E35               	movwf	strtol@endptr^0,c
  1457  001570  0E00               	movlw	0
  1458  001572  6E36               	movwf	(strtol@endptr+1)^0,c
  1459  001574  0EA7               	movlw	low main@vetaux2
  1460  001576  6E33               	movwf	strtol@s^0,c
  1461  001578  0E00               	movlw	high main@vetaux2
  1462  00157A  6E34               	movwf	(strtol@s+1)^0,c
  1463  00157C  EC61  F024         	call	_strtol	;wreg free
  1464  001580  C033  F039         	movff	?_strtol,___xxtofl@val
  1465  001584  C034  F03A         	movff	?_strtol+1,___xxtofl@val+1
  1466  001588  C035  F03B         	movff	?_strtol+2,___xxtofl@val+2
  1467  00158C  C036  F03C         	movff	?_strtol+3,___xxtofl@val+3
  1468  001590  0E01               	movlw	1
  1469  001592  ECA4  F01B         	call	___xxtofl
  1470  001596  C039  F0D6         	movff	?___xxtofl,main@num2
  1471  00159A  C03A  F0D7         	movff	?___xxtofl+1,main@num2+1
  1472  00159E  C03B  F0D8         	movff	?___xxtofl+2,main@num2+2
  1473  0015A2  C03C  F0D9         	movff	?___xxtofl+3,main@num2+3
  1474                           
  1475                           ;main.c: 295:             switch (op) {
  1476  0015A6  EF9A  F00D         	goto	l5092
  1477  0015AA                     l4986:
  1478                           
  1479                           ; BSR set to: 0
  1480                           ;main.c: 297:                     resp = resp + num1 + num2;
  1481  0015AA  C0D2  F005         	movff	main@num1,___fladd@a
  1482  0015AE  C0D3  F006         	movff	main@num1+1,___fladd@a+1
  1483  0015B2  C0D4  F007         	movff	main@num1+2,___fladd@a+2
  1484  0015B6  C0D5  F008         	movff	main@num1+3,___fladd@a+3
  1485  0015BA  C0DC  F001         	movff	main@resp,___fladd@b
  1486  0015BE  C0DD  F002         	movff	main@resp+1,___fladd@b+1
  1487  0015C2  C0DE  F003         	movff	main@resp+2,___fladd@b+2
  1488  0015C6  C0DF  F004         	movff	main@resp+3,___fladd@b+3
  1489  0015CA  EC9F  F010         	call	___fladd	;wreg free
  1490  0015CE  C001  F0B1         	movff	?___fladd,_main$1300
  1491  0015D2  C002  F0B2         	movff	?___fladd+1,_main$1300+1
  1492  0015D6  C003  F0B3         	movff	?___fladd+2,_main$1300+2
  1493  0015DA  C004  F0B4         	movff	?___fladd+3,_main$1300+3
  1494                           
  1495                           ;main.c: 297:                     resp = resp + num1 + num2;
  1496  0015DE  C0B1  F001         	movff	_main$1300,___fladd@b
  1497  0015E2  C0B2  F002         	movff	_main$1300+1,___fladd@b+1
  1498  0015E6  C0B3  F003         	movff	_main$1300+2,___fladd@b+2
  1499  0015EA  C0B4  F004         	movff	_main$1300+3,___fladd@b+3
  1500  0015EE  C0D6  F005         	movff	main@num2,___fladd@a
  1501  0015F2  C0D7  F006         	movff	main@num2+1,___fladd@a+1
  1502  0015F6  C0D8  F007         	movff	main@num2+2,___fladd@a+2
  1503  0015FA  C0D9  F008         	movff	main@num2+3,___fladd@a+3
  1504  0015FE  EC9F  F010         	call	___fladd	;wreg free
  1505  001602  C001  F0DC         	movff	?___fladd,main@resp
  1506  001606  C002  F0DD         	movff	?___fladd+1,main@resp+1
  1507  00160A  C003  F0DE         	movff	?___fladd+2,main@resp+2
  1508  00160E  C004  F0DF         	movff	?___fladd+3,main@resp+3
  1509  001612                     
  1510                           ;main.c: 299:                     for (int a = 0; a < 10; a++) {
  1511  001612  0E00               	movlw	0
  1512  001614  0100               	movlb	0	; () banked
  1513  001616  6FC9               	movwf	(main@a_262+1)& (0+255),b
  1514  001618  0E00               	movlw	0
  1515  00161A  6FC8               	movwf	main@a_262& (0+255),b
  1516  00161C                     l4990:
  1517                           
  1518                           ; BSR set to: 0
  1519  00161C  BFC9               	btfsc	(main@a_262+1)& (0+255),7,b
  1520  00161E  EF1A  F00B         	goto	u6661
  1521  001622  51C9               	movf	(main@a_262+1)& (0+255),w,b
  1522  001624  E109               	bnz	u6660
  1523  001626  0E0A               	movlw	10
  1524  001628  5DC8               	subwf	main@a_262& (0+255),w,b
  1525  00162A  A0D8               	btfss	status,0,c
  1526  00162C  EF1A  F00B         	goto	u6661
  1527  001630  EF1C  F00B         	goto	u6660
  1528  001634                     u6661:
  1529  001634  EF1E  F00B         	goto	l4994
  1530  001638                     u6660:
  1531  001638  EF3A  F00B         	goto	l5000
  1532  00163C                     l4994:
  1533                           
  1534                           ; BSR set to: 0
  1535                           ;main.c: 300:                         equacao[a] = "";
  1536  00163C  0EBA               	movlw	low main@equacao
  1537  00163E  25C8               	addwf	main@a_262& (0+255),w,b
  1538  001640  6ED9               	movwf	fsr2l,c
  1539  001642  0E00               	movlw	high main@equacao
  1540  001644  21C9               	addwfc	(main@a_262+1)& (0+255),w,b
  1541  001646  6EDA               	movwf	fsr2h,c
  1542  001648  0E09               	movlw	low (STR_21+3)
  1543  00164A  6EDF               	movwf	indf2,c
  1544                           
  1545                           ;main.c: 301:                         vetaux1[a] = "";
  1546  00164C  0E9D               	movlw	low main@vetaux1
  1547  00164E  25C8               	addwf	main@a_262& (0+255),w,b
  1548  001650  6ED9               	movwf	fsr2l,c
  1549  001652  0E00               	movlw	high main@vetaux1
  1550  001654  21C9               	addwfc	(main@a_262+1)& (0+255),w,b
  1551  001656  6EDA               	movwf	fsr2h,c
  1552  001658  0E09               	movlw	low (STR_21+3)
  1553  00165A  6EDF               	movwf	indf2,c
  1554                           
  1555                           ;main.c: 302:                         vetaux2[a] = "";
  1556  00165C  0EA7               	movlw	low main@vetaux2
  1557  00165E  25C8               	addwf	main@a_262& (0+255),w,b
  1558  001660  6ED9               	movwf	fsr2l,c
  1559  001662  0E00               	movlw	high main@vetaux2
  1560  001664  21C9               	addwfc	(main@a_262+1)& (0+255),w,b
  1561  001666  6EDA               	movwf	fsr2h,c
  1562  001668  0E09               	movlw	low (STR_21+3)
  1563  00166A  6EDF               	movwf	indf2,c
  1564  00166C                     
  1565                           ; BSR set to: 0
  1566                           ;main.c: 303:                     }
  1567  00166C  4BC8               	infsnz	main@a_262& (0+255),f,b
  1568  00166E  2BC9               	incf	(main@a_262+1)& (0+255),f,b
  1569  001670  EF0E  F00B         	goto	l4990
  1570  001674                     l5000:
  1571                           
  1572                           ; BSR set to: 0
  1573                           ;main.c: 304:                     i = 0;
  1574  001674  0E00               	movlw	0
  1575  001676  6FDB               	movwf	(main@i+1)& (0+255),b
  1576  001678  0E00               	movlw	0
  1577  00167A  6FDA               	movwf	main@i& (0+255),b
  1578  00167C                     
  1579                           ; BSR set to: 0
  1580                           ;main.c: 305:                     _delay((unsigned long)((250)*(4000000/4000.0)));
  1581  00167C  0E02               	movlw	2
  1582  00167E  0100               	movlb	0	; () banked
  1583  001680  6F99               	movwf	(??_main+1)& (0+255),b
  1584  001682  0E45               	movlw	69
  1585  001684  6F98               	movwf	??_main& (0+255),b
  1586  001686  0EA9               	movlw	169
  1587  001688                     u6777:
  1588  001688  2EE8               	decfsz	wreg,f,c
  1589  00168A  D7FE               	bra	u6777
  1590  00168C  2F98               	decfsz	??_main& (0+255),f,b
  1591  00168E  D7FC               	bra	u6777
  1592  001690  2F99               	decfsz	(??_main+1)& (0+255),f,b
  1593  001692  D7FA               	bra	u6777
  1594  001694  D000               	nop2	
  1595  001696                     
  1596                           ;main.c: 306:                     sendCMD(0x01);
  1597  001696  0E01               	movlw	1
  1598  001698  ECED  F021         	call	_sendCMD
  1599  00169C                     
  1600                           ;main.c: 307:                     printf("%.2f", resp);
  1601  00169C  0E01               	movlw	low STR_5
  1602  00169E  0100               	movlb	0	; () banked
  1603  0016A0  6F92               	movwf	printf@fmt& (0+255),b
  1604  0016A2  0E06               	movlw	high STR_5
  1605  0016A4  6F93               	movwf	(printf@fmt+1)& (0+255),b
  1606  0016A6  C0DC  F094         	movff	main@resp,?_printf+2
  1607  0016AA  C0DD  F095         	movff	main@resp+1,?_printf+3
  1608  0016AE  C0DE  F096         	movff	main@resp+2,?_printf+4
  1609  0016B2  C0DF  F097         	movff	main@resp+3,?_printf+5
  1610  0016B6  EC8F  F024         	call	_printf	;wreg free
  1611                           
  1612                           ;main.c: 308:                     break;
  1613  0016BA  EF6E  F009         	goto	l4946
  1614  0016BE                     l5008:
  1615                           
  1616                           ; BSR set to: 0
  1617                           ;main.c: 310:                     if (resp == 0.0) {
  1618  0016BE  C0DC  F001         	movff	main@resp,___fleq@ff1
  1619  0016C2  C0DD  F002         	movff	main@resp+1,___fleq@ff1+1
  1620  0016C6  C0DE  F003         	movff	main@resp+2,___fleq@ff1+2
  1621  0016CA  C0DF  F004         	movff	main@resp+3,___fleq@ff1+3
  1622  0016CE  0E00               	movlw	0
  1623  0016D0  6E05               	movwf	___fleq@ff2^0,c
  1624  0016D2  0E00               	movlw	0
  1625  0016D4  6E06               	movwf	(___fleq@ff2+1)^0,c
  1626  0016D6  0E00               	movlw	0
  1627  0016D8  6E07               	movwf	(___fleq@ff2+2)^0,c
  1628  0016DA  0E00               	movlw	0
  1629  0016DC  6E08               	movwf	(___fleq@ff2+3)^0,c
  1630  0016DE  EC17  F021         	call	___fleq	;wreg free
  1631  0016E2  A0D8               	btfss	status,0,c
  1632  0016E4  EF76  F00B         	goto	u6671
  1633  0016E8  EF78  F00B         	goto	u6670
  1634  0016EC                     u6671:
  1635  0016EC  EF94  F00B         	goto	l5012
  1636  0016F0                     u6670:
  1637  0016F0                     
  1638                           ;main.c: 311:                         resp = num1 - num2;
  1639  0016F0  C0D2  F01A         	movff	main@num1,___flsub@b
  1640  0016F4  C0D3  F01B         	movff	main@num1+1,___flsub@b+1
  1641  0016F8  C0D4  F01C         	movff	main@num1+2,___flsub@b+2
  1642  0016FC  C0D5  F01D         	movff	main@num1+3,___flsub@b+3
  1643  001700  C0D6  F01E         	movff	main@num2,___flsub@a
  1644  001704  C0D7  F01F         	movff	main@num2+1,___flsub@a+1
  1645  001708  C0D8  F020         	movff	main@num2+2,___flsub@a+2
  1646  00170C  C0D9  F021         	movff	main@num2+3,___flsub@a+3
  1647  001710  EC73  F023         	call	___flsub	;wreg free
  1648  001714  C01A  F0DC         	movff	?___flsub,main@resp
  1649  001718  C01B  F0DD         	movff	?___flsub+1,main@resp+1
  1650  00171C  C01C  F0DE         	movff	?___flsub+2,main@resp+2
  1651  001720  C01D  F0DF         	movff	?___flsub+3,main@resp+3
  1652                           
  1653                           ;main.c: 312:                     } else {
  1654  001724  EFC8  F00B         	goto	l5014
  1655  001728                     l5012:
  1656                           
  1657                           ;main.c: 313:                         resp = resp - num1 - num2;
  1658  001728  C0D2  F01E         	movff	main@num1,___flsub@a
  1659  00172C  C0D3  F01F         	movff	main@num1+1,___flsub@a+1
  1660  001730  C0D4  F020         	movff	main@num1+2,___flsub@a+2
  1661  001734  C0D5  F021         	movff	main@num1+3,___flsub@a+3
  1662  001738  C0DC  F01A         	movff	main@resp,___flsub@b
  1663  00173C  C0DD  F01B         	movff	main@resp+1,___flsub@b+1
  1664  001740  C0DE  F01C         	movff	main@resp+2,___flsub@b+2
  1665  001744  C0DF  F01D         	movff	main@resp+3,___flsub@b+3
  1666  001748  EC73  F023         	call	___flsub	;wreg free
  1667  00174C  C01A  F0B5         	movff	?___flsub,_main$1301
  1668  001750  C01B  F0B6         	movff	?___flsub+1,_main$1301+1
  1669  001754  C01C  F0B7         	movff	?___flsub+2,_main$1301+2
  1670  001758  C01D  F0B8         	movff	?___flsub+3,_main$1301+3
  1671                           
  1672                           ;main.c: 313:                         resp = resp - num1 - num2;
  1673  00175C  C0B5  F01A         	movff	_main$1301,___flsub@b
  1674  001760  C0B6  F01B         	movff	_main$1301+1,___flsub@b+1
  1675  001764  C0B7  F01C         	movff	_main$1301+2,___flsub@b+2
  1676  001768  C0B8  F01D         	movff	_main$1301+3,___flsub@b+3
  1677  00176C  C0D6  F01E         	movff	main@num2,___flsub@a
  1678  001770  C0D7  F01F         	movff	main@num2+1,___flsub@a+1
  1679  001774  C0D8  F020         	movff	main@num2+2,___flsub@a+2
  1680  001778  C0D9  F021         	movff	main@num2+3,___flsub@a+3
  1681  00177C  EC73  F023         	call	___flsub	;wreg free
  1682  001780  C01A  F0DC         	movff	?___flsub,main@resp
  1683  001784  C01B  F0DD         	movff	?___flsub+1,main@resp+1
  1684  001788  C01C  F0DE         	movff	?___flsub+2,main@resp+2
  1685  00178C  C01D  F0DF         	movff	?___flsub+3,main@resp+3
  1686  001790                     l5014:
  1687                           
  1688                           ;main.c: 316:                     for (int a = 0; a < 10; a++) {
  1689  001790  0E00               	movlw	0
  1690  001792  0100               	movlb	0	; () banked
  1691  001794  6FCB               	movwf	(main@a_267+1)& (0+255),b
  1692  001796  0E00               	movlw	0
  1693  001798  6FCA               	movwf	main@a_267& (0+255),b
  1694  00179A                     l5016:
  1695                           
  1696                           ; BSR set to: 0
  1697  00179A  BFCB               	btfsc	(main@a_267+1)& (0+255),7,b
  1698  00179C  EFD9  F00B         	goto	u6681
  1699  0017A0  51CB               	movf	(main@a_267+1)& (0+255),w,b
  1700  0017A2  E109               	bnz	u6680
  1701  0017A4  0E0A               	movlw	10
  1702  0017A6  5DCA               	subwf	main@a_267& (0+255),w,b
  1703  0017A8  A0D8               	btfss	status,0,c
  1704  0017AA  EFD9  F00B         	goto	u6681
  1705  0017AE  EFDB  F00B         	goto	u6680
  1706  0017B2                     u6681:
  1707  0017B2  EFDD  F00B         	goto	l5020
  1708  0017B6                     u6680:
  1709  0017B6  EFF9  F00B         	goto	l5026
  1710  0017BA                     l5020:
  1711                           
  1712                           ; BSR set to: 0
  1713                           ;main.c: 317:                         equacao[a] = "";
  1714  0017BA  0EBA               	movlw	low main@equacao
  1715  0017BC  25CA               	addwf	main@a_267& (0+255),w,b
  1716  0017BE  6ED9               	movwf	fsr2l,c
  1717  0017C0  0E00               	movlw	high main@equacao
  1718  0017C2  21CB               	addwfc	(main@a_267+1)& (0+255),w,b
  1719  0017C4  6EDA               	movwf	fsr2h,c
  1720  0017C6  0E09               	movlw	low (STR_21+3)
  1721  0017C8  6EDF               	movwf	indf2,c
  1722                           
  1723                           ;main.c: 318:                         vetaux1[a] = "";
  1724  0017CA  0E9D               	movlw	low main@vetaux1
  1725  0017CC  25CA               	addwf	main@a_267& (0+255),w,b
  1726  0017CE  6ED9               	movwf	fsr2l,c
  1727  0017D0  0E00               	movlw	high main@vetaux1
  1728  0017D2  21CB               	addwfc	(main@a_267+1)& (0+255),w,b
  1729  0017D4  6EDA               	movwf	fsr2h,c
  1730  0017D6  0E09               	movlw	low (STR_21+3)
  1731  0017D8  6EDF               	movwf	indf2,c
  1732                           
  1733                           ;main.c: 319:                         vetaux2[a] = "";
  1734  0017DA  0EA7               	movlw	low main@vetaux2
  1735  0017DC  25CA               	addwf	main@a_267& (0+255),w,b
  1736  0017DE  6ED9               	movwf	fsr2l,c
  1737  0017E0  0E00               	movlw	high main@vetaux2
  1738  0017E2  21CB               	addwfc	(main@a_267+1)& (0+255),w,b
  1739  0017E4  6EDA               	movwf	fsr2h,c
  1740  0017E6  0E09               	movlw	low (STR_21+3)
  1741  0017E8  6EDF               	movwf	indf2,c
  1742  0017EA                     
  1743                           ; BSR set to: 0
  1744                           ;main.c: 320:                     }
  1745  0017EA  4BCA               	infsnz	main@a_267& (0+255),f,b
  1746  0017EC  2BCB               	incf	(main@a_267+1)& (0+255),f,b
  1747  0017EE  EFCD  F00B         	goto	l5016
  1748  0017F2                     l5026:
  1749                           
  1750                           ; BSR set to: 0
  1751                           ;main.c: 321:                     i = 0;
  1752  0017F2  0E00               	movlw	0
  1753  0017F4  6FDB               	movwf	(main@i+1)& (0+255),b
  1754  0017F6  0E00               	movlw	0
  1755  0017F8  6FDA               	movwf	main@i& (0+255),b
  1756  0017FA                     
  1757                           ; BSR set to: 0
  1758                           ;main.c: 322:                     _delay((unsigned long)((250)*(4000000/4000.0)));
  1759  0017FA  0E02               	movlw	2
  1760  0017FC  0100               	movlb	0	; () banked
  1761  0017FE  6F99               	movwf	(??_main+1)& (0+255),b
  1762  001800  0E45               	movlw	69
  1763  001802  6F98               	movwf	??_main& (0+255),b
  1764  001804  0EA9               	movlw	169
  1765  001806                     u6787:
  1766  001806  2EE8               	decfsz	wreg,f,c
  1767  001808  D7FE               	bra	u6787
  1768  00180A  2F98               	decfsz	??_main& (0+255),f,b
  1769  00180C  D7FC               	bra	u6787
  1770  00180E  2F99               	decfsz	(??_main+1)& (0+255),f,b
  1771  001810  D7FA               	bra	u6787
  1772  001812  D000               	nop2	
  1773  001814                     
  1774                           ;main.c: 323:                     sendCMD(0x01);
  1775  001814  0E01               	movlw	1
  1776  001816  ECED  F021         	call	_sendCMD
  1777  00181A                     
  1778                           ;main.c: 324:                     printf("%.2f", resp);
  1779  00181A  0E01               	movlw	low STR_5
  1780  00181C  0100               	movlb	0	; () banked
  1781  00181E  6F92               	movwf	printf@fmt& (0+255),b
  1782  001820  0E06               	movlw	high STR_5
  1783  001822  6F93               	movwf	(printf@fmt+1)& (0+255),b
  1784  001824  C0DC  F094         	movff	main@resp,?_printf+2
  1785  001828  C0DD  F095         	movff	main@resp+1,?_printf+3
  1786  00182C  C0DE  F096         	movff	main@resp+2,?_printf+4
  1787  001830  C0DF  F097         	movff	main@resp+3,?_printf+5
  1788  001834  EC8F  F024         	call	_printf	;wreg free
  1789                           
  1790                           ;main.c: 325:                     break;
  1791  001838  EF6E  F009         	goto	l4946
  1792  00183C                     l5034:
  1793                           
  1794                           ; BSR set to: 0
  1795                           ;main.c: 327:                     if (resp == 0.0) {
  1796  00183C  C0DC  F001         	movff	main@resp,___fleq@ff1
  1797  001840  C0DD  F002         	movff	main@resp+1,___fleq@ff1+1
  1798  001844  C0DE  F003         	movff	main@resp+2,___fleq@ff1+2
  1799  001848  C0DF  F004         	movff	main@resp+3,___fleq@ff1+3
  1800  00184C  0E00               	movlw	0
  1801  00184E  6E05               	movwf	___fleq@ff2^0,c
  1802  001850  0E00               	movlw	0
  1803  001852  6E06               	movwf	(___fleq@ff2+1)^0,c
  1804  001854  0E00               	movlw	0
  1805  001856  6E07               	movwf	(___fleq@ff2+2)^0,c
  1806  001858  0E00               	movlw	0
  1807  00185A  6E08               	movwf	(___fleq@ff2+3)^0,c
  1808  00185C  EC17  F021         	call	___fleq	;wreg free
  1809  001860  A0D8               	btfss	status,0,c
  1810  001862  EF35  F00C         	goto	u6691
  1811  001866  EF37  F00C         	goto	u6690
  1812  00186A                     u6691:
  1813  00186A  EF53  F00C         	goto	l5038
  1814  00186E                     u6690:
  1815  00186E                     
  1816                           ;main.c: 328:                         resp = num1 * num2;
  1817  00186E  C0D2  F001         	movff	main@num1,___flmul@b
  1818  001872  C0D3  F002         	movff	main@num1+1,___flmul@b+1
  1819  001876  C0D4  F003         	movff	main@num1+2,___flmul@b+2
  1820  00187A  C0D5  F004         	movff	main@num1+3,___flmul@b+3
  1821  00187E  C0D6  F005         	movff	main@num2,___flmul@a
  1822  001882  C0D7  F006         	movff	main@num2+1,___flmul@a+1
  1823  001886  C0D8  F007         	movff	main@num2+2,___flmul@a+2
  1824  00188A  C0D9  F008         	movff	main@num2+3,___flmul@a+3
  1825  00188E  EC27  F015         	call	___flmul	;wreg free
  1826  001892  C001  F0DC         	movff	?___flmul,main@resp
  1827  001896  C002  F0DD         	movff	?___flmul+1,main@resp+1
  1828  00189A  C003  F0DE         	movff	?___flmul+2,main@resp+2
  1829  00189E  C004  F0DF         	movff	?___flmul+3,main@resp+3
  1830                           
  1831                           ;main.c: 329:                     } else if (num1 == 0.0) {
  1832  0018A2  EF86  F00C         	goto	l5042
  1833  0018A6                     l5038:
  1834  0018A6  C0D2  F001         	movff	main@num1,___fleq@ff1
  1835  0018AA  C0D3  F002         	movff	main@num1+1,___fleq@ff1+1
  1836  0018AE  C0D4  F003         	movff	main@num1+2,___fleq@ff1+2
  1837  0018B2  C0D5  F004         	movff	main@num1+3,___fleq@ff1+3
  1838  0018B6  0E00               	movlw	0
  1839  0018B8  6E05               	movwf	___fleq@ff2^0,c
  1840  0018BA  0E00               	movlw	0
  1841  0018BC  6E06               	movwf	(___fleq@ff2+1)^0,c
  1842  0018BE  0E00               	movlw	0
  1843  0018C0  6E07               	movwf	(___fleq@ff2+2)^0,c
  1844  0018C2  0E00               	movlw	0
  1845  0018C4  6E08               	movwf	(___fleq@ff2+3)^0,c
  1846  0018C6  EC17  F021         	call	___fleq	;wreg free
  1847  0018CA  A0D8               	btfss	status,0,c
  1848  0018CC  EF6A  F00C         	goto	u6701
  1849  0018D0  EF6C  F00C         	goto	u6700
  1850  0018D4                     u6701:
  1851  0018D4  EF86  F00C         	goto	l5042
  1852  0018D8                     u6700:
  1853  0018D8                     
  1854                           ;main.c: 330:                         resp = resp * num2;
  1855  0018D8  C0DC  F001         	movff	main@resp,___flmul@b
  1856  0018DC  C0DD  F002         	movff	main@resp+1,___flmul@b+1
  1857  0018E0  C0DE  F003         	movff	main@resp+2,___flmul@b+2
  1858  0018E4  C0DF  F004         	movff	main@resp+3,___flmul@b+3
  1859  0018E8  C0D6  F005         	movff	main@num2,___flmul@a
  1860  0018EC  C0D7  F006         	movff	main@num2+1,___flmul@a+1
  1861  0018F0  C0D8  F007         	movff	main@num2+2,___flmul@a+2
  1862  0018F4  C0D9  F008         	movff	main@num2+3,___flmul@a+3
  1863  0018F8  EC27  F015         	call	___flmul	;wreg free
  1864  0018FC  C001  F0DC         	movff	?___flmul,main@resp
  1865  001900  C002  F0DD         	movff	?___flmul+1,main@resp+1
  1866  001904  C003  F0DE         	movff	?___flmul+2,main@resp+2
  1867  001908  C004  F0DF         	movff	?___flmul+3,main@resp+3
  1868  00190C                     l5042:
  1869                           
  1870                           ;main.c: 333:                     for (int a = 0; a < 10; a++) {
  1871  00190C  0E00               	movlw	0
  1872  00190E  0100               	movlb	0	; () banked
  1873  001910  6FCD               	movwf	(main@a_272+1)& (0+255),b
  1874  001912  0E00               	movlw	0
  1875  001914  6FCC               	movwf	main@a_272& (0+255),b
  1876  001916                     l5044:
  1877                           
  1878                           ; BSR set to: 0
  1879  001916  BFCD               	btfsc	(main@a_272+1)& (0+255),7,b
  1880  001918  EF97  F00C         	goto	u6711
  1881  00191C  51CD               	movf	(main@a_272+1)& (0+255),w,b
  1882  00191E  E109               	bnz	u6710
  1883  001920  0E0A               	movlw	10
  1884  001922  5DCC               	subwf	main@a_272& (0+255),w,b
  1885  001924  A0D8               	btfss	status,0,c
  1886  001926  EF97  F00C         	goto	u6711
  1887  00192A  EF99  F00C         	goto	u6710
  1888  00192E                     u6711:
  1889  00192E  EF9B  F00C         	goto	l5048
  1890  001932                     u6710:
  1891  001932  EFB7  F00C         	goto	l5054
  1892  001936                     l5048:
  1893                           
  1894                           ; BSR set to: 0
  1895                           ;main.c: 334:                         equacao[a] = "";
  1896  001936  0EBA               	movlw	low main@equacao
  1897  001938  25CC               	addwf	main@a_272& (0+255),w,b
  1898  00193A  6ED9               	movwf	fsr2l,c
  1899  00193C  0E00               	movlw	high main@equacao
  1900  00193E  21CD               	addwfc	(main@a_272+1)& (0+255),w,b
  1901  001940  6EDA               	movwf	fsr2h,c
  1902  001942  0E09               	movlw	low (STR_21+3)
  1903  001944  6EDF               	movwf	indf2,c
  1904                           
  1905                           ;main.c: 335:                         vetaux1[a] = "";
  1906  001946  0E9D               	movlw	low main@vetaux1
  1907  001948  25CC               	addwf	main@a_272& (0+255),w,b
  1908  00194A  6ED9               	movwf	fsr2l,c
  1909  00194C  0E00               	movlw	high main@vetaux1
  1910  00194E  21CD               	addwfc	(main@a_272+1)& (0+255),w,b
  1911  001950  6EDA               	movwf	fsr2h,c
  1912  001952  0E09               	movlw	low (STR_21+3)
  1913  001954  6EDF               	movwf	indf2,c
  1914                           
  1915                           ;main.c: 336:                         vetaux2[a] = "";
  1916  001956  0EA7               	movlw	low main@vetaux2
  1917  001958  25CC               	addwf	main@a_272& (0+255),w,b
  1918  00195A  6ED9               	movwf	fsr2l,c
  1919  00195C  0E00               	movlw	high main@vetaux2
  1920  00195E  21CD               	addwfc	(main@a_272+1)& (0+255),w,b
  1921  001960  6EDA               	movwf	fsr2h,c
  1922  001962  0E09               	movlw	low (STR_21+3)
  1923  001964  6EDF               	movwf	indf2,c
  1924  001966                     
  1925                           ; BSR set to: 0
  1926                           ;main.c: 337:                     }
  1927  001966  4BCC               	infsnz	main@a_272& (0+255),f,b
  1928  001968  2BCD               	incf	(main@a_272+1)& (0+255),f,b
  1929  00196A  EF8B  F00C         	goto	l5044
  1930  00196E                     l5054:
  1931                           
  1932                           ; BSR set to: 0
  1933                           ;main.c: 338:                     i = 0;
  1934  00196E  0E00               	movlw	0
  1935  001970  6FDB               	movwf	(main@i+1)& (0+255),b
  1936  001972  0E00               	movlw	0
  1937  001974  6FDA               	movwf	main@i& (0+255),b
  1938  001976                     
  1939                           ; BSR set to: 0
  1940                           ;main.c: 339:                     _delay((unsigned long)((250)*(4000000/4000.0)));
  1941  001976  0E02               	movlw	2
  1942  001978  0100               	movlb	0	; () banked
  1943  00197A  6F99               	movwf	(??_main+1)& (0+255),b
  1944  00197C  0E45               	movlw	69
  1945  00197E  6F98               	movwf	??_main& (0+255),b
  1946  001980  0EA9               	movlw	169
  1947  001982                     u6797:
  1948  001982  2EE8               	decfsz	wreg,f,c
  1949  001984  D7FE               	bra	u6797
  1950  001986  2F98               	decfsz	??_main& (0+255),f,b
  1951  001988  D7FC               	bra	u6797
  1952  00198A  2F99               	decfsz	(??_main+1)& (0+255),f,b
  1953  00198C  D7FA               	bra	u6797
  1954  00198E  D000               	nop2	
  1955  001990                     
  1956                           ;main.c: 340:                     sendCMD(0x01);
  1957  001990  0E01               	movlw	1
  1958  001992  ECED  F021         	call	_sendCMD
  1959  001996                     
  1960                           ;main.c: 341:                     printf("%.2f", resp);
  1961  001996  0E01               	movlw	low STR_5
  1962  001998  0100               	movlb	0	; () banked
  1963  00199A  6F92               	movwf	printf@fmt& (0+255),b
  1964  00199C  0E06               	movlw	high STR_5
  1965  00199E  6F93               	movwf	(printf@fmt+1)& (0+255),b
  1966  0019A0  C0DC  F094         	movff	main@resp,?_printf+2
  1967  0019A4  C0DD  F095         	movff	main@resp+1,?_printf+3
  1968  0019A8  C0DE  F096         	movff	main@resp+2,?_printf+4
  1969  0019AC  C0DF  F097         	movff	main@resp+3,?_printf+5
  1970  0019B0  EC8F  F024         	call	_printf	;wreg free
  1971                           
  1972                           ;main.c: 342:                     break;
  1973  0019B4  EF6E  F009         	goto	l4946
  1974  0019B8                     l5062:
  1975                           
  1976                           ; BSR set to: 0
  1977                           ;main.c: 344:                     if (resp == 0.0) {
  1978  0019B8  C0DC  F001         	movff	main@resp,___fleq@ff1
  1979  0019BC  C0DD  F002         	movff	main@resp+1,___fleq@ff1+1
  1980  0019C0  C0DE  F003         	movff	main@resp+2,___fleq@ff1+2
  1981  0019C4  C0DF  F004         	movff	main@resp+3,___fleq@ff1+3
  1982  0019C8  0E00               	movlw	0
  1983  0019CA  6E05               	movwf	___fleq@ff2^0,c
  1984  0019CC  0E00               	movlw	0
  1985  0019CE  6E06               	movwf	(___fleq@ff2+1)^0,c
  1986  0019D0  0E00               	movlw	0
  1987  0019D2  6E07               	movwf	(___fleq@ff2+2)^0,c
  1988  0019D4  0E00               	movlw	0
  1989  0019D6  6E08               	movwf	(___fleq@ff2+3)^0,c
  1990  0019D8  EC17  F021         	call	___fleq	;wreg free
  1991  0019DC  A0D8               	btfss	status,0,c
  1992  0019DE  EFF3  F00C         	goto	u6721
  1993  0019E2  EFF5  F00C         	goto	u6720
  1994  0019E6                     u6721:
  1995  0019E6  EF11  F00D         	goto	l5066
  1996  0019EA                     u6720:
  1997  0019EA                     
  1998                           ;main.c: 345:                         resp = num1 / num2;
  1999  0019EA  C0D2  F001         	movff	main@num1,___fldiv@b
  2000  0019EE  C0D3  F002         	movff	main@num1+1,___fldiv@b+1
  2001  0019F2  C0D4  F003         	movff	main@num1+2,___fldiv@b+2
  2002  0019F6  C0D5  F004         	movff	main@num1+3,___fldiv@b+3
  2003  0019FA  C0D6  F005         	movff	main@num2,___fldiv@a
  2004  0019FE  C0D7  F006         	movff	main@num2+1,___fldiv@a+1
  2005  001A02  C0D8  F007         	movff	main@num2+2,___fldiv@a+2
  2006  001A06  C0D9  F008         	movff	main@num2+3,___fldiv@a+3
  2007  001A0A  EC3C  F017         	call	___fldiv	;wreg free
  2008  001A0E  C001  F0DC         	movff	?___fldiv,main@resp
  2009  001A12  C002  F0DD         	movff	?___fldiv+1,main@resp+1
  2010  001A16  C003  F0DE         	movff	?___fldiv+2,main@resp+2
  2011  001A1A  C004  F0DF         	movff	?___fldiv+3,main@resp+3
  2012                           
  2013                           ;main.c: 346:                     } else if (num1 == 0.0) {
  2014  001A1E  EF44  F00D         	goto	l5070
  2015  001A22                     l5066:
  2016  001A22  C0D2  F001         	movff	main@num1,___fleq@ff1
  2017  001A26  C0D3  F002         	movff	main@num1+1,___fleq@ff1+1
  2018  001A2A  C0D4  F003         	movff	main@num1+2,___fleq@ff1+2
  2019  001A2E  C0D5  F004         	movff	main@num1+3,___fleq@ff1+3
  2020  001A32  0E00               	movlw	0
  2021  001A34  6E05               	movwf	___fleq@ff2^0,c
  2022  001A36  0E00               	movlw	0
  2023  001A38  6E06               	movwf	(___fleq@ff2+1)^0,c
  2024  001A3A  0E00               	movlw	0
  2025  001A3C  6E07               	movwf	(___fleq@ff2+2)^0,c
  2026  001A3E  0E00               	movlw	0
  2027  001A40  6E08               	movwf	(___fleq@ff2+3)^0,c
  2028  001A42  EC17  F021         	call	___fleq	;wreg free
  2029  001A46  A0D8               	btfss	status,0,c
  2030  001A48  EF28  F00D         	goto	u6731
  2031  001A4C  EF2A  F00D         	goto	u6730
  2032  001A50                     u6731:
  2033  001A50  EF44  F00D         	goto	l5070
  2034  001A54                     u6730:
  2035  001A54                     
  2036                           ;main.c: 347:                         resp = resp / num2;
  2037  001A54  C0DC  F001         	movff	main@resp,___fldiv@b
  2038  001A58  C0DD  F002         	movff	main@resp+1,___fldiv@b+1
  2039  001A5C  C0DE  F003         	movff	main@resp+2,___fldiv@b+2
  2040  001A60  C0DF  F004         	movff	main@resp+3,___fldiv@b+3
  2041  001A64  C0D6  F005         	movff	main@num2,___fldiv@a
  2042  001A68  C0D7  F006         	movff	main@num2+1,___fldiv@a+1
  2043  001A6C  C0D8  F007         	movff	main@num2+2,___fldiv@a+2
  2044  001A70  C0D9  F008         	movff	main@num2+3,___fldiv@a+3
  2045  001A74  EC3C  F017         	call	___fldiv	;wreg free
  2046  001A78  C001  F0DC         	movff	?___fldiv,main@resp
  2047  001A7C  C002  F0DD         	movff	?___fldiv+1,main@resp+1
  2048  001A80  C003  F0DE         	movff	?___fldiv+2,main@resp+2
  2049  001A84  C004  F0DF         	movff	?___fldiv+3,main@resp+3
  2050  001A88                     l5070:
  2051                           
  2052                           ;main.c: 350:                     for (int a = 0; a < 10; a++) {
  2053  001A88  0E00               	movlw	0
  2054  001A8A  0100               	movlb	0	; () banked
  2055  001A8C  6FCF               	movwf	(main@a_277+1)& (0+255),b
  2056  001A8E  0E00               	movlw	0
  2057  001A90  6FCE               	movwf	main@a_277& (0+255),b
  2058  001A92                     l5072:
  2059                           
  2060                           ; BSR set to: 0
  2061  001A92  BFCF               	btfsc	(main@a_277+1)& (0+255),7,b
  2062  001A94  EF55  F00D         	goto	u6741
  2063  001A98  51CF               	movf	(main@a_277+1)& (0+255),w,b
  2064  001A9A  E109               	bnz	u6740
  2065  001A9C  0E0A               	movlw	10
  2066  001A9E  5DCE               	subwf	main@a_277& (0+255),w,b
  2067  001AA0  A0D8               	btfss	status,0,c
  2068  001AA2  EF55  F00D         	goto	u6741
  2069  001AA6  EF57  F00D         	goto	u6740
  2070  001AAA                     u6741:
  2071  001AAA  EF59  F00D         	goto	l5076
  2072  001AAE                     u6740:
  2073  001AAE  EF75  F00D         	goto	l5082
  2074  001AB2                     l5076:
  2075                           
  2076                           ; BSR set to: 0
  2077                           ;main.c: 351:                         equacao[a] = "";
  2078  001AB2  0EBA               	movlw	low main@equacao
  2079  001AB4  25CE               	addwf	main@a_277& (0+255),w,b
  2080  001AB6  6ED9               	movwf	fsr2l,c
  2081  001AB8  0E00               	movlw	high main@equacao
  2082  001ABA  21CF               	addwfc	(main@a_277+1)& (0+255),w,b
  2083  001ABC  6EDA               	movwf	fsr2h,c
  2084  001ABE  0E09               	movlw	low (STR_21+3)
  2085  001AC0  6EDF               	movwf	indf2,c
  2086                           
  2087                           ;main.c: 352:                         vetaux1[a] = "";
  2088  001AC2  0E9D               	movlw	low main@vetaux1
  2089  001AC4  25CE               	addwf	main@a_277& (0+255),w,b
  2090  001AC6  6ED9               	movwf	fsr2l,c
  2091  001AC8  0E00               	movlw	high main@vetaux1
  2092  001ACA  21CF               	addwfc	(main@a_277+1)& (0+255),w,b
  2093  001ACC  6EDA               	movwf	fsr2h,c
  2094  001ACE  0E09               	movlw	low (STR_21+3)
  2095  001AD0  6EDF               	movwf	indf2,c
  2096                           
  2097                           ;main.c: 353:                         vetaux2[a] = "";
  2098  001AD2  0EA7               	movlw	low main@vetaux2
  2099  001AD4  25CE               	addwf	main@a_277& (0+255),w,b
  2100  001AD6  6ED9               	movwf	fsr2l,c
  2101  001AD8  0E00               	movlw	high main@vetaux2
  2102  001ADA  21CF               	addwfc	(main@a_277+1)& (0+255),w,b
  2103  001ADC  6EDA               	movwf	fsr2h,c
  2104  001ADE  0E09               	movlw	low (STR_21+3)
  2105  001AE0  6EDF               	movwf	indf2,c
  2106  001AE2                     
  2107                           ; BSR set to: 0
  2108                           ;main.c: 354:                     }
  2109  001AE2  4BCE               	infsnz	main@a_277& (0+255),f,b
  2110  001AE4  2BCF               	incf	(main@a_277+1)& (0+255),f,b
  2111  001AE6  EF49  F00D         	goto	l5072
  2112  001AEA                     l5082:
  2113                           
  2114                           ; BSR set to: 0
  2115                           ;main.c: 355:                     i = 0;
  2116  001AEA  0E00               	movlw	0
  2117  001AEC  6FDB               	movwf	(main@i+1)& (0+255),b
  2118  001AEE  0E00               	movlw	0
  2119  001AF0  6FDA               	movwf	main@i& (0+255),b
  2120  001AF2                     
  2121                           ; BSR set to: 0
  2122                           ;main.c: 356:                     _delay((unsigned long)((250)*(4000000/4000.0)));
  2123  001AF2  0E02               	movlw	2
  2124  001AF4  0100               	movlb	0	; () banked
  2125  001AF6  6F99               	movwf	(??_main+1)& (0+255),b
  2126  001AF8  0E45               	movlw	69
  2127  001AFA  6F98               	movwf	??_main& (0+255),b
  2128  001AFC  0EA9               	movlw	169
  2129  001AFE                     u6807:
  2130  001AFE  2EE8               	decfsz	wreg,f,c
  2131  001B00  D7FE               	bra	u6807
  2132  001B02  2F98               	decfsz	??_main& (0+255),f,b
  2133  001B04  D7FC               	bra	u6807
  2134  001B06  2F99               	decfsz	(??_main+1)& (0+255),f,b
  2135  001B08  D7FA               	bra	u6807
  2136  001B0A  D000               	nop2	
  2137  001B0C                     
  2138                           ;main.c: 357:                     sendCMD(0x01);
  2139  001B0C  0E01               	movlw	1
  2140  001B0E  ECED  F021         	call	_sendCMD
  2141  001B12                     
  2142                           ;main.c: 358:                     printf("%.2f", resp);
  2143  001B12  0E01               	movlw	low STR_5
  2144  001B14  0100               	movlb	0	; () banked
  2145  001B16  6F92               	movwf	printf@fmt& (0+255),b
  2146  001B18  0E06               	movlw	high STR_5
  2147  001B1A  6F93               	movwf	(printf@fmt+1)& (0+255),b
  2148  001B1C  C0DC  F094         	movff	main@resp,?_printf+2
  2149  001B20  C0DD  F095         	movff	main@resp+1,?_printf+3
  2150  001B24  C0DE  F096         	movff	main@resp+2,?_printf+4
  2151  001B28  C0DF  F097         	movff	main@resp+3,?_printf+5
  2152  001B2C  EC8F  F024         	call	_printf	;wreg free
  2153                           
  2154                           ;main.c: 359:                     break;
  2155  001B30  EF6E  F009         	goto	l4946
  2156  001B34                     l5092:
  2157  001B34  0100               	movlb	0	; () banked
  2158  001B36  51B9               	movf	main@op& (0+255),w,b
  2159  001B38  6F98               	movwf	??_main& (0+255),b
  2160  001B3A  6B99               	clrf	(??_main+1)& (0+255),b
  2161                           
  2162                           ; Switch on 2 bytes has been partitioned into a top level switch of size 1, and 1 sub-sw
      +                          itches
  2163                           ; Switch size 1, requested type "simple"
  2164                           ; Number of cases is 1, Range of values is 0 to 0
  2165                           ; switch strategies available:
  2166                           ; Name         Instructions Cycles
  2167                           ; simple_byte            4     3 (average)
  2168                           ;	Chosen strategy is simple_byte
  2169  001B3C  5199               	movf	(??_main+1)& (0+255),w,b
  2170  001B3E  0A00               	xorlw	0	; case 0
  2171  001B40  B4D8               	btfsc	status,2,c
  2172  001B42  EFA5  F00D         	goto	l5158
  2173  001B46  EF19  F00E         	goto	l132
  2174  001B4A                     l5158:
  2175                           
  2176                           ; BSR set to: 0
  2177                           ; Switch size 1, requested type "simple"
  2178                           ; Number of cases is 4, Range of values is 43 to 120
  2179                           ; switch strategies available:
  2180                           ; Name         Instructions Cycles
  2181                           ; simple_byte           13     7 (average)
  2182                           ;	Chosen strategy is simple_byte
  2183  001B4A  5198               	movf	??_main& (0+255),w,b
  2184  001B4C  0A2B               	xorlw	43	; case 43
  2185  001B4E  B4D8               	btfsc	status,2,c
  2186  001B50  EFD5  F00A         	goto	l4986
  2187  001B54  0A06               	xorlw	6	; case 45
  2188  001B56  B4D8               	btfsc	status,2,c
  2189  001B58  EF5F  F00B         	goto	l5008
  2190  001B5C  0A02               	xorlw	2	; case 47
  2191  001B5E  B4D8               	btfsc	status,2,c
  2192  001B60  EFDC  F00C         	goto	l5062
  2193  001B64  0A57               	xorlw	87	; case 120
  2194  001B66  B4D8               	btfsc	status,2,c
  2195  001B68  EF1E  F00C         	goto	l5034
  2196  001B6C  EF19  F00E         	goto	l132
  2197  001B70                     l5094:
  2198                           
  2199                           ; BSR set to: 0
  2200  001B70  0EFF               	movlw	255
  2201  001B72  6F98               	movwf	??_main& (0+255),b
  2202  001B74  0EFF               	movlw	255
  2203  001B76  6F99               	movwf	(??_main+1)& (0+255),b
  2204  001B78  C0DA  F09A         	movff	main@i,??_main+2
  2205  001B7C  C0DB  F09B         	movff	main@i+1,??_main+3
  2206  001B80  5198               	movf	??_main& (0+255),w,b
  2207  001B82  279A               	addwf	(??_main+2)& (0+255),f,b
  2208  001B84  5199               	movf	(??_main+1)& (0+255),w,b
  2209  001B86  239B               	addwfc	(??_main+3)& (0+255),f,b
  2210  001B88  0EBA               	movlw	low main@equacao
  2211  001B8A  259A               	addwf	(??_main+2)& (0+255),w,b
  2212  001B8C  6ED9               	movwf	fsr2l,c
  2213  001B8E  0E00               	movlw	high main@equacao
  2214  001B90  219B               	addwfc	(??_main+3)& (0+255),w,b
  2215  001B92  6EDA               	movwf	fsr2h,c
  2216  001B94  0E43               	movlw	67
  2217  001B96  18DE               	xorwf	postinc2,w,c
  2218  001B98  A4D8               	btfss	status,2,c
  2219  001B9A  EFD1  F00D         	goto	u6751
  2220  001B9E  EFD3  F00D         	goto	u6750
  2221  001BA2                     u6751:
  2222  001BA2  EF19  F00E         	goto	l132
  2223  001BA6                     u6750:
  2224  001BA6                     
  2225                           ; BSR set to: 0
  2226                           ;main.c: 363:             for (int a = 0; a < 10; a++) {
  2227  001BA6  0E00               	movlw	0
  2228  001BA8  6FD1               	movwf	(main@a_282+1)& (0+255),b
  2229  001BAA  0E00               	movlw	0
  2230  001BAC  6FD0               	movwf	main@a_282& (0+255),b
  2231  001BAE                     l5098:
  2232                           
  2233                           ; BSR set to: 0
  2234  001BAE  BFD1               	btfsc	(main@a_282+1)& (0+255),7,b
  2235  001BB0  EFE3  F00D         	goto	u6761
  2236  001BB4  51D1               	movf	(main@a_282+1)& (0+255),w,b
  2237  001BB6  E109               	bnz	u6760
  2238  001BB8  0E0A               	movlw	10
  2239  001BBA  5DD0               	subwf	main@a_282& (0+255),w,b
  2240  001BBC  A0D8               	btfss	status,0,c
  2241  001BBE  EFE3  F00D         	goto	u6761
  2242  001BC2  EFE5  F00D         	goto	u6760
  2243  001BC6                     u6761:
  2244  001BC6  EFE7  F00D         	goto	l5102
  2245  001BCA                     u6760:
  2246  001BCA  EF03  F00E         	goto	l5108
  2247  001BCE                     l5102:
  2248                           
  2249                           ; BSR set to: 0
  2250                           ;main.c: 364:                 equacao[a] = "";
  2251  001BCE  0EBA               	movlw	low main@equacao
  2252  001BD0  25D0               	addwf	main@a_282& (0+255),w,b
  2253  001BD2  6ED9               	movwf	fsr2l,c
  2254  001BD4  0E00               	movlw	high main@equacao
  2255  001BD6  21D1               	addwfc	(main@a_282+1)& (0+255),w,b
  2256  001BD8  6EDA               	movwf	fsr2h,c
  2257  001BDA  0E09               	movlw	low (STR_21+3)
  2258  001BDC  6EDF               	movwf	indf2,c
  2259                           
  2260                           ;main.c: 365:                 vetaux1[a] = "";
  2261  001BDE  0E9D               	movlw	low main@vetaux1
  2262  001BE0  25D0               	addwf	main@a_282& (0+255),w,b
  2263  001BE2  6ED9               	movwf	fsr2l,c
  2264  001BE4  0E00               	movlw	high main@vetaux1
  2265  001BE6  21D1               	addwfc	(main@a_282+1)& (0+255),w,b
  2266  001BE8  6EDA               	movwf	fsr2h,c
  2267  001BEA  0E09               	movlw	low (STR_21+3)
  2268  001BEC  6EDF               	movwf	indf2,c
  2269                           
  2270                           ;main.c: 366:                 vetaux2[a] = "";
  2271  001BEE  0EA7               	movlw	low main@vetaux2
  2272  001BF0  25D0               	addwf	main@a_282& (0+255),w,b
  2273  001BF2  6ED9               	movwf	fsr2l,c
  2274  001BF4  0E00               	movlw	high main@vetaux2
  2275  001BF6  21D1               	addwfc	(main@a_282+1)& (0+255),w,b
  2276  001BF8  6EDA               	movwf	fsr2h,c
  2277  001BFA  0E09               	movlw	low (STR_21+3)
  2278  001BFC  6EDF               	movwf	indf2,c
  2279  001BFE                     
  2280                           ; BSR set to: 0
  2281                           ;main.c: 367:             }
  2282  001BFE  4BD0               	infsnz	main@a_282& (0+255),f,b
  2283  001C00  2BD1               	incf	(main@a_282+1)& (0+255),f,b
  2284  001C02  EFD7  F00D         	goto	l5098
  2285  001C06                     l5108:
  2286                           
  2287                           ; BSR set to: 0
  2288                           ;main.c: 368:             resp = 0.0;
  2289  001C06  0E00               	movlw	0
  2290  001C08  6FDC               	movwf	main@resp& (0+255),b
  2291  001C0A  0E00               	movlw	0
  2292  001C0C  6FDD               	movwf	(main@resp+1)& (0+255),b
  2293  001C0E  0E00               	movlw	0
  2294  001C10  6FDE               	movwf	(main@resp+2)& (0+255),b
  2295  001C12  0E00               	movlw	0
  2296  001C14  6FDF               	movwf	(main@resp+3)& (0+255),b
  2297  001C16                     
  2298                           ; BSR set to: 0
  2299                           ;main.c: 369:             sendCMD(0x01);
  2300  001C16  0E01               	movlw	1
  2301  001C18  ECED  F021         	call	_sendCMD
  2302  001C1C                     
  2303                           ;main.c: 370:             _delay((unsigned long)((2)*(4000000/4000.0)));
  2304  001C1C  0E03               	movlw	3
  2305  001C1E  0100               	movlb	0	; () banked
  2306  001C20  6F98               	movwf	??_main& (0+255),b
  2307  001C22  0E97               	movlw	151
  2308  001C24                     u6817:
  2309  001C24  2EE8               	decfsz	wreg,f,c
  2310  001C26  D7FE               	bra	u6817
  2311  001C28  2F98               	decfsz	??_main& (0+255),f,b
  2312  001C2A  D7FC               	bra	u6817
  2313  001C2C  D000               	nop2	
  2314  001C2E  EF6E  F009         	goto	l4946
  2315  001C32                     l132:
  2316                           
  2317                           ; BSR set to: 0
  2318  001C32  EF6E  F009         	goto	l4946
  2319  001C36  EF00  F000         	goto	start
  2320  001C3A                     __end_of_main:
  2321                           	callstack 0
  2322                           
  2323 ;; *************** function _strtol *****************
  2324 ;; Defined at:
  2325 ;;		line 4 in file "C:\Program Files\Microchip\xc8\v2.32\pic\sources\c99\common\strtol.c"
  2326 ;; Parameters:    Size  Location     Type
  2327 ;;  s               2   50[COMRAM] PTR const unsigned char 
  2328 ;;		 -> main@vetaux2(10), main@vetaux1(10), 
  2329 ;;  endptr          2   52[COMRAM] PTR PTR unsigned char 
  2330 ;;		 -> NULL(0), 
  2331 ;;  base            2   54[COMRAM] int 
  2332 ;; Auto vars:     Size  Location     Type
  2333 ;;		None
  2334 ;; Return value:  Size  Location     Type
  2335 ;;                  4   50[COMRAM] long 
  2336 ;; Registers used:
  2337 ;;		wreg, fsr2l, fsr2h, status,2, status,0, cstack
  2338 ;; Tracked objects:
  2339 ;;		On entry : 0/0
  2340 ;;		On exit  : 0/0
  2341 ;;		Unchanged: 0/0
  2342 ;; Data sizes:     COMRAM   BANK0   BANK1   BANK2   BANK3   BANK4   BANK5
  2343 ;;      Params:         6       0       0       0       0       0       0
  2344 ;;      Locals:         0       0       0       0       0       0       0
  2345 ;;      Temps:          0       0       0       0       0       0       0
  2346 ;;      Totals:         6       0       0       0       0       0       0
  2347 ;;Total ram usage:        6 bytes
  2348 ;; Hardware stack levels used: 1
  2349 ;; Hardware stack levels required when called: 3
  2350 ;; This function calls:
  2351 ;;		___strtoxl
  2352 ;; This function is called by:
  2353 ;;		_main
  2354 ;; This function uses a non-reentrant model
  2355 ;;
  2356                           
  2357                           	psect	text1
  2358  0048C2                     __ptext1:
  2359                           	callstack 0
  2360  0048C2                     _strtol:
  2361                           	callstack 27
  2362  0048C2  C033  F00F         	movff	strtol@s,___strtoxl@s
  2363  0048C6  C034  F010         	movff	strtol@s+1,___strtoxl@s+1
  2364  0048CA  C035  F011         	movff	strtol@endptr,___strtoxl@endptr
  2365  0048CE  C036  F012         	movff	strtol@endptr+1,___strtoxl@endptr+1
  2366  0048D2  C037  F013         	movff	strtol@base,___strtoxl@base
  2367  0048D6  C038  F014         	movff	strtol@base+1,___strtoxl@base+1
  2368  0048DA  0E01               	movlw	1
  2369  0048DC  6E15               	movwf	___strtoxl@is_signed^0,c
  2370  0048DE  ECFF  F012         	call	___strtoxl	;wreg free
  2371  0048E2  C00F  F033         	movff	?___strtoxl,?_strtol
  2372  0048E6  C010  F034         	movff	?___strtoxl+1,?_strtol+1
  2373  0048EA  C011  F035         	movff	?___strtoxl+2,?_strtol+2
  2374  0048EE  C012  F036         	movff	?___strtoxl+3,?_strtol+3
  2375  0048F2  0012               	return		;funcret
  2376  0048F4                     __end_of_strtol:
  2377                           	callstack 0
  2378                           
  2379 ;; *************** function ___strtoxl *****************
  2380 ;; Defined at:
  2381 ;;		line 7 in file "C:\Program Files\Microchip\xc8\v2.32\pic\sources\c99\common\__strtoxl.c"
  2382 ;; Parameters:    Size  Location     Type
  2383 ;;  s               2   14[COMRAM] PTR const unsigned char 
  2384 ;;		 -> main@vetaux2(10), main@vetaux1(10), 
  2385 ;;  endptr          2   16[COMRAM] PTR PTR unsigned char 
  2386 ;;		 -> NULL(0), 
  2387 ;;  base            2   18[COMRAM] int 
  2388 ;;  is_signed       1   20[COMRAM] unsigned char 
  2389 ;; Auto vars:     Size  Location     Type
  2390 ;;  a               4   43[COMRAM] unsigned long 
  2391 ;;  limit           4   37[COMRAM] unsigned long 
  2392 ;;  prev_a          4   25[COMRAM] unsigned long 
  2393 ;;  cp              2   47[COMRAM] PTR const unsigned char 
  2394 ;;		 -> main@vetaux2(10), main@vetaux1(10), 
  2395 ;;  c               1   49[COMRAM] unsigned char 
  2396 ;;  skip            1   42[COMRAM] unsigned char 
  2397 ;;  sign            1   41[COMRAM] unsigned char 
  2398 ;;  conv_done       1   36[COMRAM] unsigned char 
  2399 ;; Return value:  Size  Location     Type
  2400 ;;                  4   14[COMRAM] unsigned long 
  2401 ;; Registers used:
  2402 ;;		wreg, fsr2l, fsr2h, status,2, status,0, cstack
  2403 ;; Tracked objects:
  2404 ;;		On entry : 0/0
  2405 ;;		On exit  : 0/0
  2406 ;;		Unchanged: 0/0
  2407 ;; Data sizes:     COMRAM   BANK0   BANK1   BANK2   BANK3   BANK4   BANK5
  2408 ;;      Params:         7       0       0       0       0       0       0
  2409 ;;      Locals:        25       0       0       0       0       0       0
  2410 ;;      Temps:          4       0       0       0       0       0       0
  2411 ;;      Totals:        36       0       0       0       0       0       0
  2412 ;;Total ram usage:       36 bytes
  2413 ;; Hardware stack levels used: 1
  2414 ;; Hardware stack levels required when called: 2
  2415 ;; This function calls:
  2416 ;;		___lmul
  2417 ;;		_isalpha
  2418 ;;		_isdigit
  2419 ;;		_isspace
  2420 ;;		_toupper
  2421 ;; This function is called by:
  2422 ;;		_strtol
  2423 ;; This function uses a non-reentrant model
  2424 ;;
  2425                           
  2426                           	psect	text2
  2427  0025FE                     __ptext2:
  2428                           	callstack 0
  2429  0025FE                     ___strtoxl:
  2430                           	callstack 27
  2431  0025FE  0E00               	movlw	0
  2432  002600  6E2C               	movwf	___strtoxl@a^0,c
  2433  002602  0E00               	movlw	0
  2434  002604  6E2D               	movwf	(___strtoxl@a+1)^0,c
  2435  002606  0E00               	movlw	0
  2436  002608  6E2E               	movwf	(___strtoxl@a+2)^0,c
  2437  00260A  0E00               	movlw	0
  2438  00260C  6E2F               	movwf	(___strtoxl@a+3)^0,c
  2439  00260E  C00F  F030         	movff	___strtoxl@s,___strtoxl@cp
  2440  002612  C010  F031         	movff	___strtoxl@s+1,___strtoxl@cp+1
  2441  002616  5030               	movf	___strtoxl@cp^0,w,c
  2442  002618  1031               	iorwf	(___strtoxl@cp+1)^0,w,c
  2443  00261A  B4D8               	btfsc	status,2,c
  2444  00261C  EF12  F013         	goto	u6151
  2445  002620  EF14  F013         	goto	u6150
  2446  002624                     u6151:
  2447  002624  EF01  F015         	goto	l4810
  2448  002628                     u6150:
  2449  002628  C030  FFD9         	movff	___strtoxl@cp,fsr2l
  2450  00262C  C031  FFDA         	movff	___strtoxl@cp+1,fsr2h
  2451  002630  50DF               	movf	indf2,w,c
  2452  002632  A4D8               	btfss	status,2,c
  2453  002634  EF1E  F013         	goto	u6161
  2454  002638  EF20  F013         	goto	u6160
  2455  00263C                     u6161:
  2456  00263C  EF22  F013         	goto	l4706
  2457  002640                     u6160:
  2458  002640  EF01  F015         	goto	l4810
  2459  002644                     l4706:
  2460  002644  C030  FFD9         	movff	___strtoxl@cp,fsr2l
  2461  002648  C031  FFDA         	movff	___strtoxl@cp+1,fsr2h
  2462  00264C  50DF               	movf	indf2,w,c
  2463  00264E  6E32               	movwf	___strtoxl@c^0,c
  2464  002650  EF32  F013         	goto	l4710
  2465  002654                     l4708:
  2466  002654  4A30               	infsnz	___strtoxl@cp^0,f,c
  2467  002656  2A31               	incf	(___strtoxl@cp+1)^0,f,c
  2468  002658  C030  FFD9         	movff	___strtoxl@cp,fsr2l
  2469  00265C  C031  FFDA         	movff	___strtoxl@cp+1,fsr2h
  2470  002660  50DF               	movf	indf2,w,c
  2471  002662  6E32               	movwf	___strtoxl@c^0,c
  2472  002664                     l4710:
  2473  002664  0E01               	movlw	1
  2474  002666  6E24               	movwf	___strtoxl$1035^0,c
  2475  002668  0E20               	movlw	32
  2476  00266A  1832               	xorwf	___strtoxl@c^0,w,c
  2477  00266C  B4D8               	btfsc	status,2,c
  2478  00266E  EF3B  F013         	goto	u6171
  2479  002672  EF3D  F013         	goto	u6170
  2480  002676                     u6171:
  2481  002676  EF55  F013         	goto	l4718
  2482  00267A                     u6170:
  2483  00267A  0EF7               	movlw	247
  2484  00267C  6E16               	movwf	??___strtoxl^0,c
  2485  00267E  0EFF               	movlw	255
  2486  002680  6E17               	movwf	(??___strtoxl+1)^0,c
  2487  002682  5032               	movf	___strtoxl@c^0,w,c
  2488  002684  6E18               	movwf	(??___strtoxl+2)^0,c
  2489  002686  6A19               	clrf	(??___strtoxl+3)^0,c
  2490  002688  5016               	movf	??___strtoxl^0,w,c
  2491  00268A  2618               	addwf	(??___strtoxl+2)^0,f,c
  2492  00268C  5017               	movf	(??___strtoxl+1)^0,w,c
  2493  00268E  2219               	addwfc	(??___strtoxl+3)^0,f,c
  2494  002690  5019               	movf	(??___strtoxl+3)^0,w,c
  2495  002692  E109               	bnz	u6180
  2496  002694  0E05               	movlw	5
  2497  002696  5C18               	subwf	(??___strtoxl+2)^0,w,c
  2498  002698  A0D8               	btfss	status,0,c
  2499  00269A  EF51  F013         	goto	u6181
  2500  00269E  EF53  F013         	goto	u6180
  2501  0026A2                     u6181:
  2502  0026A2  EF55  F013         	goto	l4718
  2503  0026A6                     u6180:
  2504  0026A6  0E00               	movlw	0
  2505  0026A8  6E24               	movwf	___strtoxl$1035^0,c
  2506  0026AA                     l4718:
  2507  0026AA  C024  F01E         	movff	___strtoxl$1035,___strtoxl$1034
  2508  0026AE  6A1F               	clrf	(___strtoxl$1034+1)^0,c
  2509  0026B0  501E               	movf	___strtoxl$1034^0,w,c
  2510  0026B2  101F               	iorwf	(___strtoxl$1034+1)^0,w,c
  2511  0026B4  A4D8               	btfss	status,2,c
  2512  0026B6  EF5F  F013         	goto	u6191
  2513  0026BA  EF61  F013         	goto	u6190
  2514  0026BE                     u6191:
  2515  0026BE  EF2A  F013         	goto	l4708
  2516  0026C2                     u6190:
  2517  0026C2  0E00               	movlw	0
  2518  0026C4  6E2A               	movwf	___strtoxl@sign^0,c
  2519  0026C6  0E00               	movlw	0
  2520  0026C8  6E25               	movwf	___strtoxl@conv_done^0,c
  2521  0026CA  0E00               	movlw	0
  2522  0026CC  6E2B               	movwf	___strtoxl@skip^0,c
  2523  0026CE  0E2D               	movlw	45
  2524  0026D0  1832               	xorwf	___strtoxl@c^0,w,c
  2525  0026D2  A4D8               	btfss	status,2,c
  2526  0026D4  EF6E  F013         	goto	u6201
  2527  0026D8  EF70  F013         	goto	u6200
  2528  0026DC                     u6201:
  2529  0026DC  EF7C  F013         	goto	l4732
  2530  0026E0                     u6200:
  2531  0026E0  0E01               	movlw	1
  2532  0026E2  6E2A               	movwf	___strtoxl@sign^0,c
  2533  0026E4                     l4730:
  2534  0026E4  4A30               	infsnz	___strtoxl@cp^0,f,c
  2535  0026E6  2A31               	incf	(___strtoxl@cp+1)^0,f,c
  2536  0026E8  C030  FFD9         	movff	___strtoxl@cp,fsr2l
  2537  0026EC  C031  FFDA         	movff	___strtoxl@cp+1,fsr2h
  2538  0026F0  50DF               	movf	indf2,w,c
  2539  0026F2  6E32               	movwf	___strtoxl@c^0,c
  2540  0026F4  EF87  F013         	goto	l4736
  2541  0026F8                     l4732:
  2542  0026F8  0E2B               	movlw	43
  2543  0026FA  1832               	xorwf	___strtoxl@c^0,w,c
  2544  0026FC  A4D8               	btfss	status,2,c
  2545  0026FE  EF83  F013         	goto	u6211
  2546  002702  EF85  F013         	goto	u6210
  2547  002706                     u6211:
  2548  002706  EF87  F013         	goto	l4736
  2549  00270A                     u6210:
  2550  00270A  EF72  F013         	goto	l4730
  2551  00270E                     l4736:
  2552  00270E  0E30               	movlw	48
  2553  002710  1832               	xorwf	___strtoxl@c^0,w,c
  2554  002712  A4D8               	btfss	status,2,c
  2555  002714  EF8E  F013         	goto	u6221
  2556  002718  EF90  F013         	goto	u6220
  2557  00271C                     u6221:
  2558  00271C  EFDA  F013         	goto	l4758
  2559  002720                     u6220:
  2560  002720  4A30               	infsnz	___strtoxl@cp^0,f,c
  2561  002722  2A31               	incf	(___strtoxl@cp+1)^0,f,c
  2562  002724  C030  FFD9         	movff	___strtoxl@cp,fsr2l
  2563  002728  C031  FFDA         	movff	___strtoxl@cp+1,fsr2h
  2564  00272C  50DF               	movf	indf2,w,c
  2565  00272E  6E32               	movwf	___strtoxl@c^0,c
  2566  002730  5013               	movf	___strtoxl@base^0,w,c
  2567  002732  1014               	iorwf	(___strtoxl@base+1)^0,w,c
  2568  002734  B4D8               	btfsc	status,2,c
  2569  002736  EF9F  F013         	goto	u6231
  2570  00273A  EFA1  F013         	goto	u6230
  2571  00273E                     u6231:
  2572  00273E  EFAB  F013         	goto	l4744
  2573  002742                     u6230:
  2574  002742  0E10               	movlw	16
  2575  002744  1813               	xorwf	___strtoxl@base^0,w,c
  2576  002746  1014               	iorwf	(___strtoxl@base+1)^0,w,c
  2577  002748  A4D8               	btfss	status,2,c
  2578  00274A  EFA9  F013         	goto	u6241
  2579  00274E  EFAB  F013         	goto	u6240
  2580  002752                     u6241:
  2581  002752  EFCB  F013         	goto	l4752
  2582  002756                     u6240:
  2583  002756                     l4744:
  2584  002756  0E78               	movlw	120
  2585  002758  1832               	xorwf	___strtoxl@c^0,w,c
  2586  00275A  B4D8               	btfsc	status,2,c
  2587  00275C  EFB2  F013         	goto	u6251
  2588  002760  EFB4  F013         	goto	u6250
  2589  002764                     u6251:
  2590  002764  EFBD  F013         	goto	l4748
  2591  002768                     u6250:
  2592  002768  0E58               	movlw	88
  2593  00276A  1832               	xorwf	___strtoxl@c^0,w,c
  2594  00276C  A4D8               	btfss	status,2,c
  2595  00276E  EFBB  F013         	goto	u6261
  2596  002772  EFBD  F013         	goto	u6260
  2597  002776                     u6261:
  2598  002776  EFCB  F013         	goto	l4752
  2599  00277A                     u6260:
  2600  00277A                     l4748:
  2601  00277A  0E00               	movlw	0
  2602  00277C  6E14               	movwf	(___strtoxl@base+1)^0,c
  2603  00277E  0E10               	movlw	16
  2604  002780  6E13               	movwf	___strtoxl@base^0,c
  2605  002782  4A30               	infsnz	___strtoxl@cp^0,f,c
  2606  002784  2A31               	incf	(___strtoxl@cp+1)^0,f,c
  2607  002786  C030  FFD9         	movff	___strtoxl@cp,fsr2l
  2608  00278A  C031  FFDA         	movff	___strtoxl@cp+1,fsr2h
  2609  00278E  50DF               	movf	indf2,w,c
  2610  002790  6E32               	movwf	___strtoxl@c^0,c
  2611  002792  EFDA  F013         	goto	l4758
  2612  002796                     l4752:
  2613  002796  0E01               	movlw	1
  2614  002798  6E25               	movwf	___strtoxl@conv_done^0,c
  2615  00279A  5013               	movf	___strtoxl@base^0,w,c
  2616  00279C  1014               	iorwf	(___strtoxl@base+1)^0,w,c
  2617  00279E  A4D8               	btfss	status,2,c
  2618  0027A0  EFD4  F013         	goto	u6271
  2619  0027A4  EFD6  F013         	goto	u6270
  2620  0027A8                     u6271:
  2621  0027A8  EFDA  F013         	goto	l4758
  2622  0027AC                     u6270:
  2623  0027AC  0E00               	movlw	0
  2624  0027AE  6E14               	movwf	(___strtoxl@base+1)^0,c
  2625  0027B0  0E08               	movlw	8
  2626  0027B2  6E13               	movwf	___strtoxl@base^0,c
  2627  0027B4                     l4758:
  2628  0027B4  5013               	movf	___strtoxl@base^0,w,c
  2629  0027B6  1014               	iorwf	(___strtoxl@base+1)^0,w,c
  2630  0027B8  A4D8               	btfss	status,2,c
  2631  0027BA  EFE1  F013         	goto	u6281
  2632  0027BE  EFE3  F013         	goto	u6280
  2633  0027C2                     u6281:
  2634  0027C2  EFE7  F013         	goto	l1191
  2635  0027C6                     u6280:
  2636  0027C6  0E00               	movlw	0
  2637  0027C8  6E14               	movwf	(___strtoxl@base+1)^0,c
  2638  0027CA  0E0A               	movlw	10
  2639  0027CC  6E13               	movwf	___strtoxl@base^0,c
  2640  0027CE                     l1191:
  2641  0027CE  5015               	movf	___strtoxl@is_signed^0,w,c
  2642  0027D0  B4D8               	btfsc	status,2,c
  2643  0027D2  EFED  F013         	goto	u6291
  2644  0027D6  EFEF  F013         	goto	u6290
  2645  0027DA                     u6291:
  2646  0027DA  EF0B  F014         	goto	l1192
  2647  0027DE                     u6290:
  2648  0027DE  502A               	movf	___strtoxl@sign^0,w,c
  2649  0027E0  A4D8               	btfss	status,2,c
  2650  0027E2  EFF5  F013         	goto	u6301
  2651  0027E6  EFF7  F013         	goto	u6300
  2652  0027EA                     u6301:
  2653  0027EA  EF01  F014         	goto	l4766
  2654  0027EE                     u6300:
  2655  0027EE  0EFF               	movlw	255
  2656  0027F0  6E26               	movwf	___strtoxl@limit^0,c
  2657  0027F2  0EFF               	movlw	255
  2658  0027F4  6E27               	movwf	(___strtoxl@limit+1)^0,c
  2659  0027F6  0EFF               	movlw	255
  2660  0027F8  6E28               	movwf	(___strtoxl@limit+2)^0,c
  2661  0027FA  0E7F               	movlw	127
  2662  0027FC  6E29               	movwf	(___strtoxl@limit+3)^0,c
  2663  0027FE  EF0F  F014         	goto	l1198
  2664  002802                     l4766:
  2665  002802  0E00               	movlw	0
  2666  002804  6E26               	movwf	___strtoxl@limit^0,c
  2667  002806  0E00               	movlw	0
  2668  002808  6E27               	movwf	(___strtoxl@limit+1)^0,c
  2669  00280A  0E00               	movlw	0
  2670  00280C  6E28               	movwf	(___strtoxl@limit+2)^0,c
  2671  00280E  0E80               	movlw	128
  2672  002810  6E29               	movwf	(___strtoxl@limit+3)^0,c
  2673  002812  EF0F  F014         	goto	l1198
  2674  002816                     l1192:
  2675  002816  6826               	setf	___strtoxl@limit^0,c
  2676  002818  6827               	setf	(___strtoxl@limit+1)^0,c
  2677  00281A  6828               	setf	(___strtoxl@limit+2)^0,c
  2678  00281C  6829               	setf	(___strtoxl@limit+3)^0,c
  2679  00281E                     l1198:
  2680  00281E  C02C  F01A         	movff	___strtoxl@a,___strtoxl@prev_a
  2681  002822  C02D  F01B         	movff	___strtoxl@a+1,___strtoxl@prev_a+1
  2682  002826  C02E  F01C         	movff	___strtoxl@a+2,___strtoxl@prev_a+2
  2683  00282A  C02F  F01D         	movff	___strtoxl@a+3,___strtoxl@prev_a+3
  2684  00282E  0E9F               	movlw	159
  2685  002830  6E16               	movwf	??___strtoxl^0,c
  2686  002832  0EFF               	movlw	255
  2687  002834  6E17               	movwf	(??___strtoxl+1)^0,c
  2688  002836  5032               	movf	___strtoxl@c^0,w,c
  2689  002838  6E18               	movwf	(??___strtoxl+2)^0,c
  2690  00283A  6A19               	clrf	(??___strtoxl+3)^0,c
  2691  00283C  0E20               	movlw	32
  2692  00283E  1218               	iorwf	(??___strtoxl+2)^0,f,c
  2693  002840  0E00               	movlw	0
  2694  002842  1219               	iorwf	(??___strtoxl+3)^0,f,c
  2695  002844  5016               	movf	??___strtoxl^0,w,c
  2696  002846  2618               	addwf	(??___strtoxl+2)^0,f,c
  2697  002848  5017               	movf	(??___strtoxl+1)^0,w,c
  2698  00284A  2219               	addwfc	(??___strtoxl+3)^0,f,c
  2699  00284C  5019               	movf	(??___strtoxl+3)^0,w,c
  2700  00284E  E10A               	bnz	u6310
  2701  002850  0E1A               	movlw	26
  2702  002852  5C18               	subwf	(??___strtoxl+2)^0,w,c
  2703  002854  A0D8               	btfss	status,0,c
  2704  002856  EF2F  F014         	goto	u6311
  2705  00285A  EF32  F014         	goto	u6310
  2706  00285E                     u6311:
  2707  00285E  0E01               	movlw	1
  2708  002860  EF33  F014         	goto	u6320
  2709  002864                     u6310:
  2710  002864  0E00               	movlw	0
  2711  002866                     u6320:
  2712  002866  6E20               	movwf	___strtoxl$1036^0,c
  2713  002868  6A21               	clrf	(___strtoxl$1036+1)^0,c
  2714  00286A  5020               	movf	___strtoxl$1036^0,w,c
  2715  00286C  1021               	iorwf	(___strtoxl$1036+1)^0,w,c
  2716  00286E  B4D8               	btfsc	status,2,c
  2717  002870  EF3C  F014         	goto	u6331
  2718  002874  EF3E  F014         	goto	u6330
  2719  002878                     u6331:
  2720  002878  EF48  F014         	goto	l4776
  2721  00287C                     u6330:
  2722  00287C  C032  F007         	movff	___strtoxl@c,toupper@c
  2723  002880  6A08               	clrf	(toupper@c+1)^0,c
  2724  002882  ECED  F022         	call	_toupper	;wreg free
  2725  002886  5007               	movf	?_toupper^0,w,c
  2726  002888  0FC9               	addlw	201
  2727  00288A  6E32               	movwf	___strtoxl@c^0,c
  2728  00288C  EF6D  F014         	goto	l4784
  2729  002890                     l4776:
  2730  002890  0ED0               	movlw	208
  2731  002892  6E16               	movwf	??___strtoxl^0,c
  2732  002894  0EFF               	movlw	255
  2733  002896  6E17               	movwf	(??___strtoxl+1)^0,c
  2734  002898  5032               	movf	___strtoxl@c^0,w,c
  2735  00289A  6E18               	movwf	(??___strtoxl+2)^0,c
  2736  00289C  6A19               	clrf	(??___strtoxl+3)^0,c
  2737  00289E  5016               	movf	??___strtoxl^0,w,c
  2738  0028A0  2618               	addwf	(??___strtoxl+2)^0,f,c
  2739  0028A2  5017               	movf	(??___strtoxl+1)^0,w,c
  2740  0028A4  2219               	addwfc	(??___strtoxl+3)^0,f,c
  2741  0028A6  5019               	movf	(??___strtoxl+3)^0,w,c
  2742  0028A8  E10A               	bnz	u6340
  2743  0028AA  0E0A               	movlw	10
  2744  0028AC  5C18               	subwf	(??___strtoxl+2)^0,w,c
  2745  0028AE  A0D8               	btfss	status,0,c
  2746  0028B0  EF5C  F014         	goto	u6341
  2747  0028B4  EF5F  F014         	goto	u6340
  2748  0028B8                     u6341:
  2749  0028B8  0E01               	movlw	1
  2750  0028BA  EF60  F014         	goto	u6350
  2751  0028BE                     u6340:
  2752  0028BE  0E00               	movlw	0
  2753  0028C0                     u6350:
  2754  0028C0  6E22               	movwf	___strtoxl$1037^0,c
  2755  0028C2  6A23               	clrf	(___strtoxl$1037+1)^0,c
  2756  0028C4  5022               	movf	___strtoxl$1037^0,w,c
  2757  0028C6  1023               	iorwf	(___strtoxl$1037+1)^0,w,c
  2758  0028C8  B4D8               	btfsc	status,2,c
  2759  0028CA  EF69  F014         	goto	u6361
  2760  0028CE  EF6B  F014         	goto	u6360
  2761  0028D2                     u6361:
  2762  0028D2  EFE9  F014         	goto	l4804
  2763  0028D6                     u6360:
  2764  0028D6  0E30               	movlw	48
  2765  0028D8  5E32               	subwf	___strtoxl@c^0,f,c
  2766  0028DA                     l4784:
  2767  0028DA  5032               	movf	___strtoxl@c^0,w,c
  2768  0028DC  6E16               	movwf	??___strtoxl^0,c
  2769  0028DE  6A17               	clrf	(??___strtoxl+1)^0,c
  2770  0028E0  5013               	movf	___strtoxl@base^0,w,c
  2771  0028E2  5C16               	subwf	??___strtoxl^0,w,c
  2772  0028E4  5017               	movf	(??___strtoxl+1)^0,w,c
  2773  0028E6  0A80               	xorlw	128
  2774  0028E8  6E18               	movwf	(??___strtoxl+2)^0,c
  2775  0028EA  5014               	movf	(___strtoxl@base+1)^0,w,c
  2776  0028EC  0A80               	xorlw	128
  2777  0028EE  5818               	subwfb	(??___strtoxl+2)^0,w,c
  2778  0028F0  A0D8               	btfss	status,0,c
  2779  0028F2  EF7D  F014         	goto	u6371
  2780  0028F6  EF7F  F014         	goto	u6370
  2781  0028FA                     u6371:
  2782  0028FA  EF81  F014         	goto	l4788
  2783  0028FE                     u6370:
  2784  0028FE  EFE9  F014         	goto	l4804
  2785  002902                     l4788:
  2786  002902  502B               	movf	___strtoxl@skip^0,w,c
  2787  002904  A4D8               	btfss	status,2,c
  2788  002906  EF87  F014         	goto	u6381
  2789  00290A  EF89  F014         	goto	u6380
  2790  00290E                     u6381:
  2791  00290E  EFDD  F014         	goto	l4800
  2792  002912                     u6380:
  2793  002912  C013  F001         	movff	___strtoxl@base,___lmul@multiplier
  2794  002916  C014  F002         	movff	___strtoxl@base+1,___lmul@multiplier+1
  2795  00291A  0E00               	movlw	0
  2796  00291C  BE02               	btfsc	(___lmul@multiplier+1)^0,7,c
  2797  00291E  0EFF               	movlw	-1
  2798  002920  6E03               	movwf	(___lmul@multiplier+2)^0,c
  2799  002922  6E04               	movwf	(___lmul@multiplier+3)^0,c
  2800  002924  C02C  F005         	movff	___strtoxl@a,___lmul@multiplicand
  2801  002928  C02D  F006         	movff	___strtoxl@a+1,___lmul@multiplicand+1
  2802  00292C  C02E  F007         	movff	___strtoxl@a+2,___lmul@multiplicand+2
  2803  002930  C02F  F008         	movff	___strtoxl@a+3,___lmul@multiplicand+3
  2804  002934  EC23  F022         	call	___lmul	;wreg free
  2805  002938  5032               	movf	___strtoxl@c^0,w,c
  2806  00293A  2401               	addwf	?___lmul^0,w,c
  2807  00293C  6E2C               	movwf	___strtoxl@a^0,c
  2808  00293E  0E00               	movlw	0
  2809  002940  2002               	addwfc	(?___lmul+1)^0,w,c
  2810  002942  6E2D               	movwf	(___strtoxl@a+1)^0,c
  2811  002944  0E00               	movlw	0
  2812  002946  2003               	addwfc	(?___lmul+2)^0,w,c
  2813  002948  6E2E               	movwf	(___strtoxl@a+2)^0,c
  2814  00294A  0E00               	movlw	0
  2815  00294C  2004               	addwfc	(?___lmul+3)^0,w,c
  2816  00294E  6E2F               	movwf	(___strtoxl@a+3)^0,c
  2817  002950  501A               	movf	___strtoxl@prev_a^0,w,c
  2818  002952  5C2C               	subwf	___strtoxl@a^0,w,c
  2819  002954  501B               	movf	(___strtoxl@prev_a+1)^0,w,c
  2820  002956  582D               	subwfb	(___strtoxl@a+1)^0,w,c
  2821  002958  501C               	movf	(___strtoxl@prev_a+2)^0,w,c
  2822  00295A  582E               	subwfb	(___strtoxl@a+2)^0,w,c
  2823  00295C  501D               	movf	(___strtoxl@prev_a+3)^0,w,c
  2824  00295E  582F               	subwfb	(___strtoxl@a+3)^0,w,c
  2825  002960  A0D8               	btfss	status,0,c
  2826  002962  EFB5  F014         	goto	u6391
  2827  002966  EFB7  F014         	goto	u6390
  2828  00296A                     u6391:
  2829  00296A  EFCE  F014         	goto	l1216
  2830  00296E                     u6390:
  2831  00296E  5015               	movf	___strtoxl@is_signed^0,w,c
  2832  002970  B4D8               	btfsc	status,2,c
  2833  002972  EFBD  F014         	goto	u6401
  2834  002976  EFBF  F014         	goto	u6400
  2835  00297A                     u6401:
  2836  00297A  EFDD  F014         	goto	l4800
  2837  00297E                     u6400:
  2838  00297E  502C               	movf	___strtoxl@a^0,w,c
  2839  002980  5C26               	subwf	___strtoxl@limit^0,w,c
  2840  002982  502D               	movf	(___strtoxl@a+1)^0,w,c
  2841  002984  5827               	subwfb	(___strtoxl@limit+1)^0,w,c
  2842  002986  502E               	movf	(___strtoxl@a+2)^0,w,c
  2843  002988  5828               	subwfb	(___strtoxl@limit+2)^0,w,c
  2844  00298A  502F               	movf	(___strtoxl@a+3)^0,w,c
  2845  00298C  5829               	subwfb	(___strtoxl@limit+3)^0,w,c
  2846  00298E  B0D8               	btfsc	status,0,c
  2847  002990  EFCC  F014         	goto	u6411
  2848  002994  EFCE  F014         	goto	u6410
  2849  002998                     u6411:
  2850  002998  EFDD  F014         	goto	l4800
  2851  00299C                     u6410:
  2852  00299C                     l1216:
  2853  00299C  C026  F02C         	movff	___strtoxl@limit,___strtoxl@a
  2854  0029A0  C027  F02D         	movff	___strtoxl@limit+1,___strtoxl@a+1
  2855  0029A4  C028  F02E         	movff	___strtoxl@limit+2,___strtoxl@a+2
  2856  0029A8  C029  F02F         	movff	___strtoxl@limit+3,___strtoxl@a+3
  2857  0029AC  0E00               	movlw	0
  2858  0029AE  0100               	movlb	0	; () banked
  2859  0029B0  6FE9               	movwf	(_errno+1)& (0+255),b
  2860  0029B2  0E22               	movlw	34
  2861  0029B4  6FE8               	movwf	_errno& (0+255),b
  2862  0029B6  0E01               	movlw	1
  2863  0029B8  6E2B               	movwf	___strtoxl@skip^0,c
  2864  0029BA                     l4800:
  2865  0029BA  4A30               	infsnz	___strtoxl@cp^0,f,c
  2866  0029BC  2A31               	incf	(___strtoxl@cp+1)^0,f,c
  2867  0029BE  C030  FFD9         	movff	___strtoxl@cp,fsr2l
  2868  0029C2  C031  FFDA         	movff	___strtoxl@cp+1,fsr2h
  2869  0029C6  50DF               	movf	indf2,w,c
  2870  0029C8  6E32               	movwf	___strtoxl@c^0,c
  2871  0029CA  0E01               	movlw	1
  2872  0029CC  6E25               	movwf	___strtoxl@conv_done^0,c
  2873  0029CE  EF0F  F014         	goto	l1198
  2874  0029D2                     l4804:
  2875  0029D2  502B               	movf	___strtoxl@skip^0,w,c
  2876  0029D4  A4D8               	btfss	status,2,c
  2877  0029D6  EFEF  F014         	goto	u6421
  2878  0029DA  EFF1  F014         	goto	u6420
  2879  0029DE                     u6421:
  2880  0029DE  EF01  F015         	goto	l4810
  2881  0029E2                     u6420:
  2882  0029E2  502A               	movf	___strtoxl@sign^0,w,c
  2883  0029E4  B4D8               	btfsc	status,2,c
  2884  0029E6  EFF7  F014         	goto	u6431
  2885  0029EA  EFF9  F014         	goto	u6430
  2886  0029EE                     u6431:
  2887  0029EE  EF01  F015         	goto	l4810
  2888  0029F2                     u6430:
  2889  0029F2  1E2F               	comf	(___strtoxl@a+3)^0,f,c
  2890  0029F4  1E2E               	comf	(___strtoxl@a+2)^0,f,c
  2891  0029F6  1E2D               	comf	(___strtoxl@a+1)^0,f,c
  2892  0029F8  6C2C               	negf	___strtoxl@a^0,c
  2893  0029FA  0E00               	movlw	0
  2894  0029FC  222D               	addwfc	(___strtoxl@a+1)^0,f,c
  2895  0029FE  222E               	addwfc	(___strtoxl@a+2)^0,f,c
  2896  002A00  222F               	addwfc	(___strtoxl@a+3)^0,f,c
  2897  002A02                     l4810:
  2898  002A02  5011               	movf	___strtoxl@endptr^0,w,c
  2899  002A04  1012               	iorwf	(___strtoxl@endptr+1)^0,w,c
  2900  002A06  B4D8               	btfsc	status,2,c
  2901  002A08  EF08  F015         	goto	u6441
  2902  002A0C  EF0A  F015         	goto	u6440
  2903  002A10                     u6441:
  2904  002A10  EF1E  F015         	goto	l4818
  2905  002A14                     u6440:
  2906  002A14  5025               	movf	___strtoxl@conv_done^0,w,c
  2907  002A16  A4D8               	btfss	status,2,c
  2908  002A18  EF10  F015         	goto	u6451
  2909  002A1C  EF12  F015         	goto	u6450
  2910  002A20                     u6451:
  2911  002A20  EF16  F015         	goto	l4816
  2912  002A24                     u6450:
  2913  002A24  C00F  F030         	movff	___strtoxl@s,___strtoxl@cp
  2914  002A28  C010  F031         	movff	___strtoxl@s+1,___strtoxl@cp+1
  2915  002A2C                     l4816:
  2916  002A2C  C011  FFD9         	movff	___strtoxl@endptr,fsr2l
  2917  002A30  C012  FFDA         	movff	___strtoxl@endptr+1,fsr2h
  2918  002A34  C030  FFDE         	movff	___strtoxl@cp,postinc2
  2919  002A38  C031  FFDD         	movff	___strtoxl@cp+1,postdec2
  2920  002A3C                     l4818:
  2921  002A3C  C02C  F00F         	movff	___strtoxl@a,?___strtoxl
  2922  002A40  C02D  F010         	movff	___strtoxl@a+1,?___strtoxl+1
  2923  002A44  C02E  F011         	movff	___strtoxl@a+2,?___strtoxl+2
  2924  002A48  C02F  F012         	movff	___strtoxl@a+3,?___strtoxl+3
  2925  002A4C  0012               	return		;funcret
  2926  002A4E                     __end_of___strtoxl:
  2927                           	callstack 0
  2928                           
  2929 ;; *************** function _toupper *****************
  2930 ;; Defined at:
  2931 ;;		line 4 in file "C:\Program Files\Microchip\xc8\v2.32\pic\sources\c99\common\toupper.c"
  2932 ;; Parameters:    Size  Location     Type
  2933 ;;  c               2    6[COMRAM] int 
  2934 ;; Auto vars:     Size  Location     Type
  2935 ;;		None
  2936 ;; Return value:  Size  Location     Type
  2937 ;;                  2    6[COMRAM] int 
  2938 ;; Registers used:
  2939 ;;		wreg, status,2, status,0
  2940 ;; Tracked objects:
  2941 ;;		On entry : 0/0
  2942 ;;		On exit  : 0/0
  2943 ;;		Unchanged: 0/0
  2944 ;; Data sizes:     COMRAM   BANK0   BANK1   BANK2   BANK3   BANK4   BANK5
  2945 ;;      Params:         2       0       0       0       0       0       0
  2946 ;;      Locals:         2       0       0       0       0       0       0
  2947 ;;      Temps:          4       0       0       0       0       0       0
  2948 ;;      Totals:         8       0       0       0       0       0       0
  2949 ;;Total ram usage:        8 bytes
  2950 ;; Hardware stack levels used: 1
  2951 ;; Hardware stack levels required when called: 1
  2952 ;; This function calls:
  2953 ;;		_islower
  2954 ;; This function is called by:
  2955 ;;		___strtoxl
  2956 ;; This function uses a non-reentrant model
  2957 ;;
  2958                           
  2959                           	psect	text3
  2960  0045DA                     __ptext3:
  2961                           	callstack 0
  2962  0045DA                     _toupper:
  2963                           	callstack 27
  2964  0045DA  0E9F               	movlw	159
  2965  0045DC  6E09               	movwf	??_toupper^0,c
  2966  0045DE  0EFF               	movlw	255
  2967  0045E0  6E0A               	movwf	(??_toupper+1)^0,c
  2968  0045E2  C007  F00B         	movff	toupper@c,??_toupper+2
  2969  0045E6  C008  F00C         	movff	toupper@c+1,??_toupper+3
  2970  0045EA  5009               	movf	??_toupper^0,w,c
  2971  0045EC  260B               	addwf	(??_toupper+2)^0,f,c
  2972  0045EE  500A               	movf	(??_toupper+1)^0,w,c
  2973  0045F0  220C               	addwfc	(??_toupper+3)^0,f,c
  2974  0045F2  500C               	movf	(??_toupper+3)^0,w,c
  2975  0045F4  E10A               	bnz	u5790
  2976  0045F6  0E1A               	movlw	26
  2977  0045F8  5C0B               	subwf	(??_toupper+2)^0,w,c
  2978  0045FA  A0D8               	btfss	status,0,c
  2979  0045FC  EF02  F023         	goto	u5791
  2980  004600  EF05  F023         	goto	u5790
  2981  004604                     u5791:
  2982  004604  0E01               	movlw	1
  2983  004606  EF06  F023         	goto	u5800
  2984  00460A                     u5790:
  2985  00460A  0E00               	movlw	0
  2986  00460C                     u5800:
  2987  00460C  6E0D               	movwf	_toupper$1070^0,c
  2988  00460E  6A0E               	clrf	(_toupper$1070+1)^0,c
  2989  004610  500D               	movf	_toupper$1070^0,w,c
  2990  004612  100E               	iorwf	(_toupper$1070+1)^0,w,c
  2991  004614  B4D8               	btfsc	status,2,c
  2992  004616  EF0F  F023         	goto	u5811
  2993  00461A  EF11  F023         	goto	u5810
  2994  00461E                     u5811:
  2995  00461E  EF17  F023         	goto	l1246
  2996  004622                     u5810:
  2997  004622  0E5F               	movlw	95
  2998  004624  1407               	andwf	toupper@c^0,w,c
  2999  004626  6E07               	movwf	?_toupper^0,c
  3000  004628  6A08               	clrf	(?_toupper+1)^0,c
  3001  00462A  EF1B  F023         	goto	l1251
  3002  00462E                     l1246:
  3003  00462E  C007  F007         	movff	toupper@c,?_toupper
  3004  004632  C008  F008         	movff	toupper@c+1,?_toupper+1
  3005  004636                     l1251:
  3006  004636  0012               	return		;funcret
  3007  004638                     __end_of_toupper:
  3008                           	callstack 0
  3009                           
  3010 ;; *************** function _islower *****************
  3011 ;; Defined at:
  3012 ;;		line 5 in file "C:\Program Files\Microchip\xc8\v2.32\pic\sources\c99\common\islower.c"
  3013 ;; Parameters:    Size  Location     Type
  3014 ;;  c               2    0[COMRAM] int 
  3015 ;; Auto vars:     Size  Location     Type
  3016 ;;		None
  3017 ;; Return value:  Size  Location     Type
  3018 ;;                  2    0[COMRAM] int 
  3019 ;; Registers used:
  3020 ;;		wreg, status,2, status,0
  3021 ;; Tracked objects:
  3022 ;;		On entry : 0/0
  3023 ;;		On exit  : 0/0
  3024 ;;		Unchanged: 0/0
  3025 ;; Data sizes:     COMRAM   BANK0   BANK1   BANK2   BANK3   BANK4   BANK5
  3026 ;;      Params:         2       0       0       0       0       0       0
  3027 ;;      Locals:         0       0       0       0       0       0       0
  3028 ;;      Temps:          4       0       0       0       0       0       0
  3029 ;;      Totals:         6       0       0       0       0       0       0
  3030 ;;Total ram usage:        6 bytes
  3031 ;; Hardware stack levels used: 1
  3032 ;; This function calls:
  3033 ;;		Nothing
  3034 ;; This function is called by:
  3035 ;;		_toupper
  3036 ;; This function uses a non-reentrant model
  3037 ;;
  3038                           
  3039                           	psect	text4
  3040  0047AC                     __ptext4:
  3041                           	callstack 0
  3042  0047AC                     _islower:
  3043                           	callstack 27
  3044  0047AC  0E9F               	movlw	159
  3045  0047AE  6E03               	movwf	??_islower^0,c
  3046  0047B0  0EFF               	movlw	255
  3047  0047B2  6E04               	movwf	(??_islower+1)^0,c
  3048  0047B4  C001  F005         	movff	islower@c,??_islower+2
  3049  0047B8  C002  F006         	movff	islower@c+1,??_islower+3
  3050  0047BC  5003               	movf	??_islower^0,w,c
  3051  0047BE  2605               	addwf	(??_islower+2)^0,f,c
  3052  0047C0  5004               	movf	(??_islower+1)^0,w,c
  3053  0047C2  2206               	addwfc	(??_islower+3)^0,f,c
  3054  0047C4  5006               	movf	(??_islower+3)^0,w,c
  3055  0047C6  E10A               	bnz	u5580
  3056  0047C8  0E1A               	movlw	26
  3057  0047CA  5C05               	subwf	(??_islower+2)^0,w,c
  3058  0047CC  A0D8               	btfss	status,0,c
  3059  0047CE  EFEB  F023         	goto	u5581
  3060  0047D2  EFEE  F023         	goto	u5580
  3061  0047D6                     u5581:
  3062  0047D6  0E01               	movlw	1
  3063  0047D8  EFEF  F023         	goto	u5590
  3064  0047DC                     u5580:
  3065  0047DC  0E00               	movlw	0
  3066  0047DE                     u5590:
  3067  0047DE  6E01               	movwf	?_islower^0,c
  3068  0047E0  6A02               	clrf	(?_islower+1)^0,c
  3069  0047E2  0012               	return		;funcret
  3070  0047E4                     __end_of_islower:
  3071                           	callstack 0
  3072                           
  3073 ;; *************** function _isalpha *****************
  3074 ;; Defined at:
  3075 ;;		line 5 in file "C:\Program Files\Microchip\xc8\v2.32\pic\sources\c99\common\isalpha.c"
  3076 ;; Parameters:    Size  Location     Type
  3077 ;;  c               2    0[COMRAM] int 
  3078 ;; Auto vars:     Size  Location     Type
  3079 ;;		None
  3080 ;; Return value:  Size  Location     Type
  3081 ;;                  2    0[COMRAM] int 
  3082 ;; Registers used:
  3083 ;;		wreg, status,2, status,0
  3084 ;; Tracked objects:
  3085 ;;		On entry : 0/0
  3086 ;;		On exit  : 0/0
  3087 ;;		Unchanged: 0/0
  3088 ;; Data sizes:     COMRAM   BANK0   BANK1   BANK2   BANK3   BANK4   BANK5
  3089 ;;      Params:         2       0       0       0       0       0       0
  3090 ;;      Locals:         0       0       0       0       0       0       0
  3091 ;;      Temps:          4       0       0       0       0       0       0
  3092 ;;      Totals:         6       0       0       0       0       0       0
  3093 ;;Total ram usage:        6 bytes
  3094 ;; Hardware stack levels used: 1
  3095 ;; This function calls:
  3096 ;;		Nothing
  3097 ;; This function is called by:
  3098 ;;		___strtoxl
  3099 ;; This function uses a non-reentrant model
  3100 ;;
  3101                           
  3102                           	psect	text5
  3103  004770                     __ptext5:
  3104                           	callstack 0
  3105  004770                     _isalpha:
  3106                           	callstack 28
  3107  004770  0E9F               	movlw	159
  3108  004772  6E03               	movwf	??_isalpha^0,c
  3109  004774  0EFF               	movlw	255
  3110  004776  6E04               	movwf	(??_isalpha+1)^0,c
  3111  004778  0E20               	movlw	32
  3112  00477A  1001               	iorwf	isalpha@c^0,w,c
  3113  00477C  6E05               	movwf	(??_isalpha+2)^0,c
  3114  00477E  0E00               	movlw	0
  3115  004780  1002               	iorwf	(isalpha@c+1)^0,w,c
  3116  004782  6E06               	movwf	(??_isalpha+3)^0,c
  3117  004784  5003               	movf	??_isalpha^0,w,c
  3118  004786  2605               	addwf	(??_isalpha+2)^0,f,c
  3119  004788  5004               	movf	(??_isalpha+1)^0,w,c
  3120  00478A  2206               	addwfc	(??_isalpha+3)^0,f,c
  3121  00478C  5006               	movf	(??_isalpha+3)^0,w,c
  3122  00478E  E10A               	bnz	u5770
  3123  004790  0E1A               	movlw	26
  3124  004792  5C05               	subwf	(??_isalpha+2)^0,w,c
  3125  004794  A0D8               	btfss	status,0,c
  3126  004796  EFCF  F023         	goto	u5771
  3127  00479A  EFD2  F023         	goto	u5770
  3128  00479E                     u5771:
  3129  00479E  0E01               	movlw	1
  3130  0047A0  EFD3  F023         	goto	u5780
  3131  0047A4                     u5770:
  3132  0047A4  0E00               	movlw	0
  3133  0047A6                     u5780:
  3134  0047A6  6E01               	movwf	?_isalpha^0,c
  3135  0047A8  6A02               	clrf	(?_isalpha+1)^0,c
  3136  0047AA  0012               	return		;funcret
  3137  0047AC                     __end_of_isalpha:
  3138                           	callstack 0
  3139                           
  3140 ;; *************** function ___lmul *****************
  3141 ;; Defined at:
  3142 ;;		line 15 in file "C:\Program Files\Microchip\xc8\v2.32\pic\sources\c99\common\Umul32.c"
  3143 ;; Parameters:    Size  Location     Type
  3144 ;;  multiplier      4    0[COMRAM] unsigned long 
  3145 ;;  multiplicand    4    4[COMRAM] unsigned long 
  3146 ;; Auto vars:     Size  Location     Type
  3147 ;;  product         4    8[COMRAM] unsigned long 
  3148 ;; Return value:  Size  Location     Type
  3149 ;;                  4    0[COMRAM] unsigned long 
  3150 ;; Registers used:
  3151 ;;		wreg, status,2, status,0
  3152 ;; Tracked objects:
  3153 ;;		On entry : 0/0
  3154 ;;		On exit  : 0/0
  3155 ;;		Unchanged: 0/0
  3156 ;; Data sizes:     COMRAM   BANK0   BANK1   BANK2   BANK3   BANK4   BANK5
  3157 ;;      Params:         8       0       0       0       0       0       0
  3158 ;;      Locals:         4       0       0       0       0       0       0
  3159 ;;      Temps:          0       0       0       0       0       0       0
  3160 ;;      Totals:        12       0       0       0       0       0       0
  3161 ;;Total ram usage:       12 bytes
  3162 ;; Hardware stack levels used: 1
  3163 ;; This function calls:
  3164 ;;		Nothing
  3165 ;; This function is called by:
  3166 ;;		___strtoxl
  3167 ;; This function uses a non-reentrant model
  3168 ;;
  3169                           
  3170                           	psect	text6
  3171  004446                     __ptext6:
  3172                           	callstack 0
  3173  004446                     ___lmul:
  3174                           	callstack 28
  3175  004446  0E00               	movlw	0
  3176  004448  6E09               	movwf	___lmul@product^0,c
  3177  00444A  0E00               	movlw	0
  3178  00444C  6E0A               	movwf	(___lmul@product+1)^0,c
  3179  00444E  0E00               	movlw	0
  3180  004450  6E0B               	movwf	(___lmul@product+2)^0,c
  3181  004452  0E00               	movlw	0
  3182  004454  6E0C               	movwf	(___lmul@product+3)^0,c
  3183  004456                     l4456:
  3184  004456  A001               	btfss	___lmul@multiplier^0,0,c
  3185  004458  EF30  F022         	goto	u5601
  3186  00445C  EF32  F022         	goto	u5600
  3187  004460                     u5601:
  3188  004460  EF3A  F022         	goto	l4460
  3189  004464                     u5600:
  3190  004464  5005               	movf	___lmul@multiplicand^0,w,c
  3191  004466  2609               	addwf	___lmul@product^0,f,c
  3192  004468  5006               	movf	(___lmul@multiplicand+1)^0,w,c
  3193  00446A  220A               	addwfc	(___lmul@product+1)^0,f,c
  3194  00446C  5007               	movf	(___lmul@multiplicand+2)^0,w,c
  3195  00446E  220B               	addwfc	(___lmul@product+2)^0,f,c
  3196  004470  5008               	movf	(___lmul@multiplicand+3)^0,w,c
  3197  004472  220C               	addwfc	(___lmul@product+3)^0,f,c
  3198  004474                     l4460:
  3199  004474  90D8               	bcf	status,0,c
  3200  004476  3605               	rlcf	___lmul@multiplicand^0,f,c
  3201  004478  3606               	rlcf	(___lmul@multiplicand+1)^0,f,c
  3202  00447A  3607               	rlcf	(___lmul@multiplicand+2)^0,f,c
  3203  00447C  3608               	rlcf	(___lmul@multiplicand+3)^0,f,c
  3204  00447E  90D8               	bcf	status,0,c
  3205  004480  3204               	rrcf	(___lmul@multiplier+3)^0,f,c
  3206  004482  3203               	rrcf	(___lmul@multiplier+2)^0,f,c
  3207  004484  3202               	rrcf	(___lmul@multiplier+1)^0,f,c
  3208  004486  3201               	rrcf	___lmul@multiplier^0,f,c
  3209  004488  5001               	movf	___lmul@multiplier^0,w,c
  3210  00448A  1002               	iorwf	(___lmul@multiplier+1)^0,w,c
  3211  00448C  1003               	iorwf	(___lmul@multiplier+2)^0,w,c
  3212  00448E  1004               	iorwf	(___lmul@multiplier+3)^0,w,c
  3213  004490  A4D8               	btfss	status,2,c
  3214  004492  EF4D  F022         	goto	u5611
  3215  004496  EF4F  F022         	goto	u5610
  3216  00449A                     u5611:
  3217  00449A  EF2B  F022         	goto	l4456
  3218  00449E                     u5610:
  3219  00449E  C009  F001         	movff	___lmul@product,?___lmul
  3220  0044A2  C00A  F002         	movff	___lmul@product+1,?___lmul+1
  3221  0044A6  C00B  F003         	movff	___lmul@product+2,?___lmul+2
  3222  0044AA  C00C  F004         	movff	___lmul@product+3,?___lmul+3
  3223  0044AE  0012               	return		;funcret
  3224  0044B0                     __end_of___lmul:
  3225                           	callstack 0
  3226                           
  3227 ;; *************** function _printf *****************
  3228 ;; Defined at:
  3229 ;;		line 5 in file "C:\Program Files\Microchip\xc8\v2.32\pic\sources\c99\common\printf.c"
  3230 ;; Parameters:    Size  Location     Type
  3231 ;;  fmt             2   18[BANK0 ] PTR const unsigned char 
  3232 ;;		 -> STR_17(5), STR_13(5), STR_9(5), STR_5(5), 
  3233 ;;		 -> STR_1(3), 
  3234 ;; Auto vars:     Size  Location     Type
  3235 ;;  ap              2  125[COMRAM] PTR void [1]
  3236 ;;		 -> ?_printf(2), 
  3237 ;;  ret             2    0        int 
  3238 ;; Return value:  Size  Location     Type
  3239 ;;                  2   18[BANK0 ] int 
  3240 ;; Registers used:
  3241 ;;		wreg, fsr1l, fsr1h, fsr2l, fsr2h, status,2, status,0, tblptrl, tblptrh, tblptru, prodl, prodh, cstack
  3242 ;; Tracked objects:
  3243 ;;		On entry : 0/0
  3244 ;;		On exit  : 0/0
  3245 ;;		Unchanged: 0/0
  3246 ;; Data sizes:     COMRAM   BANK0   BANK1   BANK2   BANK3   BANK4   BANK5
  3247 ;;      Params:         0       6       0       0       0       0       0
  3248 ;;      Locals:         2       0       0       0       0       0       0
  3249 ;;      Temps:          0       0       0       0       0       0       0
  3250 ;;      Totals:         2       6       0       0       0       0       0
  3251 ;;Total ram usage:        8 bytes
  3252 ;; Hardware stack levels used: 1
  3253 ;; Hardware stack levels required when called: 9
  3254 ;; This function calls:
  3255 ;;		_vfprintf
  3256 ;; This function is called by:
  3257 ;;		_main
  3258 ;; This function uses a non-reentrant model
  3259 ;;
  3260                           
  3261                           	psect	text7
  3262  00491E                     __ptext7:
  3263                           	callstack 0
  3264  00491E                     _printf:
  3265                           	callstack 21
  3266  00491E  0E94               	movlw	low (?_printf+2)
  3267  004920  6E7E               	movwf	printf@ap^0,c
  3268  004922  0E00               	movlw	high (?_printf+2)
  3269  004924  6E7F               	movwf	(printf@ap+1)^0,c
  3270  004926  0E00               	movlw	0
  3271  004928  0100               	movlb	0	; () banked
  3272  00492A  6F8C               	movwf	vfprintf@fp& (0+255),b
  3273  00492C  0E00               	movlw	0
  3274  00492E  6F8D               	movwf	(vfprintf@fp+1)& (0+255),b
  3275  004930  C092  F08E         	movff	printf@fmt,vfprintf@fmt
  3276  004934  C093  F08F         	movff	printf@fmt+1,vfprintf@fmt+1
  3277  004938  0E7E               	movlw	low printf@ap
  3278  00493A  6F90               	movwf	vfprintf@ap& (0+255),b
  3279  00493C  0E00               	movlw	high printf@ap
  3280  00493E  6F91               	movwf	(vfprintf@ap+1)& (0+255),b
  3281  004940  EC8C  F022         	call	_vfprintf	;wreg free
  3282  004944  0012               	return		;funcret
  3283  004946                     __end_of_printf:
  3284                           	callstack 0
  3285                           
  3286 ;; *************** function _vfprintf *****************
  3287 ;; Defined at:
  3288 ;;		line 1390 in file "C:\Program Files\Microchip\xc8\v2.32\pic\sources\c99\common\doprnt.c"
  3289 ;; Parameters:    Size  Location     Type
  3290 ;;  fp              2   12[BANK0 ] PTR struct _IO_FILE
  3291 ;;		 -> NULL(0), 
  3292 ;;  fmt             2   14[BANK0 ] PTR const unsigned char 
  3293 ;;		 -> STR_17(5), STR_13(5), STR_9(5), STR_5(5), 
  3294 ;;		 -> STR_1(3), 
  3295 ;;  ap              2   16[BANK0 ] PTR PTR void 
  3296 ;;		 -> printf@ap(2), 
  3297 ;; Auto vars:     Size  Location     Type
  3298 ;;  cfmt            2  123[COMRAM] PTR unsigned char 
  3299 ;;		 -> STR_17(5), STR_13(5), STR_9(5), STR_5(5), 
  3300 ;;		 -> STR_1(3), 
  3301 ;; Return value:  Size  Location     Type
  3302 ;;                  2   12[BANK0 ] int 
  3303 ;; Registers used:
  3304 ;;		wreg, fsr1l, fsr1h, fsr2l, fsr2h, status,2, status,0, tblptrl, tblptrh, tblptru, prodl, prodh, cstack
  3305 ;; Tracked objects:
  3306 ;;		On entry : 0/0
  3307 ;;		On exit  : 0/0
  3308 ;;		Unchanged: 0/0
  3309 ;; Data sizes:     COMRAM   BANK0   BANK1   BANK2   BANK3   BANK4   BANK5
  3310 ;;      Params:         0       6       0       0       0       0       0
  3311 ;;      Locals:         2       0       0       0       0       0       0
  3312 ;;      Temps:          0       0       0       0       0       0       0
  3313 ;;      Totals:         2       6       0       0       0       0       0
  3314 ;;Total ram usage:        8 bytes
  3315 ;; Hardware stack levels used: 1
  3316 ;; Hardware stack levels required when called: 8
  3317 ;; This function calls:
  3318 ;;		_vfpfcnvrt
  3319 ;; This function is called by:
  3320 ;;		_printf
  3321 ;; This function uses a non-reentrant model
  3322 ;;
  3323                           
  3324                           	psect	text8
  3325  004518                     __ptext8:
  3326                           	callstack 0
  3327  004518                     _vfprintf:
  3328                           	callstack 21
  3329  004518                     
  3330                           ;C:\Program Files\Microchip\xc8\v2.32\pic\sources\c99\common\doprnt.c: 1390: int vfprint
      +                          f(FILE *fp, const char *fmt, va_list ap);C:\Program Files\Microchip\xc8\v2.32\pic\source
      +                          s\c99\common\doprnt.c: 1391: {;C:\Program Files\Microchip\xc8\v2.32\pic\sources\c99\comm
      +                          on\doprnt.c: 1393:     char *cfmt;;C:\Program Files\Microchip\xc8\v2.32\pic\sources\c99\
      +                          common\doprnt.c: 1395:     cfmt = (char *)fmt;
  3331  004518  C08E  F07C         	movff	vfprintf@fmt,vfprintf@cfmt
  3332  00451C  C08F  F07D         	movff	vfprintf@fmt+1,vfprintf@cfmt+1
  3333  004520                     
  3334                           ;C:\Program Files\Microchip\xc8\v2.32\pic\sources\c99\common\doprnt.c: 1396:     nout = 
      +                          0;
  3335  004520  0E00               	movlw	0
  3336  004522  0100               	movlb	0	; () banked
  3337  004524  6FEB               	movwf	(_nout+1)& (0+255),b
  3338  004526  0E00               	movlw	0
  3339  004528  6FEA               	movwf	_nout& (0+255),b
  3340                           
  3341                           ;C:\Program Files\Microchip\xc8\v2.32\pic\sources\c99\common\doprnt.c: 1397:     while (
      +                          *cfmt) {
  3342  00452A  EFAA  F022         	goto	l4696
  3343  00452E                     l4694:
  3344                           
  3345                           ; BSR set to: 0
  3346                           ;C:\Program Files\Microchip\xc8\v2.32\pic\sources\c99\common\doprnt.c: 1398:         nou
      +                          t += vfpfcnvrt(fp, &cfmt, ap);
  3347  00452E  C08C  F072         	movff	vfprintf@fp,vfpfcnvrt@fp
  3348  004532  C08D  F073         	movff	vfprintf@fp+1,vfpfcnvrt@fp+1
  3349  004536  0E7C               	movlw	low vfprintf@cfmt
  3350  004538  6E74               	movwf	vfpfcnvrt@fmt^0,c
  3351  00453A  0E00               	movlw	high vfprintf@cfmt
  3352  00453C  6E75               	movwf	(vfpfcnvrt@fmt+1)^0,c
  3353  00453E  C090  F076         	movff	vfprintf@ap,vfpfcnvrt@ap
  3354  004542  C091  F077         	movff	vfprintf@ap+1,vfpfcnvrt@ap+1
  3355  004546  EC1D  F00E         	call	_vfpfcnvrt	;wreg free
  3356  00454A  5072               	movf	?_vfpfcnvrt^0,w,c
  3357  00454C  0100               	movlb	0	; () banked
  3358  00454E  27EA               	addwf	_nout& (0+255),f,b
  3359  004550  5073               	movf	(?_vfpfcnvrt+1)^0,w,c
  3360  004552  23EB               	addwfc	(_nout+1)& (0+255),f,b
  3361  004554                     l4696:
  3362                           
  3363                           ; BSR set to: 0
  3364                           ;C:\Program Files\Microchip\xc8\v2.32\pic\sources\c99\common\doprnt.c: 1397:     while (
      +                          *cfmt) {
  3365  004554  C07C  FFF6         	movff	vfprintf@cfmt,tblptrl
  3366  004558  C07D  FFF7         	movff	vfprintf@cfmt+1,tblptrh
  3367  00455C                     	if	0	;tblptru may be non-zero
  3368  00455C                     	endif
  3369  00455C                     	if	0	;tblptru may be non-zero
  3370  00455C                     	endif
  3371  00455C  0008               	tblrd		*
  3372  00455E  50F5               	movf	tablat,w,c
  3373  004560  0900               	iorlw	0
  3374  004562  A4D8               	btfss	status,2,c
  3375  004564  EFB6  F022         	goto	u6141
  3376  004568  EFB8  F022         	goto	u6140
  3377  00456C                     u6141:
  3378  00456C  EF97  F022         	goto	l4694
  3379  004570                     u6140:
  3380  004570                     
  3381                           ; BSR set to: 0
  3382                           ;C:\Program Files\Microchip\xc8\v2.32\pic\sources\c99\common\doprnt.c: 1400:     return 
      +                          nout;
  3383  004570  C0EA  F08C         	movff	_nout,?_vfprintf
  3384  004574  C0EB  F08D         	movff	_nout+1,?_vfprintf+1
  3385  004578                     
  3386                           ; BSR set to: 0
  3387  004578  0012               	return		;funcret
  3388  00457A                     __end_of_vfprintf:
  3389                           	callstack 0
  3390                           
  3391 ;; *************** function _vfpfcnvrt *****************
  3392 ;; Defined at:
  3393 ;;		line 692 in file "C:\Program Files\Microchip\xc8\v2.32\pic\sources\c99\common\doprnt.c"
  3394 ;; Parameters:    Size  Location     Type
  3395 ;;  fp              2  113[COMRAM] PTR struct _IO_FILE
  3396 ;;		 -> NULL(0), 
  3397 ;;  fmt             2  115[COMRAM] PTR PTR unsigned char 
  3398 ;;		 -> vfprintf@cfmt(2), 
  3399 ;;  ap              2  117[COMRAM] PTR PTR void 
  3400 ;;		 -> printf@ap(2), 
  3401 ;; Auto vars:     Size  Location     Type
  3402 ;;  llu             8    0        unsigned long long 
  3403 ;;  ll              8    0        long long 
  3404 ;;  f               4    4[BANK0 ] long long 
  3405 ;;  ct              3    8[BANK0 ] unsigned char [3]
  3406 ;;  vp              3    0        PTR void 
  3407 ;;  cp              3    0        PTR unsigned char 
  3408 ;;  i               2    0        int 
  3409 ;;  done            2    0        int 
  3410 ;;  c               1   11[BANK0 ] unsigned char 
  3411 ;; Return value:  Size  Location     Type
  3412 ;;                  2  113[COMRAM] int 
  3413 ;; Registers used:
  3414 ;;		wreg, fsr1l, fsr1h, fsr2l, fsr2h, status,2, status,0, tblptrl, tblptrh, tblptru, prodl, prodh, cstack
  3415 ;; Tracked objects:
  3416 ;;		On entry : 0/0
  3417 ;;		On exit  : 0/0
  3418 ;;		Unchanged: 0/0
  3419 ;; Data sizes:     COMRAM   BANK0   BANK1   BANK2   BANK3   BANK4   BANK5
  3420 ;;      Params:         6       0       0       0       0       0       0
  3421 ;;      Locals:         0      12       0       0       0       0       0
  3422 ;;      Temps:          4       0       0       0       0       0       0
  3423 ;;      Totals:        10      12       0       0       0       0       0
  3424 ;;Total ram usage:       22 bytes
  3425 ;; Hardware stack levels used: 1
  3426 ;; Hardware stack levels required when called: 7
  3427 ;; This function calls:
  3428 ;;		_atoi
  3429 ;;		_ctoa
  3430 ;;		_efgtoa
  3431 ;;		_fputc
  3432 ;;		_isdigit
  3433 ;;		_isupper
  3434 ;;		_strncmp
  3435 ;;		_tolower
  3436 ;; This function is called by:
  3437 ;;		_vfprintf
  3438 ;; This function uses a non-reentrant model
  3439 ;;
  3440                           
  3441                           	psect	text9
  3442  001C3A                     __ptext9:
  3443                           	callstack 0
  3444  001C3A                     _vfpfcnvrt:
  3445                           	callstack 21
  3446  001C3A                     
  3447                           ;C:\Program Files\Microchip\xc8\v2.32\pic\sources\c99\common\doprnt.c: 692: static int v
      +                          fpfcnvrt(FILE *fp, char *fmt[], va_list ap);C:\Program Files\Microchip\xc8\v2.32\pic\sou
      +                          rces\c99\common\doprnt.c: 693: {;C:\Program Files\Microchip\xc8\v2.32\pic\sources\c99\co
      +                          mmon\doprnt.c: 694:     char c, *cp, ct[3];;C:\Program Files\Microchip\xc8\v2.32\pic\sou
      +                          rces\c99\common\doprnt.c: 695:     int done, i;;C:\Program Files\Microchip\xc8\v2.32\pic
      +                          \sources\c99\common\doprnt.c: 696:     long long ll;;C:\Program Files\Microchip\xc8\v2.3
      +                          2\pic\sources\c99\common\doprnt.c: 697:     unsigned long long llu;
  3448  001C3A  C074  FFD9         	movff	vfpfcnvrt@fmt,fsr2l
  3449  001C3E  C075  FFDA         	movff	vfpfcnvrt@fmt+1,fsr2h
  3450  001C42  CFDE FFF6          	movff	postinc2,tblptrl
  3451  001C46  CFDD FFF7          	movff	postdec2,tblptrh
  3452  001C4A                     	if	0	;tblptru may be non-zero
  3453  001C4A                     	endif
  3454  001C4A                     	if	0	;tblptru may be non-zero
  3455  001C4A                     	endif
  3456  001C4A  0008               	tblrd		*
  3457  001C4C  50F5               	movf	tablat,w,c
  3458  001C4E  0A25               	xorlw	37
  3459  001C50  A4D8               	btfss	status,2,c
  3460  001C52  EF2D  F00E         	goto	u5621
  3461  001C56  EF2F  F00E         	goto	u5620
  3462  001C5A                     u5621:
  3463  001C5A  EF83  F010         	goto	l4554
  3464  001C5E                     u5620:
  3465  001C5E                     
  3466                           ;C:\Program Files\Microchip\xc8\v2.32\pic\sources\c99\common\doprnt.c: 703:         ++*f
      +                          mt;
  3467  001C5E  C074  FFD9         	movff	vfpfcnvrt@fmt,fsr2l
  3468  001C62  C075  FFDA         	movff	vfpfcnvrt@fmt+1,fsr2h
  3469  001C66  2ADE               	incf	postinc2,f,c
  3470  001C68  0E00               	movlw	0
  3471  001C6A  22DD               	addwfc	postdec2,f,c
  3472  001C6C                     
  3473                           ;C:\Program Files\Microchip\xc8\v2.32\pic\sources\c99\common\doprnt.c: 705:         flag
      +                          s = width = 0;
  3474  001C6C  0E00               	movlw	0
  3475  001C6E  0100               	movlb	0	; () banked
  3476  001C70  6FED               	movwf	(_width+1)& (0+255),b
  3477  001C72  0E00               	movlw	0
  3478  001C74  6FEC               	movwf	_width& (0+255),b
  3479  001C76  C0EC  F0F0         	movff	_width,_flags
  3480  001C7A  C0ED  F0F1         	movff	_width+1,_flags+1
  3481  001C7E                     
  3482                           ; BSR set to: 0
  3483                           ;C:\Program Files\Microchip\xc8\v2.32\pic\sources\c99\common\doprnt.c: 706:         prec
      +                           = -1;
  3484  001C7E  69EE               	setf	_prec& (0+255),b
  3485  001C80  69EF               	setf	(_prec+1)& (0+255),b
  3486  001C82                     
  3487                           ; BSR set to: 0
  3488                           ;C:\Program Files\Microchip\xc8\v2.32\pic\sources\c99\common\doprnt.c: 762:         if (
      +                          (*fmt)[0] == '.') {
  3489  001C82  C074  FFD9         	movff	vfpfcnvrt@fmt,fsr2l
  3490  001C86  C075  FFDA         	movff	vfpfcnvrt@fmt+1,fsr2h
  3491  001C8A  CFDE FFF6          	movff	postinc2,tblptrl
  3492  001C8E  CFDD FFF7          	movff	postdec2,tblptrh
  3493  001C92                     	if	0	;tblptru may be non-zero
  3494  001C92                     	endif
  3495  001C92                     	if	0	;tblptru may be non-zero
  3496  001C92                     	endif
  3497  001C92  0008               	tblrd		*
  3498  001C94  50F5               	movf	tablat,w,c
  3499  001C96  0A2E               	xorlw	46
  3500  001C98  A4D8               	btfss	status,2,c
  3501  001C9A  EF51  F00E         	goto	u5631
  3502  001C9E  EF53  F00E         	goto	u5630
  3503  001CA2                     u5631:
  3504  001CA2  EFD1  F00E         	goto	l4492
  3505  001CA6                     u5630:
  3506  001CA6                     
  3507                           ; BSR set to: 0
  3508                           ;C:\Program Files\Microchip\xc8\v2.32\pic\sources\c99\common\doprnt.c: 763:             
      +                          prec = 0;
  3509  001CA6  0E00               	movlw	0
  3510  001CA8  6FEF               	movwf	(_prec+1)& (0+255),b
  3511  001CAA  0E00               	movlw	0
  3512  001CAC  6FEE               	movwf	_prec& (0+255),b
  3513  001CAE                     
  3514                           ; BSR set to: 0
  3515                           ;C:\Program Files\Microchip\xc8\v2.32\pic\sources\c99\common\doprnt.c: 764:             
      +                          ++*fmt;
  3516  001CAE  C074  FFD9         	movff	vfpfcnvrt@fmt,fsr2l
  3517  001CB2  C075  FFDA         	movff	vfpfcnvrt@fmt+1,fsr2h
  3518  001CB6  2ADE               	incf	postinc2,f,c
  3519  001CB8  0E00               	movlw	0
  3520  001CBA  22DD               	addwfc	postdec2,f,c
  3521  001CBC                     
  3522                           ; BSR set to: 0
  3523                           ;C:\Program Files\Microchip\xc8\v2.32\pic\sources\c99\common\doprnt.c: 765:             
      +                          if ((*fmt)[0] == '*') {
  3524  001CBC  C074  FFD9         	movff	vfpfcnvrt@fmt,fsr2l
  3525  001CC0  C075  FFDA         	movff	vfpfcnvrt@fmt+1,fsr2h
  3526  001CC4  CFDE FFF6          	movff	postinc2,tblptrl
  3527  001CC8  CFDD FFF7          	movff	postdec2,tblptrh
  3528  001CCC                     	if	0	;tblptru may be non-zero
  3529  001CCC                     	endif
  3530  001CCC                     	if	0	;tblptru may be non-zero
  3531  001CCC                     	endif
  3532  001CCC  0008               	tblrd		*
  3533  001CCE  50F5               	movf	tablat,w,c
  3534  001CD0  0A2A               	xorlw	42
  3535  001CD2  A4D8               	btfss	status,2,c
  3536  001CD4  EF6E  F00E         	goto	u5641
  3537  001CD8  EF70  F00E         	goto	u5640
  3538  001CDC                     u5641:
  3539  001CDC  EF8D  F00E         	goto	l4482
  3540  001CE0                     u5640:
  3541  001CE0                     
  3542                           ; BSR set to: 0
  3543                           ;C:\Program Files\Microchip\xc8\v2.32\pic\sources\c99\common\doprnt.c: 766:             
      +                              ++*fmt;
  3544  001CE0  C074  FFD9         	movff	vfpfcnvrt@fmt,fsr2l
  3545  001CE4  C075  FFDA         	movff	vfpfcnvrt@fmt+1,fsr2h
  3546  001CE8  2ADE               	incf	postinc2,f,c
  3547  001CEA  0E00               	movlw	0
  3548  001CEC  22DD               	addwfc	postdec2,f,c
  3549                           
  3550                           ;C:\Program Files\Microchip\xc8\v2.32\pic\sources\c99\common\doprnt.c: 767:             
      +                              prec = (*(int *)__va_arg(*(int **)ap, (int)0));
  3551  001CEE  C076  FFD9         	movff	vfpfcnvrt@ap,fsr2l
  3552  001CF2  C077  FFDA         	movff	vfpfcnvrt@ap+1,fsr2h
  3553  001CF6  CFDF F078          	movff	indf2,??_vfpfcnvrt
  3554  001CFA  0E02               	movlw	2
  3555  001CFC  26DE               	addwf	postinc2,f,c
  3556  001CFE  CFDF F079          	movff	indf2,??_vfpfcnvrt+1
  3557  001D02  0E00               	movlw	0
  3558  001D04  22DD               	addwfc	postdec2,f,c
  3559  001D06  C078  FFD9         	movff	??_vfpfcnvrt,fsr2l
  3560  001D0A  C079  FFDA         	movff	??_vfpfcnvrt+1,fsr2h
  3561  001D0E  CFDE F0EE          	movff	postinc2,_prec
  3562  001D12  CFDD F0EF          	movff	postdec2,_prec+1
  3563                           
  3564                           ;C:\Program Files\Microchip\xc8\v2.32\pic\sources\c99\common\doprnt.c: 768:             
      +                          } else {
  3565  001D16  EFD1  F00E         	goto	l4492
  3566  001D1A                     l4482:
  3567                           
  3568                           ; BSR set to: 0
  3569                           ;C:\Program Files\Microchip\xc8\v2.32\pic\sources\c99\common\doprnt.c: 769:             
      +                              prec = atoi(*fmt);
  3570  001D1A  C074  FFD9         	movff	vfpfcnvrt@fmt,fsr2l
  3571  001D1E  C075  FFDA         	movff	vfpfcnvrt@fmt+1,fsr2h
  3572  001D22  CFDE F008          	movff	postinc2,atoi@s
  3573  001D26  CFDD F009          	movff	postdec2,atoi@s+1
  3574  001D2A  EC7E  F01C         	call	_atoi	;wreg free
  3575  001D2E  C008  F0EE         	movff	?_atoi,_prec
  3576  001D32  C009  F0EF         	movff	?_atoi+1,_prec+1
  3577                           
  3578                           ;C:\Program Files\Microchip\xc8\v2.32\pic\sources\c99\common\doprnt.c: 770:             
      +                              while ((0 ? isdigit((*fmt)[0]) : ((unsigned)((*fmt)[0])-'0') < 10)) {
  3579  001D36  EFA4  F00E         	goto	l4486
  3580  001D3A                     l4484:
  3581                           
  3582                           ; BSR set to: 0
  3583                           ;C:\Program Files\Microchip\xc8\v2.32\pic\sources\c99\common\doprnt.c: 771:             
      +                                  ++*fmt;
  3584  001D3A  C074  FFD9         	movff	vfpfcnvrt@fmt,fsr2l
  3585  001D3E  C075  FFDA         	movff	vfpfcnvrt@fmt+1,fsr2h
  3586  001D42  2ADE               	incf	postinc2,f,c
  3587  001D44  0E00               	movlw	0
  3588  001D46  22DD               	addwfc	postdec2,f,c
  3589  001D48                     l4486:
  3590  001D48  0ED0               	movlw	208
  3591  001D4A  6E78               	movwf	??_vfpfcnvrt^0,c
  3592  001D4C  0EFF               	movlw	255
  3593  001D4E  6E79               	movwf	(??_vfpfcnvrt+1)^0,c
  3594  001D50  C074  FFD9         	movff	vfpfcnvrt@fmt,fsr2l
  3595  001D54  C075  FFDA         	movff	vfpfcnvrt@fmt+1,fsr2h
  3596  001D58  CFDE FFF6          	movff	postinc2,tblptrl
  3597  001D5C  CFDD FFF7          	movff	postdec2,tblptrh
  3598  001D60                     	if	0	;tblptru may be non-zero
  3599  001D60                     	endif
  3600  001D60                     	if	0	;tblptru may be non-zero
  3601  001D60                     	endif
  3602  001D60  0008               	tblrd		*
  3603  001D62  50F5               	movf	tablat,w,c
  3604  001D64  6E7A               	movwf	(??_vfpfcnvrt+2)^0,c
  3605  001D66  6A7B               	clrf	(??_vfpfcnvrt+3)^0,c
  3606  001D68  5078               	movf	??_vfpfcnvrt^0,w,c
  3607  001D6A  267A               	addwf	(??_vfpfcnvrt+2)^0,f,c
  3608  001D6C  5079               	movf	(??_vfpfcnvrt+1)^0,w,c
  3609  001D6E  227B               	addwfc	(??_vfpfcnvrt+3)^0,f,c
  3610  001D70  507B               	movf	(??_vfpfcnvrt+3)^0,w,c
  3611  001D72  E10A               	bnz	u5650
  3612  001D74  0E0A               	movlw	10
  3613  001D76  5C7A               	subwf	(??_vfpfcnvrt+2)^0,w,c
  3614  001D78  A0D8               	btfss	status,0,c
  3615  001D7A  EFC1  F00E         	goto	u5651
  3616  001D7E  EFC4  F00E         	goto	u5650
  3617  001D82                     u5651:
  3618  001D82  0E01               	movlw	1
  3619  001D84  EFC5  F00E         	goto	u5660
  3620  001D88                     u5650:
  3621  001D88  0E00               	movlw	0
  3622  001D8A                     u5660:
  3623  001D8A  0100               	movlb	0	; () banked
  3624  001D8C  6F80               	movwf	_vfpfcnvrt$873& (0+255),b
  3625  001D8E  6B81               	clrf	(_vfpfcnvrt$873+1)& (0+255),b
  3626  001D90                     
  3627                           ; BSR set to: 0
  3628  001D90  5180               	movf	_vfpfcnvrt$873& (0+255),w,b
  3629  001D92  1181               	iorwf	(_vfpfcnvrt$873+1)& (0+255),w,b
  3630  001D94  A4D8               	btfss	status,2,c
  3631  001D96  EFCF  F00E         	goto	u5671
  3632  001D9A  EFD1  F00E         	goto	u5670
  3633  001D9E                     u5671:
  3634  001D9E  EF9D  F00E         	goto	l4484
  3635  001DA2                     u5670:
  3636  001DA2                     l4492:
  3637                           
  3638                           ; BSR set to: 0
  3639                           ;C:\Program Files\Microchip\xc8\v2.32\pic\sources\c99\common\doprnt.c: 779:         ct[0
      +                          ] = (char)tolower((int)(*fmt)[0]);
  3640  001DA2  C074  FFD9         	movff	vfpfcnvrt@fmt,fsr2l
  3641  001DA6  C075  FFDA         	movff	vfpfcnvrt@fmt+1,fsr2h
  3642  001DAA  CFDE FFF6          	movff	postinc2,tblptrl
  3643  001DAE  CFDD FFF7          	movff	postdec2,tblptrh
  3644  001DB2                     	if	0	;tblptru may be non-zero
  3645  001DB2                     	endif
  3646  001DB2                     	if	0	;tblptru may be non-zero
  3647  001DB2                     	endif
  3648  001DB2  0008               	tblrd		*
  3649  001DB4  50F5               	movf	tablat,w,c
  3650  001DB6  6E07               	movwf	tolower@c^0,c
  3651  001DB8  6A08               	clrf	(tolower@c+1)^0,c
  3652  001DBA  ECBD  F022         	call	_tolower	;wreg free
  3653  001DBE  5007               	movf	?_tolower^0,w,c
  3654  001DC0  0100               	movlb	0	; () banked
  3655  001DC2  6F88               	movwf	vfpfcnvrt@ct& (0+255),b
  3656  001DC4                     
  3657                           ; BSR set to: 0
  3658                           ;C:\Program Files\Microchip\xc8\v2.32\pic\sources\c99\common\doprnt.c: 780:         if (
      +                          ct[0]) {
  3659  001DC4  5188               	movf	vfpfcnvrt@ct& (0+255),w,b
  3660  001DC6  B4D8               	btfsc	status,2,c
  3661  001DC8  EFE8  F00E         	goto	u5681
  3662  001DCC  EFEA  F00E         	goto	u5680
  3663  001DD0                     u5681:
  3664  001DD0  EF24  F00F         	goto	l4502
  3665  001DD4                     u5680:
  3666  001DD4                     
  3667                           ; BSR set to: 0
  3668                           ;C:\Program Files\Microchip\xc8\v2.32\pic\sources\c99\common\doprnt.c: 781:             
      +                          ct[1] = (char)tolower((int)(*fmt)[1]);
  3669  001DD4  C074  FFD9         	movff	vfpfcnvrt@fmt,fsr2l
  3670  001DD8  C075  FFDA         	movff	vfpfcnvrt@fmt+1,fsr2h
  3671  001DDC  CFDE F078          	movff	postinc2,??_vfpfcnvrt
  3672  001DE0  CFDD F079          	movff	postdec2,??_vfpfcnvrt+1
  3673  001DE4  0E01               	movlw	1
  3674  001DE6  2678               	addwf	??_vfpfcnvrt^0,f,c
  3675  001DE8  0E00               	movlw	0
  3676  001DEA  2279               	addwfc	(??_vfpfcnvrt+1)^0,f,c
  3677  001DEC  C078  FFF6         	movff	??_vfpfcnvrt,tblptrl
  3678  001DF0  C079  FFF7         	movff	??_vfpfcnvrt+1,tblptrh
  3679  001DF4                     	if	0	;tblptru may be non-zero
  3680  001DF4                     	endif
  3681  001DF4                     	if	0	;tblptru may be non-zero
  3682  001DF4                     	endif
  3683  001DF4  0008               	tblrd		*
  3684  001DF6  50F5               	movf	tablat,w,c
  3685  001DF8  6E07               	movwf	tolower@c^0,c
  3686  001DFA  6A08               	clrf	(tolower@c+1)^0,c
  3687  001DFC  ECBD  F022         	call	_tolower	;wreg free
  3688  001E00  5007               	movf	?_tolower^0,w,c
  3689  001E02  0100               	movlb	0	; () banked
  3690  001E04  6F89               	movwf	(vfpfcnvrt@ct+1)& (0+255),b
  3691  001E06                     
  3692                           ; BSR set to: 0
  3693                           ;C:\Program Files\Microchip\xc8\v2.32\pic\sources\c99\common\doprnt.c: 782:             
      +                          if (ct[1]) {
  3694  001E06  5189               	movf	(vfpfcnvrt@ct+1)& (0+255),w,b
  3695  001E08  B4D8               	btfsc	status,2,c
  3696  001E0A  EF09  F00F         	goto	u5691
  3697  001E0E  EF0B  F00F         	goto	u5690
  3698  001E12                     u5691:
  3699  001E12  EF24  F00F         	goto	l4502
  3700  001E16                     u5690:
  3701  001E16                     
  3702                           ; BSR set to: 0
  3703                           ;C:\Program Files\Microchip\xc8\v2.32\pic\sources\c99\common\doprnt.c: 783:             
      +                              ct[2] = (char)tolower((int)(*fmt)[2]);
  3704  001E16  C074  FFD9         	movff	vfpfcnvrt@fmt,fsr2l
  3705  001E1A  C075  FFDA         	movff	vfpfcnvrt@fmt+1,fsr2h
  3706  001E1E  CFDE F078          	movff	postinc2,??_vfpfcnvrt
  3707  001E22  CFDD F079          	movff	postdec2,??_vfpfcnvrt+1
  3708  001E26  0E02               	movlw	2
  3709  001E28  2678               	addwf	??_vfpfcnvrt^0,f,c
  3710  001E2A  0E00               	movlw	0
  3711  001E2C  2279               	addwfc	(??_vfpfcnvrt+1)^0,f,c
  3712  001E2E  C078  FFF6         	movff	??_vfpfcnvrt,tblptrl
  3713  001E32  C079  FFF7         	movff	??_vfpfcnvrt+1,tblptrh
  3714  001E36                     	if	0	;tblptru may be non-zero
  3715  001E36                     	endif
  3716  001E36                     	if	0	;tblptru may be non-zero
  3717  001E36                     	endif
  3718  001E36  0008               	tblrd		*
  3719  001E38  50F5               	movf	tablat,w,c
  3720  001E3A  6E07               	movwf	tolower@c^0,c
  3721  001E3C  6A08               	clrf	(tolower@c+1)^0,c
  3722  001E3E  ECBD  F022         	call	_tolower	;wreg free
  3723  001E42  5007               	movf	?_tolower^0,w,c
  3724  001E44  0100               	movlb	0	; () banked
  3725  001E46  6F8A               	movwf	(vfpfcnvrt@ct+2)& (0+255),b
  3726  001E48                     l4502:
  3727                           
  3728                           ; BSR set to: 0
  3729                           ;C:\Program Files\Microchip\xc8\v2.32\pic\sources\c99\common\doprnt.c: 814:         if (
      +                          *fmt[0] == 'c') {
  3730  001E48  C074  FFD9         	movff	vfpfcnvrt@fmt,fsr2l
  3731  001E4C  C075  FFDA         	movff	vfpfcnvrt@fmt+1,fsr2h
  3732  001E50  CFDE FFF6          	movff	postinc2,tblptrl
  3733  001E54  CFDD FFF7          	movff	postdec2,tblptrh
  3734  001E58                     	if	0	;tblptru may be non-zero
  3735  001E58                     	endif
  3736  001E58                     	if	0	;tblptru may be non-zero
  3737  001E58                     	endif
  3738  001E58  0008               	tblrd		*
  3739  001E5A  50F5               	movf	tablat,w,c
  3740  001E5C  0A63               	xorlw	99
  3741  001E5E  A4D8               	btfss	status,2,c
  3742  001E60  EF34  F00F         	goto	u5701
  3743  001E64  EF36  F00F         	goto	u5700
  3744  001E68                     u5701:
  3745  001E68  EF5D  F00F         	goto	l4510
  3746  001E6C                     u5700:
  3747  001E6C                     
  3748                           ; BSR set to: 0
  3749                           ;C:\Program Files\Microchip\xc8\v2.32\pic\sources\c99\common\doprnt.c: 815:             
      +                          ++*fmt;
  3750  001E6C  C074  FFD9         	movff	vfpfcnvrt@fmt,fsr2l
  3751  001E70  C075  FFDA         	movff	vfpfcnvrt@fmt+1,fsr2h
  3752  001E74  2ADE               	incf	postinc2,f,c
  3753  001E76  0E00               	movlw	0
  3754  001E78  22DD               	addwfc	postdec2,f,c
  3755                           
  3756                           ;C:\Program Files\Microchip\xc8\v2.32\pic\sources\c99\common\doprnt.c: 816:             
      +                          c = (unsigned char)(*(int *)__va_arg(*(int **)ap, (int)0));
  3757  001E7A  C076  FFD9         	movff	vfpfcnvrt@ap,fsr2l
  3758  001E7E  C077  FFDA         	movff	vfpfcnvrt@ap+1,fsr2h
  3759  001E82  CFDF F078          	movff	indf2,??_vfpfcnvrt
  3760  001E86  0E02               	movlw	2
  3761  001E88  26DE               	addwf	postinc2,f,c
  3762  001E8A  CFDF F079          	movff	indf2,??_vfpfcnvrt+1
  3763  001E8E  0E00               	movlw	0
  3764  001E90  22DD               	addwfc	postdec2,f,c
  3765  001E92  C078  FFD9         	movff	??_vfpfcnvrt,fsr2l
  3766  001E96  C079  FFDA         	movff	??_vfpfcnvrt+1,fsr2h
  3767  001E9A  50DF               	movf	indf2,w,c
  3768  001E9C  6F8B               	movwf	vfpfcnvrt@c& (0+255),b
  3769  001E9E                     
  3770                           ; BSR set to: 0
  3771                           ;C:\Program Files\Microchip\xc8\v2.32\pic\sources\c99\common\doprnt.c: 817:             
      +                          return ctoa(fp, c);
  3772  001E9E  C072  F00F         	movff	vfpfcnvrt@fp,ctoa@fp
  3773  001EA2  C073  F010         	movff	vfpfcnvrt@fp+1,ctoa@fp+1
  3774  001EA6  C08B  F011         	movff	vfpfcnvrt@c,ctoa@c
  3775  001EAA  ECCA  F01E         	call	_ctoa	;wreg free
  3776  001EAE  C00F  F072         	movff	?_ctoa,?_vfpfcnvrt
  3777  001EB2  C010  F073         	movff	?_ctoa+1,?_vfpfcnvrt+1
  3778  001EB6  EF9E  F010         	goto	l1018
  3779  001EBA                     l4510:
  3780                           
  3781                           ; BSR set to: 0
  3782                           ;C:\Program Files\Microchip\xc8\v2.32\pic\sources\c99\common\doprnt.c: 942:         if (
      +                          ct[0] == 'f') {
  3783  001EBA  0E66               	movlw	102
  3784  001EBC  1988               	xorwf	vfpfcnvrt@ct& (0+255),w,b
  3785  001EBE  A4D8               	btfss	status,2,c
  3786  001EC0  EF64  F00F         	goto	u5711
  3787  001EC4  EF66  F00F         	goto	u5710
  3788  001EC8                     u5711:
  3789  001EC8  EFA6  F00F         	goto	l4522
  3790  001ECC                     u5710:
  3791  001ECC                     
  3792                           ; BSR set to: 0
  3793                           ;C:\Program Files\Microchip\xc8\v2.32\pic\sources\c99\common\doprnt.c: 944:             
      +                          c = (*fmt)[0];
  3794  001ECC  C074  FFD9         	movff	vfpfcnvrt@fmt,fsr2l
  3795  001ED0  C075  FFDA         	movff	vfpfcnvrt@fmt+1,fsr2h
  3796  001ED4  CFDE FFF6          	movff	postinc2,tblptrl
  3797  001ED8  CFDD FFF7          	movff	postdec2,tblptrh
  3798  001EDC                     	if	0	;tblptru may be non-zero
  3799  001EDC                     	endif
  3800  001EDC                     	if	0	;tblptru may be non-zero
  3801  001EDC                     	endif
  3802  001EDC  0008               	tblrd		*
  3803  001EDE  CFF5 F08B          	movff	tablat,vfpfcnvrt@c
  3804  001EE2                     
  3805                           ; BSR set to: 0
  3806                           ;C:\Program Files\Microchip\xc8\v2.32\pic\sources\c99\common\doprnt.c: 945:             
      +                          ++*fmt;
  3807  001EE2  C074  FFD9         	movff	vfpfcnvrt@fmt,fsr2l
  3808  001EE6  C075  FFDA         	movff	vfpfcnvrt@fmt+1,fsr2h
  3809  001EEA  2ADE               	incf	postinc2,f,c
  3810  001EEC  0E00               	movlw	0
  3811  001EEE  22DD               	addwfc	postdec2,f,c
  3812  001EF0                     
  3813                           ; BSR set to: 0
  3814                           ;C:\Program Files\Microchip\xc8\v2.32\pic\sources\c99\common\doprnt.c: 946:             
      +                          f = (long double)(*(double *)__va_arg(*(double **)ap, (double)0));
  3815  001EF0  C076  FFD9         	movff	vfpfcnvrt@ap,fsr2l
  3816  001EF4  C077  FFDA         	movff	vfpfcnvrt@ap+1,fsr2h
  3817  001EF8  CFDF F078          	movff	indf2,??_vfpfcnvrt
  3818  001EFC  0E04               	movlw	4
  3819  001EFE  26DE               	addwf	postinc2,f,c
  3820  001F00  CFDF F079          	movff	indf2,??_vfpfcnvrt+1
  3821  001F04  0E00               	movlw	0
  3822  001F06  22DD               	addwfc	postdec2,f,c
  3823  001F08  C078  FFD9         	movff	??_vfpfcnvrt,fsr2l
  3824  001F0C  C079  FFDA         	movff	??_vfpfcnvrt+1,fsr2h
  3825  001F10  CFDE F084          	movff	postinc2,vfpfcnvrt@f
  3826  001F14  CFDE F085          	movff	postinc2,vfpfcnvrt@f+1
  3827  001F18  CFDE F086          	movff	postinc2,vfpfcnvrt@f+2
  3828  001F1C  CFDE F087          	movff	postinc2,vfpfcnvrt@f+3
  3829  001F20                     
  3830                           ; BSR set to: 0
  3831                           ;C:\Program Files\Microchip\xc8\v2.32\pic\sources\c99\common\doprnt.c: 948:             
      +                          return efgtoa(fp, f, c);
  3832  001F20  C072  F02E         	movff	vfpfcnvrt@fp,efgtoa@fp
  3833  001F24  C073  F02F         	movff	vfpfcnvrt@fp+1,efgtoa@fp+1
  3834  001F28  C084  F030         	movff	vfpfcnvrt@f,efgtoa@f
  3835  001F2C  C085  F031         	movff	vfpfcnvrt@f+1,efgtoa@f+1
  3836  001F30  C086  F032         	movff	vfpfcnvrt@f+2,efgtoa@f+2
  3837  001F34  C087  F033         	movff	vfpfcnvrt@f+3,efgtoa@f+3
  3838  001F38  C08B  F034         	movff	vfpfcnvrt@c,efgtoa@c
  3839  001F3C  EC0F  F003         	call	_efgtoa	;wreg free
  3840  001F40  C02E  F072         	movff	?_efgtoa,?_vfpfcnvrt
  3841  001F44  C02F  F073         	movff	?_efgtoa+1,?_vfpfcnvrt+1
  3842  001F48  EF9E  F010         	goto	l1018
  3843  001F4C                     l4522:
  3844                           
  3845                           ; BSR set to: 0
  3846                           ;C:\Program Files\Microchip\xc8\v2.32\pic\sources\c99\common\doprnt.c: 950:         if (
      +                          !strncmp(ct, "lf", ((sizeof("lf")/sizeof("lf"[0]))-1))) {
  3847  001F4C  0E88               	movlw	low vfpfcnvrt@ct
  3848  001F4E  6E01               	movwf	strncmp@_l^0,c
  3849  001F50  0E00               	movlw	high vfpfcnvrt@ct
  3850  001F52  6E02               	movwf	(strncmp@_l+1)^0,c
  3851  001F54  0E16               	movlw	low STR_29
  3852  001F56  6E03               	movwf	strncmp@_r^0,c
  3853  001F58  0E06               	movlw	high STR_29
  3854  001F5A  6E04               	movwf	(strncmp@_r+1)^0,c
  3855  001F5C  0E00               	movlw	0
  3856  001F5E  6E06               	movwf	(strncmp@n+1)^0,c
  3857  001F60  0E02               	movlw	2
  3858  001F62  6E05               	movwf	strncmp@n^0,c
  3859  001F64  EC36  F01F         	call	_strncmp	;wreg free
  3860  001F68  5001               	movf	?_strncmp^0,w,c
  3861  001F6A  1002               	iorwf	(?_strncmp+1)^0,w,c
  3862  001F6C  A4D8               	btfss	status,2,c
  3863  001F6E  EFBB  F00F         	goto	u5721
  3864  001F72  EFBD  F00F         	goto	u5720
  3865  001F76                     u5721:
  3866  001F76  EF4D  F010         	goto	l4538
  3867  001F7A                     u5720:
  3868  001F7A                     
  3869                           ;C:\Program Files\Microchip\xc8\v2.32\pic\sources\c99\common\doprnt.c: 953:             
      +                          if ((0 ? isupper((int)(*fmt)[0]) : ((unsigned)((int)(*fmt)[0])-'A') < 26)) {
  3870  001F7A  C074  FFD9         	movff	vfpfcnvrt@fmt,fsr2l
  3871  001F7E  C075  FFDA         	movff	vfpfcnvrt@fmt+1,fsr2h
  3872  001F82  CFDE F078          	movff	postinc2,??_vfpfcnvrt
  3873  001F86  CFDD F079          	movff	postdec2,??_vfpfcnvrt+1
  3874  001F8A  0E01               	movlw	1
  3875  001F8C  2678               	addwf	??_vfpfcnvrt^0,f,c
  3876  001F8E  0E00               	movlw	0
  3877  001F90  2279               	addwfc	(??_vfpfcnvrt+1)^0,f,c
  3878  001F92  C078  FFF6         	movff	??_vfpfcnvrt,tblptrl
  3879  001F96  C079  FFF7         	movff	??_vfpfcnvrt+1,tblptrh
  3880  001F9A                     	if	0	;tblptru may be non-zero
  3881  001F9A                     	endif
  3882  001F9A                     	if	0	;tblptru may be non-zero
  3883  001F9A                     	endif
  3884  001F9A  0008               	tblrd		*
  3885  001F9C  CFF5 F08B          	movff	tablat,vfpfcnvrt@c
  3886  001FA0  0EBF               	movlw	191
  3887  001FA2  6E78               	movwf	??_vfpfcnvrt^0,c
  3888  001FA4  0EFF               	movlw	255
  3889  001FA6  6E79               	movwf	(??_vfpfcnvrt+1)^0,c
  3890  001FA8  C074  FFD9         	movff	vfpfcnvrt@fmt,fsr2l
  3891  001FAC  C075  FFDA         	movff	vfpfcnvrt@fmt+1,fsr2h
  3892  001FB0  CFDE FFF6          	movff	postinc2,tblptrl
  3893  001FB4  CFDD FFF7          	movff	postdec2,tblptrh
  3894  001FB8                     	if	0	;tblptru may be non-zero
  3895  001FB8                     	endif
  3896  001FB8                     	if	0	;tblptru may be non-zero
  3897  001FB8                     	endif
  3898  001FB8  0008               	tblrd		*
  3899  001FBA  50F5               	movf	tablat,w,c
  3900  001FBC  6E7A               	movwf	(??_vfpfcnvrt+2)^0,c
  3901  001FBE  6A7B               	clrf	(??_vfpfcnvrt+3)^0,c
  3902  001FC0  5078               	movf	??_vfpfcnvrt^0,w,c
  3903  001FC2  267A               	addwf	(??_vfpfcnvrt+2)^0,f,c
  3904  001FC4  5079               	movf	(??_vfpfcnvrt+1)^0,w,c
  3905  001FC6  227B               	addwfc	(??_vfpfcnvrt+3)^0,f,c
  3906  001FC8  507B               	movf	(??_vfpfcnvrt+3)^0,w,c
  3907  001FCA  E10A               	bnz	u5730
  3908  001FCC  0E1A               	movlw	26
  3909  001FCE  5C7A               	subwf	(??_vfpfcnvrt+2)^0,w,c
  3910  001FD0  A0D8               	btfss	status,0,c
  3911  001FD2  EFED  F00F         	goto	u5731
  3912  001FD6  EFF0  F00F         	goto	u5730
  3913  001FDA                     u5731:
  3914  001FDA  0E01               	movlw	1
  3915  001FDC  EFF1  F00F         	goto	u5740
  3916  001FE0                     u5730:
  3917  001FE0  0E00               	movlw	0
  3918  001FE2                     u5740:
  3919  001FE2  0100               	movlb	0	; () banked
  3920  001FE4  6F82               	movwf	_vfpfcnvrt$878& (0+255),b
  3921  001FE6  6B83               	clrf	(_vfpfcnvrt$878+1)& (0+255),b
  3922  001FE8                     
  3923                           ; BSR set to: 0
  3924  001FE8  5182               	movf	_vfpfcnvrt$878& (0+255),w,b
  3925  001FEA  1183               	iorwf	(_vfpfcnvrt$878+1)& (0+255),w,b
  3926  001FEC  B4D8               	btfsc	status,2,c
  3927  001FEE  EFFB  F00F         	goto	u5751
  3928  001FF2  EFFD  F00F         	goto	u5750
  3929  001FF6                     u5751:
  3930  001FF6  EF17  F010         	goto	l4532
  3931  001FFA                     u5750:
  3932  001FFA                     
  3933                           ; BSR set to: 0
  3934                           ;C:\Program Files\Microchip\xc8\v2.32\pic\sources\c99\common\doprnt.c: 954:             
      +                              f = (*(long double *)__va_arg(*(long double **)ap, (long double)0));
  3935  001FFA  C076  FFD9         	movff	vfpfcnvrt@ap,fsr2l
  3936  001FFE  C077  FFDA         	movff	vfpfcnvrt@ap+1,fsr2h
  3937  002002  CFDF F078          	movff	indf2,??_vfpfcnvrt
  3938  002006  0E04               	movlw	4
  3939  002008  26DE               	addwf	postinc2,f,c
  3940  00200A  CFDF F079          	movff	indf2,??_vfpfcnvrt+1
  3941  00200E  0E00               	movlw	0
  3942  002010  22DD               	addwfc	postdec2,f,c
  3943  002012  C078  FFD9         	movff	??_vfpfcnvrt,fsr2l
  3944  002016  C079  FFDA         	movff	??_vfpfcnvrt+1,fsr2h
  3945  00201A  CFDE F084          	movff	postinc2,vfpfcnvrt@f
  3946  00201E  CFDE F085          	movff	postinc2,vfpfcnvrt@f+1
  3947  002022  CFDE F086          	movff	postinc2,vfpfcnvrt@f+2
  3948  002026  CFDE F087          	movff	postinc2,vfpfcnvrt@f+3
  3949                           
  3950                           ;C:\Program Files\Microchip\xc8\v2.32\pic\sources\c99\common\doprnt.c: 955:             
      +                          } else {
  3951  00202A  EF2F  F010         	goto	l1026
  3952  00202E                     l4532:
  3953                           
  3954                           ; BSR set to: 0
  3955                           ;C:\Program Files\Microchip\xc8\v2.32\pic\sources\c99\common\doprnt.c: 956:             
      +                              f = (long double)(*(double *)__va_arg(*(double **)ap, (double)0));
  3956  00202E  C076  FFD9         	movff	vfpfcnvrt@ap,fsr2l
  3957  002032  C077  FFDA         	movff	vfpfcnvrt@ap+1,fsr2h
  3958  002036  CFDF F078          	movff	indf2,??_vfpfcnvrt
  3959  00203A  0E04               	movlw	4
  3960  00203C  26DE               	addwf	postinc2,f,c
  3961  00203E  CFDF F079          	movff	indf2,??_vfpfcnvrt+1
  3962  002042  0E00               	movlw	0
  3963  002044  22DD               	addwfc	postdec2,f,c
  3964  002046  C078  FFD9         	movff	??_vfpfcnvrt,fsr2l
  3965  00204A  C079  FFDA         	movff	??_vfpfcnvrt+1,fsr2h
  3966  00204E  CFDE F084          	movff	postinc2,vfpfcnvrt@f
  3967  002052  CFDE F085          	movff	postinc2,vfpfcnvrt@f+1
  3968  002056  CFDE F086          	movff	postinc2,vfpfcnvrt@f+2
  3969  00205A  CFDE F087          	movff	postinc2,vfpfcnvrt@f+3
  3970  00205E                     l1026:
  3971                           
  3972                           ; BSR set to: 0
  3973                           ;C:\Program Files\Microchip\xc8\v2.32\pic\sources\c99\common\doprnt.c: 958:             
      +                          *fmt += ((sizeof("lf")/sizeof("lf"[0]))-1);
  3974  00205E  0E02               	movlw	2
  3975  002060  C074  FFD9         	movff	vfpfcnvrt@fmt,fsr2l
  3976  002064  C075  FFDA         	movff	vfpfcnvrt@fmt+1,fsr2h
  3977  002068  26DE               	addwf	postinc2,f,c
  3978  00206A  0E00               	movlw	0
  3979  00206C  22DD               	addwfc	postdec2,f,c
  3980  00206E                     
  3981                           ; BSR set to: 0
  3982                           ;C:\Program Files\Microchip\xc8\v2.32\pic\sources\c99\common\doprnt.c: 960:             
      +                          return efgtoa(fp, f, c);
  3983  00206E  C072  F02E         	movff	vfpfcnvrt@fp,efgtoa@fp
  3984  002072  C073  F02F         	movff	vfpfcnvrt@fp+1,efgtoa@fp+1
  3985  002076  C084  F030         	movff	vfpfcnvrt@f,efgtoa@f
  3986  00207A  C085  F031         	movff	vfpfcnvrt@f+1,efgtoa@f+1
  3987  00207E  C086  F032         	movff	vfpfcnvrt@f+2,efgtoa@f+2
  3988  002082  C087  F033         	movff	vfpfcnvrt@f+3,efgtoa@f+3
  3989  002086  C08B  F034         	movff	vfpfcnvrt@c,efgtoa@c
  3990  00208A  EC0F  F003         	call	_efgtoa	;wreg free
  3991  00208E  C02E  F072         	movff	?_efgtoa,?_vfpfcnvrt
  3992  002092  C02F  F073         	movff	?_efgtoa+1,?_vfpfcnvrt+1
  3993  002096  EF9E  F010         	goto	l1018
  3994  00209A                     l4538:
  3995                           
  3996                           ;C:\Program Files\Microchip\xc8\v2.32\pic\sources\c99\common\doprnt.c: 1372:         if 
      +                          ((*fmt)[0] == '%') {
  3997  00209A  C074  FFD9         	movff	vfpfcnvrt@fmt,fsr2l
  3998  00209E  C075  FFDA         	movff	vfpfcnvrt@fmt+1,fsr2h
  3999  0020A2  CFDE FFF6          	movff	postinc2,tblptrl
  4000  0020A6  CFDD FFF7          	movff	postdec2,tblptrh
  4001  0020AA                     	if	0	;tblptru may be non-zero
  4002  0020AA                     	endif
  4003  0020AA                     	if	0	;tblptru may be non-zero
  4004  0020AA                     	endif
  4005  0020AA  0008               	tblrd		*
  4006  0020AC  50F5               	movf	tablat,w,c
  4007  0020AE  0A25               	xorlw	37
  4008  0020B0  A4D8               	btfss	status,2,c
  4009  0020B2  EF5D  F010         	goto	u5761
  4010  0020B6  EF5F  F010         	goto	u5760
  4011  0020BA                     u5761:
  4012  0020BA  EF76  F010         	goto	l4548
  4013  0020BE                     u5760:
  4014  0020BE                     
  4015                           ;C:\Program Files\Microchip\xc8\v2.32\pic\sources\c99\common\doprnt.c: 1373:            
      +                           ++*fmt;
  4016  0020BE  C074  FFD9         	movff	vfpfcnvrt@fmt,fsr2l
  4017  0020C2  C075  FFDA         	movff	vfpfcnvrt@fmt+1,fsr2h
  4018  0020C6  2ADE               	incf	postinc2,f,c
  4019  0020C8  0E00               	movlw	0
  4020  0020CA  22DD               	addwfc	postdec2,f,c
  4021  0020CC                     
  4022                           ;C:\Program Files\Microchip\xc8\v2.32\pic\sources\c99\common\doprnt.c: 1374:            
      +                           fputc((int)'%', fp);
  4023  0020CC  0E00               	movlw	0
  4024  0020CE  6E07               	movwf	(fputc@c+1)^0,c
  4025  0020D0  0E25               	movlw	37
  4026  0020D2  6E06               	movwf	fputc@c^0,c
  4027  0020D4  C072  F008         	movff	vfpfcnvrt@fp,fputc@fp
  4028  0020D8  C073  F009         	movff	vfpfcnvrt@fp+1,fputc@fp+1
  4029  0020DC  EC6C  F021         	call	_fputc	;wreg free
  4030  0020E0                     l4544:
  4031                           
  4032                           ;C:\Program Files\Microchip\xc8\v2.32\pic\sources\c99\common\doprnt.c: 1375:            
      +                           return 1;
  4033  0020E0  0E00               	movlw	0
  4034  0020E2  6E73               	movwf	(?_vfpfcnvrt+1)^0,c
  4035  0020E4  0E01               	movlw	1
  4036  0020E6  6E72               	movwf	?_vfpfcnvrt^0,c
  4037  0020E8  EF9E  F010         	goto	l1018
  4038  0020EC                     l4548:
  4039                           
  4040                           ;C:\Program Files\Microchip\xc8\v2.32\pic\sources\c99\common\doprnt.c: 1379:         ++*
      +                          fmt;
  4041  0020EC  C074  FFD9         	movff	vfpfcnvrt@fmt,fsr2l
  4042  0020F0  C075  FFDA         	movff	vfpfcnvrt@fmt+1,fsr2h
  4043  0020F4  2ADE               	incf	postinc2,f,c
  4044  0020F6  0E00               	movlw	0
  4045  0020F8  22DD               	addwfc	postdec2,f,c
  4046  0020FA                     
  4047                           ;C:\Program Files\Microchip\xc8\v2.32\pic\sources\c99\common\doprnt.c: 1380:         ret
      +                          urn 0;
  4048  0020FA  0E00               	movlw	0
  4049  0020FC  6E73               	movwf	(?_vfpfcnvrt+1)^0,c
  4050  0020FE  0E00               	movlw	0
  4051  002100  6E72               	movwf	?_vfpfcnvrt^0,c
  4052  002102  EF9E  F010         	goto	l1018
  4053  002106                     l4554:
  4054                           
  4055                           ;C:\Program Files\Microchip\xc8\v2.32\pic\sources\c99\common\doprnt.c: 1384:     fputc((
      +                          int)(*fmt)[0], fp);
  4056  002106  C074  FFD9         	movff	vfpfcnvrt@fmt,fsr2l
  4057  00210A  C075  FFDA         	movff	vfpfcnvrt@fmt+1,fsr2h
  4058  00210E  CFDE FFF6          	movff	postinc2,tblptrl
  4059  002112  CFDD FFF7          	movff	postdec2,tblptrh
  4060  002116                     	if	0	;tblptru may be non-zero
  4061  002116                     	endif
  4062  002116                     	if	0	;tblptru may be non-zero
  4063  002116                     	endif
  4064  002116  0008               	tblrd		*
  4065  002118  50F5               	movf	tablat,w,c
  4066  00211A  6E06               	movwf	fputc@c^0,c
  4067  00211C  6A07               	clrf	(fputc@c+1)^0,c
  4068  00211E  C072  F008         	movff	vfpfcnvrt@fp,fputc@fp
  4069  002122  C073  F009         	movff	vfpfcnvrt@fp+1,fputc@fp+1
  4070  002126  EC6C  F021         	call	_fputc	;wreg free
  4071  00212A                     
  4072                           ;C:\Program Files\Microchip\xc8\v2.32\pic\sources\c99\common\doprnt.c: 1385:     ++*fmt;
  4073  00212A  C074  FFD9         	movff	vfpfcnvrt@fmt,fsr2l
  4074  00212E  C075  FFDA         	movff	vfpfcnvrt@fmt+1,fsr2h
  4075  002132  2ADE               	incf	postinc2,f,c
  4076  002134  0E00               	movlw	0
  4077  002136  22DD               	addwfc	postdec2,f,c
  4078  002138  EF70  F010         	goto	l4544
  4079  00213C                     l1018:
  4080  00213C  0012               	return		;funcret
  4081  00213E                     __end_of_vfpfcnvrt:
  4082                           	callstack 0
  4083                           
  4084 ;; *************** function _strncmp *****************
  4085 ;; Defined at:
  4086 ;;		line 3 in file "C:\Program Files\Microchip\xc8\v2.32\pic\sources\c99\common\strncmp.c"
  4087 ;; Parameters:    Size  Location     Type
  4088 ;;  _l              2    0[COMRAM] PTR const unsigned char 
  4089 ;;		 -> vfpfcnvrt@ct(3), 
  4090 ;;  _r              2    2[COMRAM] PTR const unsigned char 
  4091 ;;		 -> STR_31(3), 
  4092 ;;  n               2    4[COMRAM] unsigned int 
  4093 ;; Auto vars:     Size  Location     Type
  4094 ;;  r               2    9[COMRAM] PTR const unsigned char 
  4095 ;;		 -> STR_31(3), 
  4096 ;;  l               2    7[COMRAM] PTR const unsigned char 
  4097 ;;		 -> vfpfcnvrt@ct(3), 
  4098 ;; Return value:  Size  Location     Type
  4099 ;;                  2    0[COMRAM] int 
  4100 ;; Registers used:
  4101 ;;		wreg, fsr2l, fsr2h, status,2, status,0, tblptrl, tblptrh, tblptru
  4102 ;; Tracked objects:
  4103 ;;		On entry : 0/0
  4104 ;;		On exit  : 0/0
  4105 ;;		Unchanged: 0/0
  4106 ;; Data sizes:     COMRAM   BANK0   BANK1   BANK2   BANK3   BANK4   BANK5
  4107 ;;      Params:         6       0       0       0       0       0       0
  4108 ;;      Locals:         4       0       0       0       0       0       0
  4109 ;;      Temps:          1       0       0       0       0       0       0
  4110 ;;      Totals:        11       0       0       0       0       0       0
  4111 ;;Total ram usage:       11 bytes
  4112 ;; Hardware stack levels used: 1
  4113 ;; This function calls:
  4114 ;;		Nothing
  4115 ;; This function is called by:
  4116 ;;		_vfpfcnvrt
  4117 ;; This function uses a non-reentrant model
  4118 ;;
  4119                           
  4120                           	psect	text10
  4121  003E6C                     __ptext10:
  4122                           	callstack 0
  4123  003E6C                     _strncmp:
  4124                           	callstack 27
  4125  003E6C  C001  F008         	movff	strncmp@_l,strncmp@l
  4126  003E70  C002  F009         	movff	strncmp@_l+1,strncmp@l+1
  4127  003E74  C003  F00A         	movff	strncmp@_r,strncmp@r
  4128  003E78  C004  F00B         	movff	strncmp@_r+1,strncmp@r+1
  4129  003E7C  0605               	decf	strncmp@n^0,f,c
  4130  003E7E  A0D8               	btfss	status,0,c
  4131  003E80  0606               	decf	(strncmp@n+1)^0,f,c
  4132  003E82  2805               	incf	strncmp@n^0,w,c
  4133  003E84  E106               	bnz	u5531
  4134  003E86  2806               	incf	(strncmp@n+1)^0,w,c
  4135  003E88  A4D8               	btfss	status,2,c
  4136  003E8A  EF49  F01F         	goto	u5531
  4137  003E8E  EF4B  F01F         	goto	u5530
  4138  003E92                     u5531:
  4139  003E92  EF58  F01F         	goto	l4438
  4140  003E96                     u5530:
  4141  003E96  0E00               	movlw	0
  4142  003E98  6E02               	movwf	(?_strncmp+1)^0,c
  4143  003E9A  0E00               	movlw	0
  4144  003E9C  6E01               	movwf	?_strncmp^0,c
  4145  003E9E  EFA0  F01F         	goto	l1144
  4146  003EA2                     l4436:
  4147  003EA2  4A08               	infsnz	strncmp@l^0,f,c
  4148  003EA4  2A09               	incf	(strncmp@l+1)^0,f,c
  4149  003EA6  4A0A               	infsnz	strncmp@r^0,f,c
  4150  003EA8  2A0B               	incf	(strncmp@r+1)^0,f,c
  4151  003EAA  0605               	decf	strncmp@n^0,f,c
  4152  003EAC  A0D8               	btfss	status,0,c
  4153  003EAE  0606               	decf	(strncmp@n+1)^0,f,c
  4154  003EB0                     l4438:
  4155  003EB0  C008  FFD9         	movff	strncmp@l,fsr2l
  4156  003EB4  C009  FFDA         	movff	strncmp@l+1,fsr2h
  4157  003EB8  50DF               	movf	indf2,w,c
  4158  003EBA  B4D8               	btfsc	status,2,c
  4159  003EBC  EF62  F01F         	goto	u5541
  4160  003EC0  EF64  F01F         	goto	u5540
  4161  003EC4                     u5541:
  4162  003EC4  EF8F  F01F         	goto	l4446
  4163  003EC8                     u5540:
  4164  003EC8  C00A  FFF6         	movff	strncmp@r,tblptrl
  4165  003ECC  C00B  FFF7         	movff	strncmp@r+1,tblptrh
  4166  003ED0                     	if	0	;tblptru may be non-zero
  4167  003ED0                     	endif
  4168  003ED0                     	if	0	;tblptru may be non-zero
  4169  003ED0                     	endif
  4170  003ED0  0008               	tblrd		*
  4171  003ED2  50F5               	movf	tablat,w,c
  4172  003ED4  0900               	iorlw	0
  4173  003ED6  B4D8               	btfsc	status,2,c
  4174  003ED8  EF70  F01F         	goto	u5551
  4175  003EDC  EF72  F01F         	goto	u5550
  4176  003EE0                     u5551:
  4177  003EE0  EF8F  F01F         	goto	l4446
  4178  003EE4                     u5550:
  4179  003EE4  5005               	movf	strncmp@n^0,w,c
  4180  003EE6  1006               	iorwf	(strncmp@n+1)^0,w,c
  4181  003EE8  B4D8               	btfsc	status,2,c
  4182  003EEA  EF79  F01F         	goto	u5561
  4183  003EEE  EF7B  F01F         	goto	u5560
  4184  003EF2                     u5561:
  4185  003EF2  EF8F  F01F         	goto	l4446
  4186  003EF6                     u5560:
  4187  003EF6  C008  FFD9         	movff	strncmp@l,fsr2l
  4188  003EFA  C009  FFDA         	movff	strncmp@l+1,fsr2h
  4189  003EFE  50DF               	movf	indf2,w,c
  4190  003F00  6E07               	movwf	??_strncmp^0,c
  4191  003F02  C00A  FFF6         	movff	strncmp@r,tblptrl
  4192  003F06  C00B  FFF7         	movff	strncmp@r+1,tblptrh
  4193  003F0A                     	if	0	;tblptru may be non-zero
  4194  003F0A                     	endif
  4195  003F0A                     	if	0	;tblptru may be non-zero
  4196  003F0A                     	endif
  4197  003F0A  0008               	tblrd		*
  4198  003F0C  50F5               	movf	tablat,w,c
  4199  003F0E  1807               	xorwf	??_strncmp^0,w,c
  4200  003F10  B4D8               	btfsc	status,2,c
  4201  003F12  EF8D  F01F         	goto	u5571
  4202  003F16  EF8F  F01F         	goto	u5570
  4203  003F1A                     u5571:
  4204  003F1A  EF51  F01F         	goto	l4436
  4205  003F1E                     u5570:
  4206  003F1E                     l4446:
  4207  003F1E  C008  FFD9         	movff	strncmp@l,fsr2l
  4208  003F22  C009  FFDA         	movff	strncmp@l+1,fsr2h
  4209  003F26  50DF               	movf	indf2,w,c
  4210  003F28  6E07               	movwf	??_strncmp^0,c
  4211  003F2A  C00A  FFF6         	movff	strncmp@r,tblptrl
  4212  003F2E  C00B  FFF7         	movff	strncmp@r+1,tblptrh
  4213  003F32                     	if	0	;tblptru may be non-zero
  4214  003F32                     	endif
  4215  003F32                     	if	0	;tblptru may be non-zero
  4216  003F32                     	endif
  4217  003F32  0008               	tblrd		*
  4218  003F34  50F5               	movf	tablat,w,c
  4219  003F36  5C07               	subwf	??_strncmp^0,w,c
  4220  003F38  6E01               	movwf	?_strncmp^0,c
  4221  003F3A  6A02               	clrf	(?_strncmp+1)^0,c
  4222  003F3C  A0D8               	btfss	status,0,c
  4223  003F3E  0602               	decf	(?_strncmp+1)^0,f,c
  4224  003F40                     l1144:
  4225  003F40  0012               	return		;funcret
  4226  003F42                     __end_of_strncmp:
  4227                           	callstack 0
  4228                           
  4229 ;; *************** function _efgtoa *****************
  4230 ;; Defined at:
  4231 ;;		line 332 in file "C:\Program Files\Microchip\xc8\v2.32\pic\sources\c99\common\doprnt.c"
  4232 ;; Parameters:    Size  Location     Type
  4233 ;;  fp              2   45[COMRAM] PTR struct _IO_FILE
  4234 ;;		 -> NULL(0), 
  4235 ;;  f               4   47[COMRAM] PTR struct _IO_FILE
  4236 ;;  c               1   51[COMRAM] unsigned char 
  4237 ;; Auto vars:     Size  Location     Type
  4238 ;;  u               4  109[COMRAM] unsigned char 
  4239 ;;  g               4  101[COMRAM] unsigned char 
  4240 ;;  l               4   95[COMRAM] unsigned char 
  4241 ;;  h               4   91[COMRAM] unsigned char 
  4242 ;;  ou              4   77[COMRAM] unsigned char 
  4243 ;;  n               2  107[COMRAM] int 
  4244 ;;  e               2  105[COMRAM] int 
  4245 ;;  i               2   99[COMRAM] int 
  4246 ;;  w               2   87[COMRAM] int 
  4247 ;;  p               2   85[COMRAM] int 
  4248 ;;  sign            2   83[COMRAM] int 
  4249 ;;  d               2   81[COMRAM] int 
  4250 ;;  m               2   75[COMRAM] int 
  4251 ;;  ne              2   73[COMRAM] int 
  4252 ;;  pp              2   71[COMRAM] int 
  4253 ;;  t               2   69[COMRAM] int 
  4254 ;;  mode            1   90[COMRAM] unsigned char 
  4255 ;;  nmode           1   89[COMRAM] unsigned char 
  4256 ;; Return value:  Size  Location     Type
  4257 ;;                  2   45[COMRAM] int 
  4258 ;; Registers used:
  4259 ;;		wreg, fsr1l, fsr1h, fsr2l, fsr2h, status,2, status,0, tblptrl, tblptrh, tblptru, prodl, prodh, cstack
  4260 ;; Tracked objects:
  4261 ;;		On entry : 0/0
  4262 ;;		On exit  : 0/0
  4263 ;;		Unchanged: 0/0
  4264 ;; Data sizes:     COMRAM   BANK0   BANK1   BANK2   BANK3   BANK4   BANK5
  4265 ;;      Params:         7       0       0       0       0       0       0
  4266 ;;      Locals:        56       0       0       0       0       0       0
  4267 ;;      Temps:          5       0       0       0       0       0       0
  4268 ;;      Totals:        68       0       0       0       0       0       0
  4269 ;;Total ram usage:       68 bytes
  4270 ;; Hardware stack levels used: 1
  4271 ;; Hardware stack levels required when called: 6
  4272 ;; This function calls:
  4273 ;;		___awdiv
  4274 ;;		___awmod
  4275 ;;		___fladd
  4276 ;;		___fldiv
  4277 ;;		___fleq
  4278 ;;		___flge
  4279 ;;		___flmul
  4280 ;;		___flneg
  4281 ;;		___flsub
  4282 ;;		___fltol
  4283 ;;		___fpclassifyf
  4284 ;;		_floorf
  4285 ;;		_isupper
  4286 ;;		_pad
  4287 ;;		_strcpy
  4288 ;;		_tolower
  4289 ;; This function is called by:
  4290 ;;		_vfpfcnvrt
  4291 ;; This function uses a non-reentrant model
  4292 ;;
  4293                           
  4294                           	psect	text11
  4295  00061E                     __ptext11:
  4296                           	callstack 0
  4297  00061E                     _efgtoa:
  4298                           	callstack 21
  4299  00061E                     
  4300                           ;C:\Program Files\Microchip\xc8\v2.32\pic\sources\c99\common\doprnt.c: 332: static int e
      +                          fgtoa(FILE *fp, long double f, char c);C:\Program Files\Microchip\xc8\v2.32\pic\sources\
      +                          c99\common\doprnt.c: 333: {;C:\Program Files\Microchip\xc8\v2.32\pic\sources\c99\common\
      +                          doprnt.c: 334:     char mode, nmode;;C:\Program Files\Microchip\xc8\v2.32\pic\sources\c9
      +                          9\common\doprnt.c: 335:     int d, e, i, m, n, ne, p, pp, sign, t, w;;C:\Program Files\M
      +                          icrochip\xc8\v2.32\pic\sources\c99\common\doprnt.c: 336:     long double g, h, l, ou, u;
  4301  00061E  0E00               	movlw	0
  4302  000620  6E55               	movwf	(efgtoa@sign+1)^0,c
  4303  000622  0E00               	movlw	0
  4304  000624  6E54               	movwf	efgtoa@sign^0,c
  4305  000626                     
  4306                           ;C:\Program Files\Microchip\xc8\v2.32\pic\sources\c99\common\doprnt.c: 340:     g = f;
  4307  000626  C030  F066         	movff	efgtoa@f,efgtoa@g
  4308  00062A  C031  F067         	movff	efgtoa@f+1,efgtoa@g+1
  4309  00062E  C032  F068         	movff	efgtoa@f+2,efgtoa@g+2
  4310  000632  C033  F069         	movff	efgtoa@f+3,efgtoa@g+3
  4311  000636                     
  4312                           ;C:\Program Files\Microchip\xc8\v2.32\pic\sources\c99\common\doprnt.c: 341:     if (g < 
      +                          0.0) {
  4313  000636  BE69               	btfsc	(efgtoa@g+3)^0,7,c
  4314  000638  EF22  F003         	goto	u4920
  4315  00063C  EF20  F003         	goto	u4921
  4316  000640                     u4921:
  4317  000640  EF38  F003         	goto	l4090
  4318  000644                     u4920:
  4319  000644                     
  4320                           ;C:\Program Files\Microchip\xc8\v2.32\pic\sources\c99\common\doprnt.c: 342:         sign
      +                           = 1;
  4321  000644  0E00               	movlw	0
  4322  000646  6E55               	movwf	(efgtoa@sign+1)^0,c
  4323  000648  0E01               	movlw	1
  4324  00064A  6E54               	movwf	efgtoa@sign^0,c
  4325  00064C                     
  4326                           ;C:\Program Files\Microchip\xc8\v2.32\pic\sources\c99\common\doprnt.c: 343:         g = 
      +                          -g;
  4327  00064C  C066  F001         	movff	efgtoa@g,___flneg@f1
  4328  000650  C067  F002         	movff	efgtoa@g+1,___flneg@f1+1
  4329  000654  C068  F003         	movff	efgtoa@g+2,___flneg@f1+2
  4330  000658  C069  F004         	movff	efgtoa@g+3,___flneg@f1+3
  4331  00065C  EC0E  F024         	call	___flneg	;wreg free
  4332  000660  C001  F066         	movff	?___flneg,efgtoa@g
  4333  000664  C002  F067         	movff	?___flneg+1,efgtoa@g+1
  4334  000668  C003  F068         	movff	?___flneg+2,efgtoa@g+2
  4335  00066C  C004  F069         	movff	?___flneg+3,efgtoa@g+3
  4336  000670                     l4090:
  4337                           
  4338                           ;C:\Program Files\Microchip\xc8\v2.32\pic\sources\c99\common\doprnt.c: 347:     n = 0;
  4339  000670  0E00               	movlw	0
  4340  000672  6E6D               	movwf	(efgtoa@n+1)^0,c
  4341  000674  0E00               	movlw	0
  4342  000676  6E6C               	movwf	efgtoa@n^0,c
  4343  000678                     
  4344                           ;C:\Program Files\Microchip\xc8\v2.32\pic\sources\c99\common\doprnt.c: 348:     w = widt
      +                          h;
  4345  000678  C0EC  F058         	movff	_width,efgtoa@w
  4346  00067C  C0ED  F059         	movff	_width+1,efgtoa@w+1
  4347  000680                     
  4348                           ;C:\Program Files\Microchip\xc8\v2.32\pic\sources\c99\common\doprnt.c: 349:     if (sign
      +                           || (flags & (1 << 2))) {
  4349  000680  5054               	movf	efgtoa@sign^0,w,c
  4350  000682  1055               	iorwf	(efgtoa@sign+1)^0,w,c
  4351  000684  A4D8               	btfss	status,2,c
  4352  000686  EF47  F003         	goto	u4931
  4353  00068A  EF49  F003         	goto	u4930
  4354  00068E                     u4931:
  4355  00068E  EF51  F003         	goto	l4098
  4356  000692                     u4930:
  4357  000692  0100               	movlb	0	; () banked
  4358  000694  A5F0               	btfss	_flags& (0+255),2,b
  4359  000696  EF4F  F003         	goto	u4941
  4360  00069A  EF51  F003         	goto	u4940
  4361  00069E                     u4941:
  4362  00069E  EF6B  F003         	goto	l4110
  4363  0006A2                     u4940:
  4364  0006A2                     l4098:
  4365                           
  4366                           ;C:\Program Files\Microchip\xc8\v2.32\pic\sources\c99\common\doprnt.c: 350:         dbuf
      +                          [n] = sign ? '-' : '+';
  4367  0006A2  5054               	movf	efgtoa@sign^0,w,c
  4368  0006A4  1055               	iorwf	(efgtoa@sign+1)^0,w,c
  4369  0006A6  A4D8               	btfss	status,2,c
  4370  0006A8  EF58  F003         	goto	u4951
  4371  0006AC  EF5A  F003         	goto	u4950
  4372  0006B0                     u4951:
  4373  0006B0  EF60  F003         	goto	l4102
  4374  0006B4                     u4950:
  4375  0006B4  0E00               	movlw	0
  4376  0006B6  6E3B               	movwf	(_efgtoa$847+1)^0,c
  4377  0006B8  0E2B               	movlw	43
  4378  0006BA  6E3A               	movwf	_efgtoa$847^0,c
  4379  0006BC  EF64  F003         	goto	l4104
  4380  0006C0                     l4102:
  4381  0006C0  0E00               	movlw	0
  4382  0006C2  6E3B               	movwf	(_efgtoa$847+1)^0,c
  4383  0006C4  0E2D               	movlw	45
  4384  0006C6  6E3A               	movwf	_efgtoa$847^0,c
  4385  0006C8                     l4104:
  4386  0006C8  C03A  F100         	movff	_efgtoa$847,_dbuf
  4387  0006CC                     
  4388                           ;C:\Program Files\Microchip\xc8\v2.32\pic\sources\c99\common\doprnt.c: 351:         ++n;
  4389  0006CC  4A6C               	infsnz	efgtoa@n^0,f,c
  4390  0006CE  2A6D               	incf	(efgtoa@n+1)^0,f,c
  4391  0006D0                     
  4392                           ;C:\Program Files\Microchip\xc8\v2.32\pic\sources\c99\common\doprnt.c: 352:         --w;
  4393  0006D0  0658               	decf	efgtoa@w^0,f,c
  4394  0006D2  A0D8               	btfss	status,0,c
  4395  0006D4  0659               	decf	(efgtoa@w+1)^0,f,c
  4396  0006D6                     l4110:
  4397                           
  4398                           ;C:\Program Files\Microchip\xc8\v2.32\pic\sources\c99\common\doprnt.c: 357:         if (
      +                          (0 ? isupper((int)c) : ((unsigned)((int)c)-'A') < 26)) {
  4399  0006D6  C066  F001         	movff	efgtoa@g,___fpclassifyf@x
  4400  0006DA  C067  F002         	movff	efgtoa@g+1,___fpclassifyf@x+1
  4401  0006DE  C068  F003         	movff	efgtoa@g+2,___fpclassifyf@x+2
  4402  0006E2  C069  F004         	movff	efgtoa@g+3,___fpclassifyf@x+3
  4403  0006E6  EC4B  F01E         	call	___fpclassifyf	;wreg free
  4404  0006EA  0401               	decf	?___fpclassifyf^0,w,c
  4405  0006EC  1002               	iorwf	(?___fpclassifyf+1)^0,w,c
  4406  0006EE  A4D8               	btfss	status,2,c
  4407  0006F0  EF7C  F003         	goto	u4961
  4408  0006F4  EF7E  F003         	goto	u4960
  4409  0006F8                     u4961:
  4410  0006F8  EFD3  F003         	goto	l4128
  4411  0006FC                     u4960:
  4412  0006FC  0EBF               	movlw	191
  4413  0006FE  6E35               	movwf	??_efgtoa^0,c
  4414  000700  0EFF               	movlw	255
  4415  000702  6E36               	movwf	(??_efgtoa+1)^0,c
  4416  000704  5034               	movf	efgtoa@c^0,w,c
  4417  000706  6E37               	movwf	(??_efgtoa+2)^0,c
  4418  000708  6A38               	clrf	(??_efgtoa+3)^0,c
  4419  00070A  5035               	movf	??_efgtoa^0,w,c
  4420  00070C  2637               	addwf	(??_efgtoa+2)^0,f,c
  4421  00070E  5036               	movf	(??_efgtoa+1)^0,w,c
  4422  000710  2238               	addwfc	(??_efgtoa+3)^0,f,c
  4423  000712  5038               	movf	(??_efgtoa+3)^0,w,c
  4424  000714  E10A               	bnz	u4970
  4425  000716  0E1A               	movlw	26
  4426  000718  5C37               	subwf	(??_efgtoa+2)^0,w,c
  4427  00071A  A0D8               	btfss	status,0,c
  4428  00071C  EF92  F003         	goto	u4971
  4429  000720  EF95  F003         	goto	u4970
  4430  000724                     u4971:
  4431  000724  0E01               	movlw	1
  4432  000726  EF96  F003         	goto	u4980
  4433  00072A                     u4970:
  4434  00072A  0E00               	movlw	0
  4435  00072C                     u4980:
  4436  00072C  6E3C               	movwf	_efgtoa$848^0,c
  4437  00072E  6A3D               	clrf	(_efgtoa$848+1)^0,c
  4438  000730  503C               	movf	_efgtoa$848^0,w,c
  4439  000732  103D               	iorwf	(_efgtoa$848+1)^0,w,c
  4440  000734  B4D8               	btfsc	status,2,c
  4441  000736  EF9F  F003         	goto	u4991
  4442  00073A  EFA1  F003         	goto	u4990
  4443  00073E                     u4991:
  4444  00073E  EFAF  F003         	goto	l4120
  4445  000742                     u4990:
  4446  000742                     
  4447                           ;C:\Program Files\Microchip\xc8\v2.32\pic\sources\c99\common\doprnt.c: 358:             
      +                          strcpy(&dbuf[n], "INF");
  4448  000742  0E00               	movlw	low _dbuf
  4449  000744  246C               	addwf	efgtoa@n^0,w,c
  4450  000746  6E01               	movwf	strcpy@dest^0,c
  4451  000748  0E01               	movlw	high _dbuf
  4452  00074A  206D               	addwfc	(efgtoa@n+1)^0,w,c
  4453  00074C  6E02               	movwf	(strcpy@dest+1)^0,c
  4454  00074E  0E06               	movlw	low STR_21
  4455  000750  6E03               	movwf	strcpy@src^0,c
  4456  000752  0E06               	movlw	high STR_21
  4457  000754  6E04               	movwf	(strcpy@src+1)^0,c
  4458  000756  EC1C  F023         	call	_strcpy	;wreg free
  4459                           
  4460                           ;C:\Program Files\Microchip\xc8\v2.32\pic\sources\c99\common\doprnt.c: 359:         } el
      +                          se {
  4461  00075A  EFBB  F003         	goto	l4122
  4462  00075E                     l4120:
  4463                           
  4464                           ;C:\Program Files\Microchip\xc8\v2.32\pic\sources\c99\common\doprnt.c: 360:             
      +                          strcpy(&dbuf[n], "inf");
  4465  00075E  0E00               	movlw	low _dbuf
  4466  000760  246C               	addwf	efgtoa@n^0,w,c
  4467  000762  6E01               	movwf	strcpy@dest^0,c
  4468  000764  0E01               	movlw	high _dbuf
  4469  000766  206D               	addwfc	(efgtoa@n+1)^0,w,c
  4470  000768  6E02               	movwf	(strcpy@dest+1)^0,c
  4471  00076A  0E0E               	movlw	low STR_22
  4472  00076C  6E03               	movwf	strcpy@src^0,c
  4473  00076E  0E06               	movlw	high STR_22
  4474  000770  6E04               	movwf	(strcpy@src+1)^0,c
  4475  000772  EC1C  F023         	call	_strcpy	;wreg free
  4476  000776                     l4122:
  4477                           
  4478                           ;C:\Program Files\Microchip\xc8\v2.32\pic\sources\c99\common\doprnt.c: 362:         w -=
      +                           ((sizeof("inf")/sizeof("inf"[0]))-1);
  4479  000776  0EFD               	movlw	253
  4480  000778  2658               	addwf	efgtoa@w^0,f,c
  4481  00077A  0EFF               	movlw	255
  4482  00077C  2259               	addwfc	(efgtoa@w+1)^0,f,c
  4483  00077E                     
  4484                           ;C:\Program Files\Microchip\xc8\v2.32\pic\sources\c99\common\doprnt.c: 363:         retu
      +                          rn pad(fp, &dbuf[0], w);
  4485  00077E  C02E  F016         	movff	efgtoa@fp,pad@fp
  4486  000782  C02F  F017         	movff	efgtoa@fp+1,pad@fp+1
  4487  000786  0E00               	movlw	low _dbuf
  4488  000788  6E18               	movwf	pad@buf^0,c
  4489  00078A  0E01               	movlw	high _dbuf
  4490  00078C  6E19               	movwf	(pad@buf+1)^0,c
  4491  00078E  C058  F01A         	movff	efgtoa@w,pad@p
  4492  000792  C059  F01B         	movff	efgtoa@w+1,pad@p+1
  4493  000796  ECA1  F01F         	call	_pad	;wreg free
  4494  00079A  C016  F02E         	movff	?_pad,?_efgtoa
  4495  00079E  C017  F02F         	movff	?_pad+1,?_efgtoa+1
  4496  0007A2  EF53  F009         	goto	l926
  4497  0007A6                     l4128:
  4498                           
  4499                           ;C:\Program Files\Microchip\xc8\v2.32\pic\sources\c99\common\doprnt.c: 366:         if (
      +                          (0 ? isupper((int)c) : ((unsigned)((int)c)-'A') < 26)) {
  4500  0007A6  C066  F001         	movff	efgtoa@g,___fpclassifyf@x
  4501  0007AA  C067  F002         	movff	efgtoa@g+1,___fpclassifyf@x+1
  4502  0007AE  C068  F003         	movff	efgtoa@g+2,___fpclassifyf@x+2
  4503  0007B2  C069  F004         	movff	efgtoa@g+3,___fpclassifyf@x+3
  4504  0007B6  EC4B  F01E         	call	___fpclassifyf	;wreg free
  4505  0007BA  5001               	movf	?___fpclassifyf^0,w,c
  4506  0007BC  1002               	iorwf	(?___fpclassifyf+1)^0,w,c
  4507  0007BE  A4D8               	btfss	status,2,c
  4508  0007C0  EFE4  F003         	goto	u5001
  4509  0007C4  EFE6  F003         	goto	u5000
  4510  0007C8                     u5001:
  4511  0007C8  EF3B  F004         	goto	l4146
  4512  0007CC                     u5000:
  4513  0007CC  0EBF               	movlw	191
  4514  0007CE  6E35               	movwf	??_efgtoa^0,c
  4515  0007D0  0EFF               	movlw	255
  4516  0007D2  6E36               	movwf	(??_efgtoa+1)^0,c
  4517  0007D4  5034               	movf	efgtoa@c^0,w,c
  4518  0007D6  6E37               	movwf	(??_efgtoa+2)^0,c
  4519  0007D8  6A38               	clrf	(??_efgtoa+3)^0,c
  4520  0007DA  5035               	movf	??_efgtoa^0,w,c
  4521  0007DC  2637               	addwf	(??_efgtoa+2)^0,f,c
  4522  0007DE  5036               	movf	(??_efgtoa+1)^0,w,c
  4523  0007E0  2238               	addwfc	(??_efgtoa+3)^0,f,c
  4524  0007E2  5038               	movf	(??_efgtoa+3)^0,w,c
  4525  0007E4  E10A               	bnz	u5010
  4526  0007E6  0E1A               	movlw	26
  4527  0007E8  5C37               	subwf	(??_efgtoa+2)^0,w,c
  4528  0007EA  A0D8               	btfss	status,0,c
  4529  0007EC  EFFA  F003         	goto	u5011
  4530  0007F0  EFFD  F003         	goto	u5010
  4531  0007F4                     u5011:
  4532  0007F4  0E01               	movlw	1
  4533  0007F6  EFFE  F003         	goto	u5020
  4534  0007FA                     u5010:
  4535  0007FA  0E00               	movlw	0
  4536  0007FC                     u5020:
  4537  0007FC  6E3E               	movwf	_efgtoa$853^0,c
  4538  0007FE  6A3F               	clrf	(_efgtoa$853+1)^0,c
  4539  000800  503E               	movf	_efgtoa$853^0,w,c
  4540  000802  103F               	iorwf	(_efgtoa$853+1)^0,w,c
  4541  000804  B4D8               	btfsc	status,2,c
  4542  000806  EF07  F004         	goto	u5031
  4543  00080A  EF09  F004         	goto	u5030
  4544  00080E                     u5031:
  4545  00080E  EF17  F004         	goto	l4138
  4546  000812                     u5030:
  4547  000812                     
  4548                           ;C:\Program Files\Microchip\xc8\v2.32\pic\sources\c99\common\doprnt.c: 367:             
      +                          strcpy(&dbuf[n], "NAN");
  4549  000812  0E00               	movlw	low _dbuf
  4550  000814  246C               	addwf	efgtoa@n^0,w,c
  4551  000816  6E01               	movwf	strcpy@dest^0,c
  4552  000818  0E01               	movlw	high _dbuf
  4553  00081A  206D               	addwfc	(efgtoa@n+1)^0,w,c
  4554  00081C  6E02               	movwf	(strcpy@dest+1)^0,c
  4555  00081E  0E0A               	movlw	low STR_25
  4556  000820  6E03               	movwf	strcpy@src^0,c
  4557  000822  0E06               	movlw	high STR_25
  4558  000824  6E04               	movwf	(strcpy@src+1)^0,c
  4559  000826  EC1C  F023         	call	_strcpy	;wreg free
  4560                           
  4561                           ;C:\Program Files\Microchip\xc8\v2.32\pic\sources\c99\common\doprnt.c: 368:         } el
      +                          se {
  4562  00082A  EF23  F004         	goto	l4140
  4563  00082E                     l4138:
  4564                           
  4565                           ;C:\Program Files\Microchip\xc8\v2.32\pic\sources\c99\common\doprnt.c: 369:             
      +                          strcpy(&dbuf[n], "nan");
  4566  00082E  0E00               	movlw	low _dbuf
  4567  000830  246C               	addwf	efgtoa@n^0,w,c
  4568  000832  6E01               	movwf	strcpy@dest^0,c
  4569  000834  0E01               	movlw	high _dbuf
  4570  000836  206D               	addwfc	(efgtoa@n+1)^0,w,c
  4571  000838  6E02               	movwf	(strcpy@dest+1)^0,c
  4572  00083A  0E12               	movlw	low STR_26
  4573  00083C  6E03               	movwf	strcpy@src^0,c
  4574  00083E  0E06               	movlw	high STR_26
  4575  000840  6E04               	movwf	(strcpy@src+1)^0,c
  4576  000842  EC1C  F023         	call	_strcpy	;wreg free
  4577  000846                     l4140:
  4578                           
  4579                           ;C:\Program Files\Microchip\xc8\v2.32\pic\sources\c99\common\doprnt.c: 371:         w -=
      +                           ((sizeof("inf")/sizeof("inf"[0]))-1);
  4580  000846  0EFD               	movlw	253
  4581  000848  2658               	addwf	efgtoa@w^0,f,c
  4582  00084A  0EFF               	movlw	255
  4583  00084C  2259               	addwfc	(efgtoa@w+1)^0,f,c
  4584  00084E                     
  4585                           ;C:\Program Files\Microchip\xc8\v2.32\pic\sources\c99\common\doprnt.c: 372:         retu
      +                          rn pad(fp, &dbuf[0], w);
  4586  00084E  C02E  F016         	movff	efgtoa@fp,pad@fp
  4587  000852  C02F  F017         	movff	efgtoa@fp+1,pad@fp+1
  4588  000856  0E00               	movlw	low _dbuf
  4589  000858  6E18               	movwf	pad@buf^0,c
  4590  00085A  0E01               	movlw	high _dbuf
  4591  00085C  6E19               	movwf	(pad@buf+1)^0,c
  4592  00085E  C058  F01A         	movff	efgtoa@w,pad@p
  4593  000862  C059  F01B         	movff	efgtoa@w+1,pad@p+1
  4594  000866  ECA1  F01F         	call	_pad	;wreg free
  4595  00086A  C016  F02E         	movff	?_pad,?_efgtoa
  4596  00086E  C017  F02F         	movff	?_pad+1,?_efgtoa+1
  4597  000872  EF53  F009         	goto	l926
  4598  000876                     l4146:
  4599                           
  4600                           ;C:\Program Files\Microchip\xc8\v2.32\pic\sources\c99\common\doprnt.c: 376:     u = 1.0;
  4601  000876  0E00               	movlw	0
  4602  000878  6E6E               	movwf	efgtoa@u^0,c
  4603  00087A  0E00               	movlw	0
  4604  00087C  6E6F               	movwf	(efgtoa@u+1)^0,c
  4605  00087E  0E80               	movlw	128
  4606  000880  6E70               	movwf	(efgtoa@u+2)^0,c
  4607  000882  0E3F               	movlw	63
  4608  000884  6E71               	movwf	(efgtoa@u+3)^0,c
  4609                           
  4610                           ;C:\Program Files\Microchip\xc8\v2.32\pic\sources\c99\common\doprnt.c: 377:     e = 0;
  4611  000886  0E00               	movlw	0
  4612  000888  6E6B               	movwf	(efgtoa@e+1)^0,c
  4613  00088A  0E00               	movlw	0
  4614  00088C  6E6A               	movwf	efgtoa@e^0,c
  4615  00088E                     
  4616                           ;C:\Program Files\Microchip\xc8\v2.32\pic\sources\c99\common\doprnt.c: 378:     if (!(g 
      +                          == 0.0)) {
  4617  00088E  C066  F001         	movff	efgtoa@g,___fleq@ff1
  4618  000892  C067  F002         	movff	efgtoa@g+1,___fleq@ff1+1
  4619  000896  C068  F003         	movff	efgtoa@g+2,___fleq@ff1+2
  4620  00089A  C069  F004         	movff	efgtoa@g+3,___fleq@ff1+3
  4621  00089E  0E00               	movlw	0
  4622  0008A0  6E05               	movwf	___fleq@ff2^0,c
  4623  0008A2  0E00               	movlw	0
  4624  0008A4  6E06               	movwf	(___fleq@ff2+1)^0,c
  4625  0008A6  0E00               	movlw	0
  4626  0008A8  6E07               	movwf	(___fleq@ff2+2)^0,c
  4627  0008AA  0E00               	movlw	0
  4628  0008AC  6E08               	movwf	(___fleq@ff2+3)^0,c
  4629  0008AE  EC17  F021         	call	___fleq	;wreg free
  4630  0008B2  B0D8               	btfsc	status,0,c
  4631  0008B4  EF5E  F004         	goto	u5041
  4632  0008B8  EF60  F004         	goto	u5040
  4633  0008BC                     u5041:
  4634  0008BC  EFE1  F004         	goto	l4164
  4635  0008C0                     u5040:
  4636  0008C0  EF7E  F004         	goto	l4156
  4637  0008C4                     l4152:
  4638                           
  4639                           ;C:\Program Files\Microchip\xc8\v2.32\pic\sources\c99\common\doprnt.c: 380:             
      +                          u = u*10.0;
  4640  0008C4  C06E  F001         	movff	efgtoa@u,___flmul@b
  4641  0008C8  C06F  F002         	movff	efgtoa@u+1,___flmul@b+1
  4642  0008CC  C070  F003         	movff	efgtoa@u+2,___flmul@b+2
  4643  0008D0  C071  F004         	movff	efgtoa@u+3,___flmul@b+3
  4644  0008D4  0E00               	movlw	0
  4645  0008D6  6E05               	movwf	___flmul@a^0,c
  4646  0008D8  0E00               	movlw	0
  4647  0008DA  6E06               	movwf	(___flmul@a+1)^0,c
  4648  0008DC  0E20               	movlw	32
  4649  0008DE  6E07               	movwf	(___flmul@a+2)^0,c
  4650  0008E0  0E41               	movlw	65
  4651  0008E2  6E08               	movwf	(___flmul@a+3)^0,c
  4652  0008E4  EC27  F015         	call	___flmul	;wreg free
  4653  0008E8  C001  F06E         	movff	?___flmul,efgtoa@u
  4654  0008EC  C002  F06F         	movff	?___flmul+1,efgtoa@u+1
  4655  0008F0  C003  F070         	movff	?___flmul+2,efgtoa@u+2
  4656  0008F4  C004  F071         	movff	?___flmul+3,efgtoa@u+3
  4657  0008F8                     
  4658                           ;C:\Program Files\Microchip\xc8\v2.32\pic\sources\c99\common\doprnt.c: 381:             
      +                          ++e;
  4659  0008F8  4A6A               	infsnz	efgtoa@e^0,f,c
  4660  0008FA  2A6B               	incf	(efgtoa@e+1)^0,f,c
  4661  0008FC                     l4156:
  4662                           
  4663                           ;C:\Program Files\Microchip\xc8\v2.32\pic\sources\c99\common\doprnt.c: 379:         whil
      +                          e (!(g < (u*10.0))) {
  4664  0008FC  C066  F01A         	movff	efgtoa@g,___flge@ff1
  4665  000900  C067  F01B         	movff	efgtoa@g+1,___flge@ff1+1
  4666  000904  C068  F01C         	movff	efgtoa@g+2,___flge@ff1+2
  4667  000908  C069  F01D         	movff	efgtoa@g+3,___flge@ff1+3
  4668  00090C  0E00               	movlw	0
  4669  00090E  6E05               	movwf	___flmul@a^0,c
  4670  000910  0E00               	movlw	0
  4671  000912  6E06               	movwf	(___flmul@a+1)^0,c
  4672  000914  0E20               	movlw	32
  4673  000916  6E07               	movwf	(___flmul@a+2)^0,c
  4674  000918  0E41               	movlw	65
  4675  00091A  6E08               	movwf	(___flmul@a+3)^0,c
  4676  00091C  C06E  F001         	movff	efgtoa@u,___flmul@b
  4677  000920  C06F  F002         	movff	efgtoa@u+1,___flmul@b+1
  4678  000924  C070  F003         	movff	efgtoa@u+2,___flmul@b+2
  4679  000928  C071  F004         	movff	efgtoa@u+3,___flmul@b+3
  4680  00092C  EC27  F015         	call	___flmul	;wreg free
  4681  000930  C001  F01E         	movff	?___flmul,___flge@ff2
  4682  000934  C002  F01F         	movff	?___flmul+1,___flge@ff2+1
  4683  000938  C003  F020         	movff	?___flmul+2,___flge@ff2+2
  4684  00093C  C004  F021         	movff	?___flmul+3,___flge@ff2+3
  4685  000940  ECC9  F01D         	call	___flge	;wreg free
  4686  000944  B0D8               	btfsc	status,0,c
  4687  000946  EFA7  F004         	goto	u5051
  4688  00094A  EFA9  F004         	goto	u5050
  4689  00094E                     u5051:
  4690  00094E  EF62  F004         	goto	l4152
  4691  000952                     u5050:
  4692  000952  EFC8  F004         	goto	l4162
  4693  000956                     l4158:
  4694                           
  4695                           ;C:\Program Files\Microchip\xc8\v2.32\pic\sources\c99\common\doprnt.c: 384:             
      +                          u = u/10.0;
  4696  000956  C06E  F001         	movff	efgtoa@u,___fldiv@b
  4697  00095A  C06F  F002         	movff	efgtoa@u+1,___fldiv@b+1
  4698  00095E  C070  F003         	movff	efgtoa@u+2,___fldiv@b+2
  4699  000962  C071  F004         	movff	efgtoa@u+3,___fldiv@b+3
  4700  000966  0E00               	movlw	0
  4701  000968  6E05               	movwf	___fldiv@a^0,c
  4702  00096A  0E00               	movlw	0
  4703  00096C  6E06               	movwf	(___fldiv@a+1)^0,c
  4704  00096E  0E20               	movlw	32
  4705  000970  6E07               	movwf	(___fldiv@a+2)^0,c
  4706  000972  0E41               	movlw	65
  4707  000974  6E08               	movwf	(___fldiv@a+3)^0,c
  4708  000976  EC3C  F017         	call	___fldiv	;wreg free
  4709  00097A  C001  F06E         	movff	?___fldiv,efgtoa@u
  4710  00097E  C002  F06F         	movff	?___fldiv+1,efgtoa@u+1
  4711  000982  C003  F070         	movff	?___fldiv+2,efgtoa@u+2
  4712  000986  C004  F071         	movff	?___fldiv+3,efgtoa@u+3
  4713  00098A                     
  4714                           ;C:\Program Files\Microchip\xc8\v2.32\pic\sources\c99\common\doprnt.c: 385:             
      +                          --e;
  4715  00098A  066A               	decf	efgtoa@e^0,f,c
  4716  00098C  A0D8               	btfss	status,0,c
  4717  00098E  066B               	decf	(efgtoa@e+1)^0,f,c
  4718  000990                     l4162:
  4719                           
  4720                           ;C:\Program Files\Microchip\xc8\v2.32\pic\sources\c99\common\doprnt.c: 383:         whil
      +                          e (g < u) {
  4721  000990  C066  F01A         	movff	efgtoa@g,___flge@ff1
  4722  000994  C067  F01B         	movff	efgtoa@g+1,___flge@ff1+1
  4723  000998  C068  F01C         	movff	efgtoa@g+2,___flge@ff1+2
  4724  00099C  C069  F01D         	movff	efgtoa@g+3,___flge@ff1+3
  4725  0009A0  C06E  F01E         	movff	efgtoa@u,___flge@ff2
  4726  0009A4  C06F  F01F         	movff	efgtoa@u+1,___flge@ff2+1
  4727  0009A8  C070  F020         	movff	efgtoa@u+2,___flge@ff2+2
  4728  0009AC  C071  F021         	movff	efgtoa@u+3,___flge@ff2+3
  4729  0009B0  ECC9  F01D         	call	___flge	;wreg free
  4730  0009B4  A0D8               	btfss	status,0,c
  4731  0009B6  EFDF  F004         	goto	u5061
  4732  0009BA  EFE1  F004         	goto	u5060
  4733  0009BE                     u5061:
  4734  0009BE  EFAB  F004         	goto	l4158
  4735  0009C2                     u5060:
  4736  0009C2                     l4164:
  4737                           
  4738                           ;C:\Program Files\Microchip\xc8\v2.32\pic\sources\c99\common\doprnt.c: 390:     mode = (
      +                          char)tolower((int)c);
  4739  0009C2  C034  F007         	movff	efgtoa@c,tolower@c
  4740  0009C6  6A08               	clrf	(tolower@c+1)^0,c
  4741  0009C8  ECBD  F022         	call	_tolower	;wreg free
  4742  0009CC  5007               	movf	?_tolower^0,w,c
  4743  0009CE  6E5B               	movwf	efgtoa@mode^0,c
  4744  0009D0                     
  4745                           ;C:\Program Files\Microchip\xc8\v2.32\pic\sources\c99\common\doprnt.c: 391:     nmode = 
      +                          mode;
  4746  0009D0  C05B  F05A         	movff	efgtoa@mode,efgtoa@nmode
  4747  0009D4                     
  4748                           ;C:\Program Files\Microchip\xc8\v2.32\pic\sources\c99\common\doprnt.c: 392:     if (mode
      +                           == 'g') {
  4749  0009D4  0E67               	movlw	103
  4750  0009D6  185B               	xorwf	efgtoa@mode^0,w,c
  4751  0009D8  A4D8               	btfss	status,2,c
  4752  0009DA  EFF1  F004         	goto	u5071
  4753  0009DE  EFF3  F004         	goto	u5070
  4754  0009E2                     u5071:
  4755  0009E2  EF1A  F005         	goto	l4178
  4756  0009E6                     u5070:
  4757  0009E6                     
  4758                           ;C:\Program Files\Microchip\xc8\v2.32\pic\sources\c99\common\doprnt.c: 393:   if (prec =
      +                          = 0) {
  4759  0009E6  0100               	movlb	0	; () banked
  4760  0009E8  51EE               	movf	_prec& (0+255),w,b
  4761  0009EA  11EF               	iorwf	(_prec+1)& (0+255),w,b
  4762  0009EC  A4D8               	btfss	status,2,c
  4763  0009EE  EFFB  F004         	goto	u5081
  4764  0009F2  EFFD  F004         	goto	u5080
  4765  0009F6                     u5081:
  4766  0009F6  EF01  F005         	goto	l4174
  4767  0009FA                     u5080:
  4768  0009FA                     
  4769                           ; BSR set to: 0
  4770                           ;C:\Program Files\Microchip\xc8\v2.32\pic\sources\c99\common\doprnt.c: 394:    prec = 1;
  4771  0009FA  0E00               	movlw	0
  4772  0009FC  6FEF               	movwf	(_prec+1)& (0+255),b
  4773  0009FE  0E01               	movlw	1
  4774  000A00  6FEE               	movwf	_prec& (0+255),b
  4775  000A02                     l4174:
  4776                           
  4777                           ; BSR set to: 0
  4778                           ;C:\Program Files\Microchip\xc8\v2.32\pic\sources\c99\common\doprnt.c: 396:         p = 
      +                          (0 < prec) ? prec : 6;
  4779  000A02  BFEF               	btfsc	(_prec+1)& (0+255),7,b
  4780  000A04  EF0E  F005         	goto	u5090
  4781  000A08  51EF               	movf	(_prec+1)& (0+255),w,b
  4782  000A0A  E106               	bnz	u5091
  4783  000A0C  05EE               	decf	_prec& (0+255),w,b
  4784  000A0E  B0D8               	btfsc	status,0,c
  4785  000A10  EF0C  F005         	goto	u5091
  4786  000A14  EF0E  F005         	goto	u5090
  4787  000A18                     u5091:
  4788  000A18  EF14  F005         	goto	l944
  4789  000A1C                     u5090:
  4790  000A1C                     l4176:
  4791                           
  4792                           ; BSR set to: 0
  4793  000A1C  0E00               	movlw	0
  4794  000A1E  6E57               	movwf	(efgtoa@p+1)^0,c
  4795  000A20  0E06               	movlw	6
  4796  000A22  6E56               	movwf	efgtoa@p^0,c
  4797  000A24  EF24  F005         	goto	l4184
  4798  000A28                     l944:
  4799                           
  4800                           ; BSR set to: 0
  4801  000A28  C0EE  F056         	movff	_prec,efgtoa@p
  4802  000A2C  C0EF  F057         	movff	_prec+1,efgtoa@p+1
  4803  000A30  EF24  F005         	goto	l4184
  4804  000A34                     l4178:
  4805                           
  4806                           ;C:\Program Files\Microchip\xc8\v2.32\pic\sources\c99\common\doprnt.c: 398:         p = 
      +                          (prec < 0) ? 6 : prec;
  4807  000A34  0100               	movlb	0	; () banked
  4808  000A36  BFEF               	btfsc	(_prec+1)& (0+255),7,b
  4809  000A38  EF20  F005         	goto	u5101
  4810  000A3C  EF22  F005         	goto	u5100
  4811  000A40                     u5101:
  4812  000A40  EF0E  F005         	goto	l4176
  4813  000A44                     u5100:
  4814  000A44  EF14  F005         	goto	l944
  4815  000A48                     l4184:
  4816                           
  4817                           ; BSR set to: 0
  4818                           ;C:\Program Files\Microchip\xc8\v2.32\pic\sources\c99\common\doprnt.c: 402:     if (mode
      +                           == 'g') {
  4819  000A48  0E67               	movlw	103
  4820  000A4A  185B               	xorwf	efgtoa@mode^0,w,c
  4821  000A4C  A4D8               	btfss	status,2,c
  4822  000A4E  EF2B  F005         	goto	u5111
  4823  000A52  EF2D  F005         	goto	u5110
  4824  000A56                     u5111:
  4825  000A56  EF5C  F005         	goto	l4194
  4826  000A5A                     u5110:
  4827  000A5A                     
  4828                           ; BSR set to: 0
  4829                           ;C:\Program Files\Microchip\xc8\v2.32\pic\sources\c99\common\doprnt.c: 403:         if (
      +                          !(e < -4) && !((p - 1) < e)) {
  4830  000A5A  AE6B               	btfss	(efgtoa@e+1)^0,7,c
  4831  000A5C  EF3B  F005         	goto	u5120
  4832  000A60  0EFC               	movlw	252
  4833  000A62  5C6A               	subwf	efgtoa@e^0,w,c
  4834  000A64  0EFF               	movlw	255
  4835  000A66  586B               	subwfb	(efgtoa@e+1)^0,w,c
  4836  000A68  A0D8               	btfss	status,0,c
  4837  000A6A  EF39  F005         	goto	u5121
  4838  000A6E  EF3B  F005         	goto	u5120
  4839  000A72                     u5121:
  4840  000A72  EF5A  F005         	goto	l4192
  4841  000A76                     u5120:
  4842  000A76                     
  4843                           ; BSR set to: 0
  4844  000A76  0EFF               	movlw	255
  4845  000A78  6E35               	movwf	??_efgtoa^0,c
  4846  000A7A  0EFF               	movlw	255
  4847  000A7C  6E36               	movwf	(??_efgtoa+1)^0,c
  4848  000A7E  C056  F037         	movff	efgtoa@p,??_efgtoa+2
  4849  000A82  C057  F038         	movff	efgtoa@p+1,??_efgtoa+3
  4850  000A86  5035               	movf	??_efgtoa^0,w,c
  4851  000A88  2637               	addwf	(??_efgtoa+2)^0,f,c
  4852  000A8A  5036               	movf	(??_efgtoa+1)^0,w,c
  4853  000A8C  2238               	addwfc	(??_efgtoa+3)^0,f,c
  4854  000A8E  506A               	movf	efgtoa@e^0,w,c
  4855  000A90  5C37               	subwf	(??_efgtoa+2)^0,w,c
  4856  000A92  5038               	movf	(??_efgtoa+3)^0,w,c
  4857  000A94  0A80               	xorlw	128
  4858  000A96  6E39               	movwf	(??_efgtoa+4)^0,c
  4859  000A98  506B               	movf	(efgtoa@e+1)^0,w,c
  4860  000A9A  0A80               	xorlw	128
  4861  000A9C  5839               	subwfb	(??_efgtoa+4)^0,w,c
  4862  000A9E  A0D8               	btfss	status,0,c
  4863  000AA0  EF54  F005         	goto	u5131
  4864  000AA4  EF56  F005         	goto	u5130
  4865  000AA8                     u5131:
  4866  000AA8  EF5A  F005         	goto	l4192
  4867  000AAC                     u5130:
  4868  000AAC                     
  4869                           ; BSR set to: 0
  4870                           ;C:\Program Files\Microchip\xc8\v2.32\pic\sources\c99\common\doprnt.c: 404:             
      +                          nmode = 'f';
  4871  000AAC  0E66               	movlw	102
  4872  000AAE  6E5A               	movwf	efgtoa@nmode^0,c
  4873                           
  4874                           ;C:\Program Files\Microchip\xc8\v2.32\pic\sources\c99\common\doprnt.c: 405:         } el
      +                          se {
  4875  000AB0  EF5C  F005         	goto	l4194
  4876  000AB4                     l4192:
  4877                           
  4878                           ; BSR set to: 0
  4879                           ;C:\Program Files\Microchip\xc8\v2.32\pic\sources\c99\common\doprnt.c: 406:             
      +                          nmode = 'e';
  4880  000AB4  0E65               	movlw	101
  4881  000AB6  6E5A               	movwf	efgtoa@nmode^0,c
  4882  000AB8                     l4194:
  4883                           
  4884                           ; BSR set to: 0
  4885                           ;C:\Program Files\Microchip\xc8\v2.32\pic\sources\c99\common\doprnt.c: 411:     m = p;
  4886  000AB8  C056  F04C         	movff	efgtoa@p,efgtoa@m
  4887  000ABC  C057  F04D         	movff	efgtoa@p+1,efgtoa@m+1
  4888  000AC0                     
  4889                           ; BSR set to: 0
  4890                           ;C:\Program Files\Microchip\xc8\v2.32\pic\sources\c99\common\doprnt.c: 412:     if (!(mo
      +                          de == 'g') || ((nmode == 'f') && (e < 0))) {
  4891  000AC0  0E67               	movlw	103
  4892  000AC2  185B               	xorwf	efgtoa@mode^0,w,c
  4893  000AC4  A4D8               	btfss	status,2,c
  4894  000AC6  EF67  F005         	goto	u5141
  4895  000ACA  EF69  F005         	goto	u5140
  4896  000ACE                     u5141:
  4897  000ACE  EF79  F005         	goto	l4202
  4898  000AD2                     u5140:
  4899  000AD2                     
  4900                           ; BSR set to: 0
  4901  000AD2  0E66               	movlw	102
  4902  000AD4  185A               	xorwf	efgtoa@nmode^0,w,c
  4903  000AD6  A4D8               	btfss	status,2,c
  4904  000AD8  EF70  F005         	goto	u5151
  4905  000ADC  EF72  F005         	goto	u5150
  4906  000AE0                     u5151:
  4907  000AE0  EF7B  F005         	goto	l4204
  4908  000AE4                     u5150:
  4909  000AE4                     
  4910                           ; BSR set to: 0
  4911  000AE4  BE6B               	btfsc	(efgtoa@e+1)^0,7,c
  4912  000AE6  EF79  F005         	goto	u5160
  4913  000AEA  EF77  F005         	goto	u5161
  4914  000AEE                     u5161:
  4915  000AEE  EF7B  F005         	goto	l4204
  4916  000AF2                     u5160:
  4917  000AF2                     l4202:
  4918                           
  4919                           ; BSR set to: 0
  4920                           ;C:\Program Files\Microchip\xc8\v2.32\pic\sources\c99\common\doprnt.c: 413:         ++m;
  4921  000AF2  4A4C               	infsnz	efgtoa@m^0,f,c
  4922  000AF4  2A4D               	incf	(efgtoa@m+1)^0,f,c
  4923  000AF6                     l4204:
  4924                           
  4925                           ; BSR set to: 0
  4926                           ;C:\Program Files\Microchip\xc8\v2.32\pic\sources\c99\common\doprnt.c: 417:     if (nmod
      +                          e == 'f') {
  4927  000AF6  0E66               	movlw	102
  4928  000AF8  185A               	xorwf	efgtoa@nmode^0,w,c
  4929  000AFA  A4D8               	btfss	status,2,c
  4930  000AFC  EF82  F005         	goto	u5171
  4931  000B00  EF84  F005         	goto	u5170
  4932  000B04                     u5171:
  4933  000B04  EFA4  F005         	goto	l4214
  4934  000B08                     u5170:
  4935  000B08                     
  4936                           ; BSR set to: 0
  4937                           ;C:\Program Files\Microchip\xc8\v2.32\pic\sources\c99\common\doprnt.c: 418:         if (
      +                          e < 0) {
  4938  000B08  BE6B               	btfsc	(efgtoa@e+1)^0,7,c
  4939  000B0A  EF8B  F005         	goto	u5180
  4940  000B0E  EF89  F005         	goto	u5181
  4941  000B12                     u5181:
  4942  000B12  EF97  F005         	goto	l4210
  4943  000B16                     u5180:
  4944  000B16                     
  4945                           ; BSR set to: 0
  4946                           ;C:\Program Files\Microchip\xc8\v2.32\pic\sources\c99\common\doprnt.c: 419:             
      +                          u = 1.0;
  4947  000B16  0E00               	movlw	0
  4948  000B18  6E6E               	movwf	efgtoa@u^0,c
  4949  000B1A  0E00               	movlw	0
  4950  000B1C  6E6F               	movwf	(efgtoa@u+1)^0,c
  4951  000B1E  0E80               	movlw	128
  4952  000B20  6E70               	movwf	(efgtoa@u+2)^0,c
  4953  000B22  0E3F               	movlw	63
  4954  000B24  6E71               	movwf	(efgtoa@u+3)^0,c
  4955                           
  4956                           ;C:\Program Files\Microchip\xc8\v2.32\pic\sources\c99\common\doprnt.c: 420:             
      +                          e = 0;
  4957  000B26  0E00               	movlw	0
  4958  000B28  6E6B               	movwf	(efgtoa@e+1)^0,c
  4959  000B2A  0E00               	movlw	0
  4960  000B2C  6E6A               	movwf	efgtoa@e^0,c
  4961  000B2E                     l4210:
  4962                           
  4963                           ; BSR set to: 0
  4964                           ;C:\Program Files\Microchip\xc8\v2.32\pic\sources\c99\common\doprnt.c: 422:         if (
      +                          !(mode == 'g')) {
  4965  000B2E  0E67               	movlw	103
  4966  000B30  185B               	xorwf	efgtoa@mode^0,w,c
  4967  000B32  B4D8               	btfsc	status,2,c
  4968  000B34  EF9E  F005         	goto	u5191
  4969  000B38  EFA0  F005         	goto	u5190
  4970  000B3C                     u5191:
  4971  000B3C  EFA4  F005         	goto	l4214
  4972  000B40                     u5190:
  4973  000B40                     
  4974                           ; BSR set to: 0
  4975                           ;C:\Program Files\Microchip\xc8\v2.32\pic\sources\c99\common\doprnt.c: 423:             
      +                          m += e;
  4976  000B40  506A               	movf	efgtoa@e^0,w,c
  4977  000B42  264C               	addwf	efgtoa@m^0,f,c
  4978  000B44  506B               	movf	(efgtoa@e+1)^0,w,c
  4979  000B46  224D               	addwfc	(efgtoa@m+1)^0,f,c
  4980  000B48                     l4214:
  4981                           
  4982                           ; BSR set to: 0
  4983                           ;C:\Program Files\Microchip\xc8\v2.32\pic\sources\c99\common\doprnt.c: 428:     i = 0;
  4984  000B48  0E00               	movlw	0
  4985  000B4A  6E65               	movwf	(efgtoa@i+1)^0,c
  4986  000B4C  0E00               	movlw	0
  4987  000B4E  6E64               	movwf	efgtoa@i^0,c
  4988  000B50                     
  4989                           ; BSR set to: 0
  4990                           ;C:\Program Files\Microchip\xc8\v2.32\pic\sources\c99\common\doprnt.c: 429:     h = g;
  4991  000B50  C066  F05C         	movff	efgtoa@g,efgtoa@h
  4992  000B54  C067  F05D         	movff	efgtoa@g+1,efgtoa@h+1
  4993  000B58  C068  F05E         	movff	efgtoa@g+2,efgtoa@h+2
  4994  000B5C  C069  F05F         	movff	efgtoa@g+3,efgtoa@h+3
  4995  000B60                     
  4996                           ; BSR set to: 0
  4997                           ;C:\Program Files\Microchip\xc8\v2.32\pic\sources\c99\common\doprnt.c: 430:     ou = u;
  4998  000B60  C06E  F04E         	movff	efgtoa@u,efgtoa@ou
  4999  000B64  C06F  F04F         	movff	efgtoa@u+1,efgtoa@ou+1
  5000  000B68  C070  F050         	movff	efgtoa@u+2,efgtoa@ou+2
  5001  000B6C  C071  F051         	movff	efgtoa@u+3,efgtoa@ou+3
  5002                           
  5003                           ;C:\Program Files\Microchip\xc8\v2.32\pic\sources\c99\common\doprnt.c: 431:     while (i
      +                           < m) {
  5004  000B70  EF34  F006         	goto	l4228
  5005  000B74                     l4220:
  5006                           
  5007                           ;C:\Program Files\Microchip\xc8\v2.32\pic\sources\c99\common\doprnt.c: 432:         l = 
      +                          floorf(h/u);
  5008  000B74  C05C  F001         	movff	efgtoa@h,___fldiv@b
  5009  000B78  C05D  F002         	movff	efgtoa@h+1,___fldiv@b+1
  5010  000B7C  C05E  F003         	movff	efgtoa@h+2,___fldiv@b+2
  5011  000B80  C05F  F004         	movff	efgtoa@h+3,___fldiv@b+3
  5012  000B84  C06E  F005         	movff	efgtoa@u,___fldiv@a
  5013  000B88  C06F  F006         	movff	efgtoa@u+1,___fldiv@a+1
  5014  000B8C  C070  F007         	movff	efgtoa@u+2,___fldiv@a+2
  5015  000B90  C071  F008         	movff	efgtoa@u+3,___fldiv@a+3
  5016  000B94  EC3C  F017         	call	___fldiv	;wreg free
  5017  000B98  C001  F01A         	movff	?___fldiv,floorf@x
  5018  000B9C  C002  F01B         	movff	?___fldiv+1,floorf@x+1
  5019  000BA0  C003  F01C         	movff	?___fldiv+2,floorf@x+2
  5020  000BA4  C004  F01D         	movff	?___fldiv+3,floorf@x+3
  5021  000BA8  EC9B  F01A         	call	_floorf	;wreg free
  5022  000BAC  C01A  F060         	movff	?_floorf,efgtoa@l
  5023  000BB0  C01B  F061         	movff	?_floorf+1,efgtoa@l+1
  5024  000BB4  C01C  F062         	movff	?_floorf+2,efgtoa@l+2
  5025  000BB8  C01D  F063         	movff	?_floorf+3,efgtoa@l+3
  5026                           
  5027                           ;C:\Program Files\Microchip\xc8\v2.32\pic\sources\c99\common\doprnt.c: 433:         d = 
      +                          (int)l;
  5028  000BBC  C060  F001         	movff	efgtoa@l,___fltol@f1
  5029  000BC0  C061  F002         	movff	efgtoa@l+1,___fltol@f1+1
  5030  000BC4  C062  F003         	movff	efgtoa@l+2,___fltol@f1+2
  5031  000BC8  C063  F004         	movff	efgtoa@l+3,___fltol@f1+3
  5032  000BCC  EC46  F01D         	call	___fltol	;wreg free
  5033  000BD0  C001  F052         	movff	?___fltol,efgtoa@d
  5034  000BD4  C002  F053         	movff	?___fltol+1,efgtoa@d+1
  5035  000BD8                     
  5036                           ;C:\Program Files\Microchip\xc8\v2.32\pic\sources\c99\common\doprnt.c: 434:         h -=
      +                           l*u;
  5037  000BD8  C05C  F01A         	movff	efgtoa@h,___flsub@b
  5038  000BDC  C05D  F01B         	movff	efgtoa@h+1,___flsub@b+1
  5039  000BE0  C05E  F01C         	movff	efgtoa@h+2,___flsub@b+2
  5040  000BE4  C05F  F01D         	movff	efgtoa@h+3,___flsub@b+3
  5041  000BE8  C06E  F005         	movff	efgtoa@u,___flmul@a
  5042  000BEC  C06F  F006         	movff	efgtoa@u+1,___flmul@a+1
  5043  000BF0  C070  F007         	movff	efgtoa@u+2,___flmul@a+2
  5044  000BF4  C071  F008         	movff	efgtoa@u+3,___flmul@a+3
  5045  000BF8  C060  F001         	movff	efgtoa@l,___flmul@b
  5046  000BFC  C061  F002         	movff	efgtoa@l+1,___flmul@b+1
  5047  000C00  C062  F003         	movff	efgtoa@l+2,___flmul@b+2
  5048  000C04  C063  F004         	movff	efgtoa@l+3,___flmul@b+3
  5049  000C08  EC27  F015         	call	___flmul	;wreg free
  5050  000C0C  C001  F01E         	movff	?___flmul,___flsub@a
  5051  000C10  C002  F01F         	movff	?___flmul+1,___flsub@a+1
  5052  000C14  C003  F020         	movff	?___flmul+2,___flsub@a+2
  5053  000C18  C004  F021         	movff	?___flmul+3,___flsub@a+3
  5054  000C1C  EC73  F023         	call	___flsub	;wreg free
  5055  000C20  C01A  F05C         	movff	?___flsub,efgtoa@h
  5056  000C24  C01B  F05D         	movff	?___flsub+1,efgtoa@h+1
  5057  000C28  C01C  F05E         	movff	?___flsub+2,efgtoa@h+2
  5058  000C2C  C01D  F05F         	movff	?___flsub+3,efgtoa@h+3
  5059  000C30                     
  5060                           ;C:\Program Files\Microchip\xc8\v2.32\pic\sources\c99\common\doprnt.c: 435:         u = 
      +                          u/10.0;
  5061  000C30  C06E  F001         	movff	efgtoa@u,___fldiv@b
  5062  000C34  C06F  F002         	movff	efgtoa@u+1,___fldiv@b+1
  5063  000C38  C070  F003         	movff	efgtoa@u+2,___fldiv@b+2
  5064  000C3C  C071  F004         	movff	efgtoa@u+3,___fldiv@b+3
  5065  000C40  0E00               	movlw	0
  5066  000C42  6E05               	movwf	___fldiv@a^0,c
  5067  000C44  0E00               	movlw	0
  5068  000C46  6E06               	movwf	(___fldiv@a+1)^0,c
  5069  000C48  0E20               	movlw	32
  5070  000C4A  6E07               	movwf	(___fldiv@a+2)^0,c
  5071  000C4C  0E41               	movlw	65
  5072  000C4E  6E08               	movwf	(___fldiv@a+3)^0,c
  5073  000C50  EC3C  F017         	call	___fldiv	;wreg free
  5074  000C54  C001  F06E         	movff	?___fldiv,efgtoa@u
  5075  000C58  C002  F06F         	movff	?___fldiv+1,efgtoa@u+1
  5076  000C5C  C003  F070         	movff	?___fldiv+2,efgtoa@u+2
  5077  000C60  C004  F071         	movff	?___fldiv+3,efgtoa@u+3
  5078  000C64                     
  5079                           ;C:\Program Files\Microchip\xc8\v2.32\pic\sources\c99\common\doprnt.c: 436:         ++i;
  5080  000C64  4A64               	infsnz	efgtoa@i^0,f,c
  5081  000C66  2A65               	incf	(efgtoa@i+1)^0,f,c
  5082  000C68                     l4228:
  5083                           
  5084                           ;C:\Program Files\Microchip\xc8\v2.32\pic\sources\c99\common\doprnt.c: 431:     while (i
      +                           < m) {
  5085  000C68  504C               	movf	efgtoa@m^0,w,c
  5086  000C6A  5C64               	subwf	efgtoa@i^0,w,c
  5087  000C6C  5065               	movf	(efgtoa@i+1)^0,w,c
  5088  000C6E  0A80               	xorlw	128
  5089  000C70  6E35               	movwf	??_efgtoa^0,c
  5090  000C72  504D               	movf	(efgtoa@m+1)^0,w,c
  5091  000C74  0A80               	xorlw	128
  5092  000C76  5835               	subwfb	??_efgtoa^0,w,c
  5093  000C78  A0D8               	btfss	status,0,c
  5094  000C7A  EF41  F006         	goto	u5201
  5095  000C7E  EF43  F006         	goto	u5200
  5096  000C82                     u5201:
  5097  000C82  EFBA  F005         	goto	l4220
  5098  000C86                     u5200:
  5099  000C86                     
  5100                           ;C:\Program Files\Microchip\xc8\v2.32\pic\sources\c99\common\doprnt.c: 440:     l = u*5.
      +                          0;
  5101  000C86  C06E  F001         	movff	efgtoa@u,___flmul@b
  5102  000C8A  C06F  F002         	movff	efgtoa@u+1,___flmul@b+1
  5103  000C8E  C070  F003         	movff	efgtoa@u+2,___flmul@b+2
  5104  000C92  C071  F004         	movff	efgtoa@u+3,___flmul@b+3
  5105  000C96  0E00               	movlw	0
  5106  000C98  6E05               	movwf	___flmul@a^0,c
  5107  000C9A  0E00               	movlw	0
  5108  000C9C  6E06               	movwf	(___flmul@a+1)^0,c
  5109  000C9E  0EA0               	movlw	160
  5110  000CA0  6E07               	movwf	(___flmul@a+2)^0,c
  5111  000CA2  0E40               	movlw	64
  5112  000CA4  6E08               	movwf	(___flmul@a+3)^0,c
  5113  000CA6  EC27  F015         	call	___flmul	;wreg free
  5114  000CAA  C001  F060         	movff	?___flmul,efgtoa@l
  5115  000CAE  C002  F061         	movff	?___flmul+1,efgtoa@l+1
  5116  000CB2  C003  F062         	movff	?___flmul+2,efgtoa@l+2
  5117  000CB6  C004  F063         	movff	?___flmul+3,efgtoa@l+3
  5118  000CBA                     
  5119                           ;C:\Program Files\Microchip\xc8\v2.32\pic\sources\c99\common\doprnt.c: 441:     if (h < 
      +                          l) {
  5120  000CBA  C05C  F01A         	movff	efgtoa@h,___flge@ff1
  5121  000CBE  C05D  F01B         	movff	efgtoa@h+1,___flge@ff1+1
  5122  000CC2  C05E  F01C         	movff	efgtoa@h+2,___flge@ff1+2
  5123  000CC6  C05F  F01D         	movff	efgtoa@h+3,___flge@ff1+3
  5124  000CCA  C060  F01E         	movff	efgtoa@l,___flge@ff2
  5125  000CCE  C061  F01F         	movff	efgtoa@l+1,___flge@ff2+1
  5126  000CD2  C062  F020         	movff	efgtoa@l+2,___flge@ff2+2
  5127  000CD6  C063  F021         	movff	efgtoa@l+3,___flge@ff2+3
  5128  000CDA  ECC9  F01D         	call	___flge	;wreg free
  5129  000CDE  B0D8               	btfsc	status,0,c
  5130  000CE0  EF74  F006         	goto	u5211
  5131  000CE4  EF76  F006         	goto	u5210
  5132  000CE8                     u5211:
  5133  000CE8  EF80  F006         	goto	l4236
  5134  000CEC                     u5210:
  5135  000CEC                     
  5136                           ;C:\Program Files\Microchip\xc8\v2.32\pic\sources\c99\common\doprnt.c: 442:         l = 
      +                          0.0;
  5137  000CEC  0E00               	movlw	0
  5138  000CEE  6E60               	movwf	efgtoa@l^0,c
  5139  000CF0  0E00               	movlw	0
  5140  000CF2  6E61               	movwf	(efgtoa@l+1)^0,c
  5141  000CF4  0E00               	movlw	0
  5142  000CF6  6E62               	movwf	(efgtoa@l+2)^0,c
  5143  000CF8  0E00               	movlw	0
  5144  000CFA  6E63               	movwf	(efgtoa@l+3)^0,c
  5145                           
  5146                           ;C:\Program Files\Microchip\xc8\v2.32\pic\sources\c99\common\doprnt.c: 443:     } else {
  5147  000CFC  EFA8  F006         	goto	l4242
  5148  000D00                     l4236:
  5149                           
  5150                           ;C:\Program Files\Microchip\xc8\v2.32\pic\sources\c99\common\doprnt.c: 445:         if (
      +                          (h == l) && !(d % 2)) {
  5151  000D00  C05C  F001         	movff	efgtoa@h,___fleq@ff1
  5152  000D04  C05D  F002         	movff	efgtoa@h+1,___fleq@ff1+1
  5153  000D08  C05E  F003         	movff	efgtoa@h+2,___fleq@ff1+2
  5154  000D0C  C05F  F004         	movff	efgtoa@h+3,___fleq@ff1+3
  5155  000D10  C060  F005         	movff	efgtoa@l,___fleq@ff2
  5156  000D14  C061  F006         	movff	efgtoa@l+1,___fleq@ff2+1
  5157  000D18  C062  F007         	movff	efgtoa@l+2,___fleq@ff2+2
  5158  000D1C  C063  F008         	movff	efgtoa@l+3,___fleq@ff2+3
  5159  000D20  EC17  F021         	call	___fleq	;wreg free
  5160  000D24  A0D8               	btfss	status,0,c
  5161  000D26  EF97  F006         	goto	u5221
  5162  000D2A  EF99  F006         	goto	u5220
  5163  000D2E                     u5221:
  5164  000D2E  EFA8  F006         	goto	l4242
  5165  000D32                     u5220:
  5166  000D32  B052               	btfsc	efgtoa@d^0,0,c
  5167  000D34  EF9E  F006         	goto	u5231
  5168  000D38  EFA0  F006         	goto	u5230
  5169  000D3C                     u5231:
  5170  000D3C  EFA8  F006         	goto	l4242
  5171  000D40                     u5230:
  5172  000D40                     
  5173                           ;C:\Program Files\Microchip\xc8\v2.32\pic\sources\c99\common\doprnt.c: 446:             
      +                          l = 0.0;
  5174  000D40  0E00               	movlw	0
  5175  000D42  6E60               	movwf	efgtoa@l^0,c
  5176  000D44  0E00               	movlw	0
  5177  000D46  6E61               	movwf	(efgtoa@l+1)^0,c
  5178  000D48  0E00               	movlw	0
  5179  000D4A  6E62               	movwf	(efgtoa@l+2)^0,c
  5180  000D4C  0E00               	movlw	0
  5181  000D4E  6E63               	movwf	(efgtoa@l+3)^0,c
  5182  000D50                     l4242:
  5183                           
  5184                           ;C:\Program Files\Microchip\xc8\v2.32\pic\sources\c99\common\doprnt.c: 451:     h = g + 
      +                          l;
  5185  000D50  C066  F001         	movff	efgtoa@g,___fladd@b
  5186  000D54  C067  F002         	movff	efgtoa@g+1,___fladd@b+1
  5187  000D58  C068  F003         	movff	efgtoa@g+2,___fladd@b+2
  5188  000D5C  C069  F004         	movff	efgtoa@g+3,___fladd@b+3
  5189  000D60  C060  F005         	movff	efgtoa@l,___fladd@a
  5190  000D64  C061  F006         	movff	efgtoa@l+1,___fladd@a+1
  5191  000D68  C062  F007         	movff	efgtoa@l+2,___fladd@a+2
  5192  000D6C  C063  F008         	movff	efgtoa@l+3,___fladd@a+3
  5193  000D70  EC9F  F010         	call	___fladd	;wreg free
  5194  000D74  C001  F05C         	movff	?___fladd,efgtoa@h
  5195  000D78  C002  F05D         	movff	?___fladd+1,efgtoa@h+1
  5196  000D7C  C003  F05E         	movff	?___fladd+2,efgtoa@h+2
  5197  000D80  C004  F05F         	movff	?___fladd+3,efgtoa@h+3
  5198  000D84                     
  5199                           ;C:\Program Files\Microchip\xc8\v2.32\pic\sources\c99\common\doprnt.c: 453:  if (h >= (o
      +                          u*10.0)) {
  5200  000D84  C05C  F01A         	movff	efgtoa@h,___flge@ff1
  5201  000D88  C05D  F01B         	movff	efgtoa@h+1,___flge@ff1+1
  5202  000D8C  C05E  F01C         	movff	efgtoa@h+2,___flge@ff1+2
  5203  000D90  C05F  F01D         	movff	efgtoa@h+3,___flge@ff1+3
  5204  000D94  0E00               	movlw	0
  5205  000D96  6E05               	movwf	___flmul@a^0,c
  5206  000D98  0E00               	movlw	0
  5207  000D9A  6E06               	movwf	(___flmul@a+1)^0,c
  5208  000D9C  0E20               	movlw	32
  5209  000D9E  6E07               	movwf	(___flmul@a+2)^0,c
  5210  000DA0  0E41               	movlw	65
  5211  000DA2  6E08               	movwf	(___flmul@a+3)^0,c
  5212  000DA4  C04E  F001         	movff	efgtoa@ou,___flmul@b
  5213  000DA8  C04F  F002         	movff	efgtoa@ou+1,___flmul@b+1
  5214  000DAC  C050  F003         	movff	efgtoa@ou+2,___flmul@b+2
  5215  000DB0  C051  F004         	movff	efgtoa@ou+3,___flmul@b+3
  5216  000DB4  EC27  F015         	call	___flmul	;wreg free
  5217  000DB8  C001  F01E         	movff	?___flmul,___flge@ff2
  5218  000DBC  C002  F01F         	movff	?___flmul+1,___flge@ff2+1
  5219  000DC0  C003  F020         	movff	?___flmul+2,___flge@ff2+2
  5220  000DC4  C004  F021         	movff	?___flmul+3,___flge@ff2+3
  5221  000DC8  ECC9  F01D         	call	___flge	;wreg free
  5222  000DCC  A0D8               	btfss	status,0,c
  5223  000DCE  EFEB  F006         	goto	u5241
  5224  000DD2  EFED  F006         	goto	u5240
  5225  000DD6                     u5241:
  5226  000DD6  EF14  F007         	goto	l4254
  5227  000DDA                     u5240:
  5228  000DDA                     
  5229                           ;C:\Program Files\Microchip\xc8\v2.32\pic\sources\c99\common\doprnt.c: 454:   e++;
  5230  000DDA  4A6A               	infsnz	efgtoa@e^0,f,c
  5231  000DDC  2A6B               	incf	(efgtoa@e+1)^0,f,c
  5232  000DDE                     
  5233                           ;C:\Program Files\Microchip\xc8\v2.32\pic\sources\c99\common\doprnt.c: 455:   ou *= 10.0
      +                          ;
  5234  000DDE  C04E  F001         	movff	efgtoa@ou,___flmul@b
  5235  000DE2  C04F  F002         	movff	efgtoa@ou+1,___flmul@b+1
  5236  000DE6  C050  F003         	movff	efgtoa@ou+2,___flmul@b+2
  5237  000DEA  C051  F004         	movff	efgtoa@ou+3,___flmul@b+3
  5238  000DEE  0E00               	movlw	0
  5239  000DF0  6E05               	movwf	___flmul@a^0,c
  5240  000DF2  0E00               	movlw	0
  5241  000DF4  6E06               	movwf	(___flmul@a+1)^0,c
  5242  000DF6  0E20               	movlw	32
  5243  000DF8  6E07               	movwf	(___flmul@a+2)^0,c
  5244  000DFA  0E41               	movlw	65
  5245  000DFC  6E08               	movwf	(___flmul@a+3)^0,c
  5246  000DFE  EC27  F015         	call	___flmul	;wreg free
  5247  000E02  C001  F04E         	movff	?___flmul,efgtoa@ou
  5248  000E06  C002  F04F         	movff	?___flmul+1,efgtoa@ou+1
  5249  000E0A  C003  F050         	movff	?___flmul+2,efgtoa@ou+2
  5250  000E0E  C004  F051         	movff	?___flmul+3,efgtoa@ou+3
  5251  000E12                     
  5252                           ;C:\Program Files\Microchip\xc8\v2.32\pic\sources\c99\common\doprnt.c: 456:   if (nmode 
      +                          == 'f') {
  5253  000E12  0E66               	movlw	102
  5254  000E14  185A               	xorwf	efgtoa@nmode^0,w,c
  5255  000E16  A4D8               	btfss	status,2,c
  5256  000E18  EF10  F007         	goto	u5251
  5257  000E1C  EF12  F007         	goto	u5250
  5258  000E20                     u5251:
  5259  000E20  EF14  F007         	goto	l4254
  5260  000E24                     u5250:
  5261  000E24                     
  5262                           ;C:\Program Files\Microchip\xc8\v2.32\pic\sources\c99\common\doprnt.c: 458:    m++;
  5263  000E24  4A4C               	infsnz	efgtoa@m^0,f,c
  5264  000E26  2A4D               	incf	(efgtoa@m+1)^0,f,c
  5265  000E28                     l4254:
  5266                           
  5267                           ;C:\Program Files\Microchip\xc8\v2.32\pic\sources\c99\common\doprnt.c: 463:     u = ou;
  5268  000E28  C04E  F06E         	movff	efgtoa@ou,efgtoa@u
  5269  000E2C  C04F  F06F         	movff	efgtoa@ou+1,efgtoa@u+1
  5270  000E30  C050  F070         	movff	efgtoa@ou+2,efgtoa@u+2
  5271  000E34  C051  F071         	movff	efgtoa@ou+3,efgtoa@u+3
  5272  000E38                     
  5273                           ;C:\Program Files\Microchip\xc8\v2.32\pic\sources\c99\common\doprnt.c: 464:     ne = (nm
      +                          ode == 'e') ? 0 : e;
  5274  000E38  0E65               	movlw	101
  5275  000E3A  185A               	xorwf	efgtoa@nmode^0,w,c
  5276  000E3C  B4D8               	btfsc	status,2,c
  5277  000E3E  EF23  F007         	goto	u5261
  5278  000E42  EF25  F007         	goto	u5260
  5279  000E46                     u5261:
  5280  000E46  EF2B  F007         	goto	l4260
  5281  000E4A                     u5260:
  5282  000E4A  C06A  F04A         	movff	efgtoa@e,efgtoa@ne
  5283  000E4E  C06B  F04B         	movff	efgtoa@e+1,efgtoa@ne+1
  5284  000E52  EF2F  F007         	goto	l972
  5285  000E56                     l4260:
  5286  000E56  0E00               	movlw	0
  5287  000E58  6E4B               	movwf	(efgtoa@ne+1)^0,c
  5288  000E5A  0E00               	movlw	0
  5289  000E5C  6E4A               	movwf	efgtoa@ne^0,c
  5290  000E5E                     l972:
  5291                           
  5292                           ;C:\Program Files\Microchip\xc8\v2.32\pic\sources\c99\common\doprnt.c: 465:     pp = 0;
  5293  000E5E  0E00               	movlw	0
  5294  000E60  6E49               	movwf	(efgtoa@pp+1)^0,c
  5295  000E62  0E00               	movlw	0
  5296  000E64  6E48               	movwf	efgtoa@pp^0,c
  5297                           
  5298                           ;C:\Program Files\Microchip\xc8\v2.32\pic\sources\c99\common\doprnt.c: 466:     t = 0;
  5299  000E66  0E00               	movlw	0
  5300  000E68  6E47               	movwf	(efgtoa@t+1)^0,c
  5301  000E6A  0E00               	movlw	0
  5302  000E6C  6E46               	movwf	efgtoa@t^0,c
  5303                           
  5304                           ;C:\Program Files\Microchip\xc8\v2.32\pic\sources\c99\common\doprnt.c: 467:     i = 0;
  5305  000E6E  0E00               	movlw	0
  5306  000E70  6E65               	movwf	(efgtoa@i+1)^0,c
  5307  000E72  0E00               	movlw	0
  5308  000E74  6E64               	movwf	efgtoa@i^0,c
  5309                           
  5310                           ;C:\Program Files\Microchip\xc8\v2.32\pic\sources\c99\common\doprnt.c: 468:     while ((
      +                          i < m) && (n < (80 - 5))) {
  5311  000E76  EF29  F008         	goto	l4310
  5312  000E7A                     l4262:
  5313                           
  5314                           ;C:\Program Files\Microchip\xc8\v2.32\pic\sources\c99\common\doprnt.c: 469:         l = 
      +                          floorf(h/u);
  5315  000E7A  C05C  F001         	movff	efgtoa@h,___fldiv@b
  5316  000E7E  C05D  F002         	movff	efgtoa@h+1,___fldiv@b+1
  5317  000E82  C05E  F003         	movff	efgtoa@h+2,___fldiv@b+2
  5318  000E86  C05F  F004         	movff	efgtoa@h+3,___fldiv@b+3
  5319  000E8A  C06E  F005         	movff	efgtoa@u,___fldiv@a
  5320  000E8E  C06F  F006         	movff	efgtoa@u+1,___fldiv@a+1
  5321  000E92  C070  F007         	movff	efgtoa@u+2,___fldiv@a+2
  5322  000E96  C071  F008         	movff	efgtoa@u+3,___fldiv@a+3
  5323  000E9A  EC3C  F017         	call	___fldiv	;wreg free
  5324  000E9E  C001  F01A         	movff	?___fldiv,floorf@x
  5325  000EA2  C002  F01B         	movff	?___fldiv+1,floorf@x+1
  5326  000EA6  C003  F01C         	movff	?___fldiv+2,floorf@x+2
  5327  000EAA  C004  F01D         	movff	?___fldiv+3,floorf@x+3
  5328  000EAE  EC9B  F01A         	call	_floorf	;wreg free
  5329  000EB2  C01A  F060         	movff	?_floorf,efgtoa@l
  5330  000EB6  C01B  F061         	movff	?_floorf+1,efgtoa@l+1
  5331  000EBA  C01C  F062         	movff	?_floorf+2,efgtoa@l+2
  5332  000EBE  C01D  F063         	movff	?_floorf+3,efgtoa@l+3
  5333                           
  5334                           ;C:\Program Files\Microchip\xc8\v2.32\pic\sources\c99\common\doprnt.c: 470:         d = 
      +                          (int)l;
  5335  000EC2  C060  F001         	movff	efgtoa@l,___fltol@f1
  5336  000EC6  C061  F002         	movff	efgtoa@l+1,___fltol@f1+1
  5337  000ECA  C062  F003         	movff	efgtoa@l+2,___fltol@f1+2
  5338  000ECE  C063  F004         	movff	efgtoa@l+3,___fltol@f1+3
  5339  000ED2  EC46  F01D         	call	___fltol	;wreg free
  5340  000ED6  C001  F052         	movff	?___fltol,efgtoa@d
  5341  000EDA  C002  F053         	movff	?___fltol+1,efgtoa@d+1
  5342  000EDE                     
  5343                           ;C:\Program Files\Microchip\xc8\v2.32\pic\sources\c99\common\doprnt.c: 471:         if (
      +                          !(flags & (1 << 4)) && !d && (mode == 'g') && (ne < 0)) {
  5344  000EDE  0100               	movlb	0	; () banked
  5345  000EE0  B9F0               	btfsc	_flags& (0+255),4,b
  5346  000EE2  EF75  F007         	goto	u5271
  5347  000EE6  EF77  F007         	goto	u5270
  5348  000EEA                     u5271:
  5349  000EEA  EF94  F007         	goto	l4274
  5350  000EEE                     u5270:
  5351  000EEE                     
  5352                           ; BSR set to: 0
  5353  000EEE  5052               	movf	efgtoa@d^0,w,c
  5354  000EF0  1053               	iorwf	(efgtoa@d+1)^0,w,c
  5355  000EF2  A4D8               	btfss	status,2,c
  5356  000EF4  EF7E  F007         	goto	u5281
  5357  000EF8  EF80  F007         	goto	u5280
  5358  000EFC                     u5281:
  5359  000EFC  EF94  F007         	goto	l4274
  5360  000F00                     u5280:
  5361  000F00                     
  5362                           ; BSR set to: 0
  5363  000F00  0E67               	movlw	103
  5364  000F02  185B               	xorwf	efgtoa@mode^0,w,c
  5365  000F04  A4D8               	btfss	status,2,c
  5366  000F06  EF87  F007         	goto	u5291
  5367  000F0A  EF89  F007         	goto	u5290
  5368  000F0E                     u5291:
  5369  000F0E  EF94  F007         	goto	l4274
  5370  000F12                     u5290:
  5371  000F12                     
  5372                           ; BSR set to: 0
  5373  000F12  BE4B               	btfsc	(efgtoa@ne+1)^0,7,c
  5374  000F14  EF90  F007         	goto	u5300
  5375  000F18  EF8E  F007         	goto	u5301
  5376  000F1C                     u5301:
  5377  000F1C  EF94  F007         	goto	l4274
  5378  000F20                     u5300:
  5379  000F20                     
  5380                           ; BSR set to: 0
  5381                           ;C:\Program Files\Microchip\xc8\v2.32\pic\sources\c99\common\doprnt.c: 472:             
      +                          ++t;
  5382  000F20  4A46               	infsnz	efgtoa@t^0,f,c
  5383  000F22  2A47               	incf	(efgtoa@t+1)^0,f,c
  5384                           
  5385                           ;C:\Program Files\Microchip\xc8\v2.32\pic\sources\c99\common\doprnt.c: 473:         } el
      +                          se {
  5386  000F24  EFDE  F007         	goto	l4302
  5387  000F28                     l4274:
  5388                           
  5389                           ; BSR set to: 0
  5390                           ;C:\Program Files\Microchip\xc8\v2.32\pic\sources\c99\common\doprnt.c: 474:             
      +                          if (!pp && (ne < 0)) {
  5391  000F28  5048               	movf	efgtoa@pp^0,w,c
  5392  000F2A  1049               	iorwf	(efgtoa@pp+1)^0,w,c
  5393  000F2C  A4D8               	btfss	status,2,c
  5394  000F2E  EF9B  F007         	goto	u5311
  5395  000F32  EF9D  F007         	goto	u5310
  5396  000F36                     u5311:
  5397  000F36  EFC7  F007         	goto	l4294
  5398  000F3A                     u5310:
  5399  000F3A                     
  5400                           ; BSR set to: 0
  5401  000F3A  BE4B               	btfsc	(efgtoa@ne+1)^0,7,c
  5402  000F3C  EFA4  F007         	goto	u5320
  5403  000F40  EFA2  F007         	goto	u5321
  5404  000F44                     u5321:
  5405  000F44  EFC7  F007         	goto	l4294
  5406  000F48                     u5320:
  5407  000F48                     
  5408                           ; BSR set to: 0
  5409                           ;C:\Program Files\Microchip\xc8\v2.32\pic\sources\c99\common\doprnt.c: 475:             
      +                              dbuf[n++] = '.';
  5410  000F48  0E00               	movlw	low _dbuf
  5411  000F4A  246C               	addwf	efgtoa@n^0,w,c
  5412  000F4C  6ED9               	movwf	fsr2l,c
  5413  000F4E  0E01               	movlw	high _dbuf
  5414  000F50  206D               	addwfc	(efgtoa@n+1)^0,w,c
  5415  000F52  6EDA               	movwf	fsr2h,c
  5416  000F54  0E2E               	movlw	46
  5417  000F56  6EDF               	movwf	indf2,c
  5418  000F58                     
  5419                           ; BSR set to: 0
  5420  000F58  4A6C               	infsnz	efgtoa@n^0,f,c
  5421  000F5A  2A6D               	incf	(efgtoa@n+1)^0,f,c
  5422  000F5C                     
  5423                           ; BSR set to: 0
  5424                           ;C:\Program Files\Microchip\xc8\v2.32\pic\sources\c99\common\doprnt.c: 476:             
      +                              --w;
  5425  000F5C  0658               	decf	efgtoa@w^0,f,c
  5426  000F5E  A0D8               	btfss	status,0,c
  5427  000F60  0659               	decf	(efgtoa@w+1)^0,f,c
  5428  000F62                     
  5429                           ; BSR set to: 0
  5430                           ;C:\Program Files\Microchip\xc8\v2.32\pic\sources\c99\common\doprnt.c: 477:             
      +                              pp = 1;
  5431  000F62  0E00               	movlw	0
  5432  000F64  6E49               	movwf	(efgtoa@pp+1)^0,c
  5433  000F66  0E01               	movlw	1
  5434  000F68  6E48               	movwf	efgtoa@pp^0,c
  5435  000F6A  EFC7  F007         	goto	l4294
  5436  000F6E                     l4286:
  5437                           
  5438                           ;C:\Program Files\Microchip\xc8\v2.32\pic\sources\c99\common\doprnt.c: 480:             
      +                              dbuf[n++] = '0';
  5439  000F6E  0E00               	movlw	low _dbuf
  5440  000F70  246C               	addwf	efgtoa@n^0,w,c
  5441  000F72  6ED9               	movwf	fsr2l,c
  5442  000F74  0E01               	movlw	high _dbuf
  5443  000F76  206D               	addwfc	(efgtoa@n+1)^0,w,c
  5444  000F78  6EDA               	movwf	fsr2h,c
  5445  000F7A  0E30               	movlw	48
  5446  000F7C  6EDF               	movwf	indf2,c
  5447  000F7E  4A6C               	infsnz	efgtoa@n^0,f,c
  5448  000F80  2A6D               	incf	(efgtoa@n+1)^0,f,c
  5449  000F82                     
  5450                           ;C:\Program Files\Microchip\xc8\v2.32\pic\sources\c99\common\doprnt.c: 481:             
      +                              --w;
  5451  000F82  0658               	decf	efgtoa@w^0,f,c
  5452  000F84  A0D8               	btfss	status,0,c
  5453  000F86  0659               	decf	(efgtoa@w+1)^0,f,c
  5454  000F88                     
  5455                           ;C:\Program Files\Microchip\xc8\v2.32\pic\sources\c99\common\doprnt.c: 482:             
      +                              --t;
  5456  000F88  0646               	decf	efgtoa@t^0,f,c
  5457  000F8A  A0D8               	btfss	status,0,c
  5458  000F8C  0647               	decf	(efgtoa@t+1)^0,f,c
  5459  000F8E                     l4294:
  5460                           
  5461                           ;C:\Program Files\Microchip\xc8\v2.32\pic\sources\c99\common\doprnt.c: 479:             
      +                          while (t) {
  5462  000F8E  5046               	movf	efgtoa@t^0,w,c
  5463  000F90  1047               	iorwf	(efgtoa@t+1)^0,w,c
  5464  000F92  A4D8               	btfss	status,2,c
  5465  000F94  EFCE  F007         	goto	u5331
  5466  000F98  EFD0  F007         	goto	u5330
  5467  000F9C                     u5331:
  5468  000F9C  EFB7  F007         	goto	l4286
  5469  000FA0                     u5330:
  5470  000FA0                     
  5471                           ;C:\Program Files\Microchip\xc8\v2.32\pic\sources\c99\common\doprnt.c: 484:             
      +                          dbuf[n++] = (char)((int)'0' + d);
  5472  000FA0  0E00               	movlw	low _dbuf
  5473  000FA2  246C               	addwf	efgtoa@n^0,w,c
  5474  000FA4  6ED9               	movwf	fsr2l,c
  5475  000FA6  0E01               	movlw	high _dbuf
  5476  000FA8  206D               	addwfc	(efgtoa@n+1)^0,w,c
  5477  000FAA  6EDA               	movwf	fsr2h,c
  5478  000FAC  5052               	movf	efgtoa@d^0,w,c
  5479  000FAE  0F30               	addlw	48
  5480  000FB0  6EDF               	movwf	indf2,c
  5481  000FB2  4A6C               	infsnz	efgtoa@n^0,f,c
  5482  000FB4  2A6D               	incf	(efgtoa@n+1)^0,f,c
  5483  000FB6                     
  5484                           ;C:\Program Files\Microchip\xc8\v2.32\pic\sources\c99\common\doprnt.c: 485:             
      +                          --w;
  5485  000FB6  0658               	decf	efgtoa@w^0,f,c
  5486  000FB8  A0D8               	btfss	status,0,c
  5487  000FBA  0659               	decf	(efgtoa@w+1)^0,f,c
  5488  000FBC                     l4302:
  5489                           
  5490                           ;C:\Program Files\Microchip\xc8\v2.32\pic\sources\c99\common\doprnt.c: 487:         h -=
      +                           l*u;
  5491  000FBC  C05C  F01A         	movff	efgtoa@h,___flsub@b
  5492  000FC0  C05D  F01B         	movff	efgtoa@h+1,___flsub@b+1
  5493  000FC4  C05E  F01C         	movff	efgtoa@h+2,___flsub@b+2
  5494  000FC8  C05F  F01D         	movff	efgtoa@h+3,___flsub@b+3
  5495  000FCC  C06E  F005         	movff	efgtoa@u,___flmul@a
  5496  000FD0  C06F  F006         	movff	efgtoa@u+1,___flmul@a+1
  5497  000FD4  C070  F007         	movff	efgtoa@u+2,___flmul@a+2
  5498  000FD8  C071  F008         	movff	efgtoa@u+3,___flmul@a+3
  5499  000FDC  C060  F001         	movff	efgtoa@l,___flmul@b
  5500  000FE0  C061  F002         	movff	efgtoa@l+1,___flmul@b+1
  5501  000FE4  C062  F003         	movff	efgtoa@l+2,___flmul@b+2
  5502  000FE8  C063  F004         	movff	efgtoa@l+3,___flmul@b+3
  5503  000FEC  EC27  F015         	call	___flmul	;wreg free
  5504  000FF0  C001  F01E         	movff	?___flmul,___flsub@a
  5505  000FF4  C002  F01F         	movff	?___flmul+1,___flsub@a+1
  5506  000FF8  C003  F020         	movff	?___flmul+2,___flsub@a+2
  5507  000FFC  C004  F021         	movff	?___flmul+3,___flsub@a+3
  5508  001000  EC73  F023         	call	___flsub	;wreg free
  5509  001004  C01A  F05C         	movff	?___flsub,efgtoa@h
  5510  001008  C01B  F05D         	movff	?___flsub+1,efgtoa@h+1
  5511  00100C  C01C  F05E         	movff	?___flsub+2,efgtoa@h+2
  5512  001010  C01D  F05F         	movff	?___flsub+3,efgtoa@h+3
  5513  001014                     
  5514                           ;C:\Program Files\Microchip\xc8\v2.32\pic\sources\c99\common\doprnt.c: 488:         u = 
      +                          u/10.0;
  5515  001014  C06E  F001         	movff	efgtoa@u,___fldiv@b
  5516  001018  C06F  F002         	movff	efgtoa@u+1,___fldiv@b+1
  5517  00101C  C070  F003         	movff	efgtoa@u+2,___fldiv@b+2
  5518  001020  C071  F004         	movff	efgtoa@u+3,___fldiv@b+3
  5519  001024  0E00               	movlw	0
  5520  001026  6E05               	movwf	___fldiv@a^0,c
  5521  001028  0E00               	movlw	0
  5522  00102A  6E06               	movwf	(___fldiv@a+1)^0,c
  5523  00102C  0E20               	movlw	32
  5524  00102E  6E07               	movwf	(___fldiv@a+2)^0,c
  5525  001030  0E41               	movlw	65
  5526  001032  6E08               	movwf	(___fldiv@a+3)^0,c
  5527  001034  EC3C  F017         	call	___fldiv	;wreg free
  5528  001038  C001  F06E         	movff	?___fldiv,efgtoa@u
  5529  00103C  C002  F06F         	movff	?___fldiv+1,efgtoa@u+1
  5530  001040  C003  F070         	movff	?___fldiv+2,efgtoa@u+2
  5531  001044  C004  F071         	movff	?___fldiv+3,efgtoa@u+3
  5532  001048                     
  5533                           ;C:\Program Files\Microchip\xc8\v2.32\pic\sources\c99\common\doprnt.c: 489:         --ne
      +                          ;
  5534  001048  064A               	decf	efgtoa@ne^0,f,c
  5535  00104A  A0D8               	btfss	status,0,c
  5536  00104C  064B               	decf	(efgtoa@ne+1)^0,f,c
  5537  00104E                     
  5538                           ;C:\Program Files\Microchip\xc8\v2.32\pic\sources\c99\common\doprnt.c: 490:         ++i;
  5539  00104E  4A64               	infsnz	efgtoa@i^0,f,c
  5540  001050  2A65               	incf	(efgtoa@i+1)^0,f,c
  5541  001052                     l4310:
  5542                           
  5543                           ;C:\Program Files\Microchip\xc8\v2.32\pic\sources\c99\common\doprnt.c: 468:     while ((
      +                          i < m) && (n < (80 - 5))) {
  5544  001052  504C               	movf	efgtoa@m^0,w,c
  5545  001054  5C64               	subwf	efgtoa@i^0,w,c
  5546  001056  5065               	movf	(efgtoa@i+1)^0,w,c
  5547  001058  0A80               	xorlw	128
  5548  00105A  6E35               	movwf	??_efgtoa^0,c
  5549  00105C  504D               	movf	(efgtoa@m+1)^0,w,c
  5550  00105E  0A80               	xorlw	128
  5551  001060  5835               	subwfb	??_efgtoa^0,w,c
  5552  001062  B0D8               	btfsc	status,0,c
  5553  001064  EF36  F008         	goto	u5341
  5554  001068  EF38  F008         	goto	u5340
  5555  00106C                     u5341:
  5556  00106C  EF46  F008         	goto	l4314
  5557  001070                     u5340:
  5558  001070  BE6D               	btfsc	(efgtoa@n+1)^0,7,c
  5559  001072  EF44  F008         	goto	u5351
  5560  001076  506D               	movf	(efgtoa@n+1)^0,w,c
  5561  001078  E109               	bnz	u5350
  5562  00107A  0E4B               	movlw	75
  5563  00107C  5C6C               	subwf	efgtoa@n^0,w,c
  5564  00107E  A0D8               	btfss	status,0,c
  5565  001080  EF44  F008         	goto	u5351
  5566  001084  EF46  F008         	goto	u5350
  5567  001088                     u5351:
  5568  001088  EF3D  F007         	goto	l4262
  5569  00108C                     u5350:
  5570  00108C                     l4314:
  5571                           
  5572                           ;C:\Program Files\Microchip\xc8\v2.32\pic\sources\c99\common\doprnt.c: 492:     if (!pp 
      +                          && (flags & (1 << 4))) {
  5573  00108C  5048               	movf	efgtoa@pp^0,w,c
  5574  00108E  1049               	iorwf	(efgtoa@pp+1)^0,w,c
  5575  001090  A4D8               	btfss	status,2,c
  5576  001092  EF4D  F008         	goto	u5361
  5577  001096  EF4F  F008         	goto	u5360
  5578  00109A                     u5361:
  5579  00109A  EF61  F008         	goto	l4322
  5580  00109E                     u5360:
  5581  00109E  0100               	movlb	0	; () banked
  5582  0010A0  A9F0               	btfss	_flags& (0+255),4,b
  5583  0010A2  EF55  F008         	goto	u5371
  5584  0010A6  EF57  F008         	goto	u5370
  5585  0010AA                     u5371:
  5586  0010AA  EF61  F008         	goto	l4322
  5587  0010AE                     u5370:
  5588  0010AE                     
  5589                           ; BSR set to: 0
  5590                           ;C:\Program Files\Microchip\xc8\v2.32\pic\sources\c99\common\doprnt.c: 493:         dbuf
      +                          [n++] = '.';
  5591  0010AE  0E00               	movlw	low _dbuf
  5592  0010B0  246C               	addwf	efgtoa@n^0,w,c
  5593  0010B2  6ED9               	movwf	fsr2l,c
  5594  0010B4  0E01               	movlw	high _dbuf
  5595  0010B6  206D               	addwfc	(efgtoa@n+1)^0,w,c
  5596  0010B8  6EDA               	movwf	fsr2h,c
  5597  0010BA  0E2E               	movlw	46
  5598  0010BC  6EDF               	movwf	indf2,c
  5599  0010BE                     
  5600                           ; BSR set to: 0
  5601  0010BE  4A6C               	infsnz	efgtoa@n^0,f,c
  5602  0010C0  2A6D               	incf	(efgtoa@n+1)^0,f,c
  5603  0010C2                     l4322:
  5604                           
  5605                           ;C:\Program Files\Microchip\xc8\v2.32\pic\sources\c99\common\doprnt.c: 495:     dbuf[n] 
      +                          = '\0';
  5606  0010C2  0E00               	movlw	low _dbuf
  5607  0010C4  246C               	addwf	efgtoa@n^0,w,c
  5608  0010C6  6ED9               	movwf	fsr2l,c
  5609  0010C8  0E01               	movlw	high _dbuf
  5610  0010CA  206D               	addwfc	(efgtoa@n+1)^0,w,c
  5611  0010CC  6EDA               	movwf	fsr2h,c
  5612  0010CE  0E00               	movlw	0
  5613  0010D0  6EDF               	movwf	indf2,c
  5614  0010D2                     
  5615                           ;C:\Program Files\Microchip\xc8\v2.32\pic\sources\c99\common\doprnt.c: 498:     if (nmod
      +                          e == 'e') {
  5616  0010D2  0E65               	movlw	101
  5617  0010D4  185A               	xorwf	efgtoa@nmode^0,w,c
  5618  0010D6  A4D8               	btfss	status,2,c
  5619  0010D8  EF70  F008         	goto	u5381
  5620  0010DC  EF72  F008         	goto	u5380
  5621  0010E0                     u5381:
  5622  0010E0  EF41  F009         	goto	l4384
  5623  0010E4                     u5380:
  5624  0010E4                     
  5625                           ;C:\Program Files\Microchip\xc8\v2.32\pic\sources\c99\common\doprnt.c: 499:         i = 
      +                          sizeof(dbuf) - 1;
  5626  0010E4  0E00               	movlw	0
  5627  0010E6  6E65               	movwf	(efgtoa@i+1)^0,c
  5628  0010E8  0E4F               	movlw	79
  5629  0010EA  6E64               	movwf	efgtoa@i^0,c
  5630  0010EC                     
  5631                           ;C:\Program Files\Microchip\xc8\v2.32\pic\sources\c99\common\doprnt.c: 500:         dbuf
      +                          [i] = '\0';
  5632  0010EC  0E00               	movlw	low _dbuf
  5633  0010EE  2464               	addwf	efgtoa@i^0,w,c
  5634  0010F0  6ED9               	movwf	fsr2l,c
  5635  0010F2  0E01               	movlw	high _dbuf
  5636  0010F4  2065               	addwfc	(efgtoa@i+1)^0,w,c
  5637  0010F6  6EDA               	movwf	fsr2h,c
  5638  0010F8  0E00               	movlw	0
  5639  0010FA  6EDF               	movwf	indf2,c
  5640  0010FC                     
  5641                           ;C:\Program Files\Microchip\xc8\v2.32\pic\sources\c99\common\doprnt.c: 501:         sign
      +                           = 0;
  5642  0010FC  0E00               	movlw	0
  5643  0010FE  6E55               	movwf	(efgtoa@sign+1)^0,c
  5644  001100  0E00               	movlw	0
  5645  001102  6E54               	movwf	efgtoa@sign^0,c
  5646  001104                     
  5647                           ;C:\Program Files\Microchip\xc8\v2.32\pic\sources\c99\common\doprnt.c: 502:         if (
      +                          e < 0) {
  5648  001104  BE6B               	btfsc	(efgtoa@e+1)^0,7,c
  5649  001106  EF89  F008         	goto	u5390
  5650  00110A  EF87  F008         	goto	u5391
  5651  00110E                     u5391:
  5652  00110E  EF91  F008         	goto	l4338
  5653  001112                     u5390:
  5654  001112                     
  5655                           ;C:\Program Files\Microchip\xc8\v2.32\pic\sources\c99\common\doprnt.c: 503:             
      +                          sign = 1;
  5656  001112  0E00               	movlw	0
  5657  001114  6E55               	movwf	(efgtoa@sign+1)^0,c
  5658  001116  0E01               	movlw	1
  5659  001118  6E54               	movwf	efgtoa@sign^0,c
  5660  00111A                     
  5661                           ;C:\Program Files\Microchip\xc8\v2.32\pic\sources\c99\common\doprnt.c: 504:             
      +                          e = -e;
  5662  00111A  6C6A               	negf	efgtoa@e^0,c
  5663  00111C  1E6B               	comf	(efgtoa@e+1)^0,f,c
  5664  00111E  B0D8               	btfsc	status,0,c
  5665  001120  2A6B               	incf	(efgtoa@e+1)^0,f,c
  5666  001122                     l4338:
  5667                           
  5668                           ;C:\Program Files\Microchip\xc8\v2.32\pic\sources\c99\common\doprnt.c: 506:         p = 
      +                          2;
  5669  001122  0E00               	movlw	0
  5670  001124  6E57               	movwf	(efgtoa@p+1)^0,c
  5671  001126  0E02               	movlw	2
  5672  001128  6E56               	movwf	efgtoa@p^0,c
  5673                           
  5674                           ;C:\Program Files\Microchip\xc8\v2.32\pic\sources\c99\common\doprnt.c: 507:         whil
      +                          e (e || (0 < p)) {
  5675  00112A  EFC1  F008         	goto	l4350
  5676  00112E                     l4340:
  5677                           
  5678                           ;C:\Program Files\Microchip\xc8\v2.32\pic\sources\c99\common\doprnt.c: 508:             
      +                          --i;
  5679  00112E  0664               	decf	efgtoa@i^0,f,c
  5680  001130  A0D8               	btfss	status,0,c
  5681  001132  0665               	decf	(efgtoa@i+1)^0,f,c
  5682  001134                     
  5683                           ;C:\Program Files\Microchip\xc8\v2.32\pic\sources\c99\common\doprnt.c: 509:             
      +                          dbuf[i] = '0' + (e % 10);
  5684  001134  0E00               	movlw	low _dbuf
  5685  001136  2464               	addwf	efgtoa@i^0,w,c
  5686  001138  6ED9               	movwf	fsr2l,c
  5687  00113A  0E01               	movlw	high _dbuf
  5688  00113C  2065               	addwfc	(efgtoa@i+1)^0,w,c
  5689  00113E  6EDA               	movwf	fsr2h,c
  5690  001140  C06A  F001         	movff	efgtoa@e,___awmod@dividend
  5691  001144  C06B  F002         	movff	efgtoa@e+1,___awmod@dividend+1
  5692  001148  0E00               	movlw	0
  5693  00114A  6E04               	movwf	(___awmod@divisor+1)^0,c
  5694  00114C  0E0A               	movlw	10
  5695  00114E  6E03               	movwf	___awmod@divisor^0,c
  5696  001150  ECBF  F020         	call	___awmod	;wreg free
  5697  001154  5001               	movf	?___awmod^0,w,c
  5698  001156  0F30               	addlw	48
  5699  001158  6EDF               	movwf	indf2,c
  5700  00115A                     
  5701                           ;C:\Program Files\Microchip\xc8\v2.32\pic\sources\c99\common\doprnt.c: 510:             
      +                          e = e / 10;
  5702  00115A  C06A  F001         	movff	efgtoa@e,___awdiv@dividend
  5703  00115E  C06B  F002         	movff	efgtoa@e+1,___awdiv@dividend+1
  5704  001162  0E00               	movlw	0
  5705  001164  6E04               	movwf	(___awdiv@divisor+1)^0,c
  5706  001166  0E0A               	movlw	10
  5707  001168  6E03               	movwf	___awdiv@divisor^0,c
  5708  00116A  EC04  F020         	call	___awdiv	;wreg free
  5709  00116E  C001  F06A         	movff	?___awdiv,efgtoa@e
  5710  001172  C002  F06B         	movff	?___awdiv+1,efgtoa@e+1
  5711  001176                     
  5712                           ;C:\Program Files\Microchip\xc8\v2.32\pic\sources\c99\common\doprnt.c: 511:             
      +                          --p;
  5713  001176  0656               	decf	efgtoa@p^0,f,c
  5714  001178  A0D8               	btfss	status,0,c
  5715  00117A  0657               	decf	(efgtoa@p+1)^0,f,c
  5716  00117C                     
  5717                           ;C:\Program Files\Microchip\xc8\v2.32\pic\sources\c99\common\doprnt.c: 512:             
      +                          --w;
  5718  00117C  0658               	decf	efgtoa@w^0,f,c
  5719  00117E  A0D8               	btfss	status,0,c
  5720  001180  0659               	decf	(efgtoa@w+1)^0,f,c
  5721  001182                     l4350:
  5722                           
  5723                           ;C:\Program Files\Microchip\xc8\v2.32\pic\sources\c99\common\doprnt.c: 507:         whil
      +                          e (e || (0 < p)) {
  5724  001182  506A               	movf	efgtoa@e^0,w,c
  5725  001184  106B               	iorwf	(efgtoa@e+1)^0,w,c
  5726  001186  A4D8               	btfss	status,2,c
  5727  001188  EFC8  F008         	goto	u5401
  5728  00118C  EFCA  F008         	goto	u5400
  5729  001190                     u5401:
  5730  001190  EF97  F008         	goto	l4340
  5731  001194                     u5400:
  5732  001194  BE57               	btfsc	(efgtoa@p+1)^0,7,c
  5733  001196  EFD7  F008         	goto	u5410
  5734  00119A  5057               	movf	(efgtoa@p+1)^0,w,c
  5735  00119C  E106               	bnz	u5411
  5736  00119E  0456               	decf	efgtoa@p^0,w,c
  5737  0011A0  B0D8               	btfsc	status,0,c
  5738  0011A2  EFD5  F008         	goto	u5411
  5739  0011A6  EFD7  F008         	goto	u5410
  5740  0011AA                     u5411:
  5741  0011AA  EF97  F008         	goto	l4340
  5742  0011AE                     u5410:
  5743  0011AE                     
  5744                           ;C:\Program Files\Microchip\xc8\v2.32\pic\sources\c99\common\doprnt.c: 514:         --i;
  5745  0011AE  0664               	decf	efgtoa@i^0,f,c
  5746  0011B0  A0D8               	btfss	status,0,c
  5747  0011B2  0665               	decf	(efgtoa@i+1)^0,f,c
  5748  0011B4                     
  5749                           ;C:\Program Files\Microchip\xc8\v2.32\pic\sources\c99\common\doprnt.c: 515:         dbuf
      +                          [i] = sign ? '-' : '+';
  5750  0011B4  5054               	movf	efgtoa@sign^0,w,c
  5751  0011B6  1055               	iorwf	(efgtoa@sign+1)^0,w,c
  5752  0011B8  A4D8               	btfss	status,2,c
  5753  0011BA  EFE1  F008         	goto	u5421
  5754  0011BE  EFE3  F008         	goto	u5420
  5755  0011C2                     u5421:
  5756  0011C2  EFE9  F008         	goto	l4360
  5757  0011C6                     u5420:
  5758  0011C6  0E00               	movlw	0
  5759  0011C8  6E41               	movwf	(_efgtoa$857+1)^0,c
  5760  0011CA  0E2B               	movlw	43
  5761  0011CC  6E40               	movwf	_efgtoa$857^0,c
  5762  0011CE  EFED  F008         	goto	l4362
  5763  0011D2                     l4360:
  5764  0011D2  0E00               	movlw	0
  5765  0011D4  6E41               	movwf	(_efgtoa$857+1)^0,c
  5766  0011D6  0E2D               	movlw	45
  5767  0011D8  6E40               	movwf	_efgtoa$857^0,c
  5768  0011DA                     l4362:
  5769  0011DA  0E00               	movlw	low _dbuf
  5770  0011DC  2464               	addwf	efgtoa@i^0,w,c
  5771  0011DE  6ED9               	movwf	fsr2l,c
  5772  0011E0  0E01               	movlw	high _dbuf
  5773  0011E2  2065               	addwfc	(efgtoa@i+1)^0,w,c
  5774  0011E4  6EDA               	movwf	fsr2h,c
  5775  0011E6  C040  FFDF         	movff	_efgtoa$857,indf2
  5776  0011EA                     
  5777                           ;C:\Program Files\Microchip\xc8\v2.32\pic\sources\c99\common\doprnt.c: 516:         --w;
  5778  0011EA  0658               	decf	efgtoa@w^0,f,c
  5779  0011EC  A0D8               	btfss	status,0,c
  5780  0011EE  0659               	decf	(efgtoa@w+1)^0,f,c
  5781  0011F0                     
  5782                           ;C:\Program Files\Microchip\xc8\v2.32\pic\sources\c99\common\doprnt.c: 518:         dbuf
      +                          [i] = (0 ? isupper((int)c) : ((unsigned)((int)c)-'A') < 26) ? 'E' : 'e';
  5783  0011F0  0664               	decf	efgtoa@i^0,f,c
  5784  0011F2  A0D8               	btfss	status,0,c
  5785  0011F4  0665               	decf	(efgtoa@i+1)^0,f,c
  5786  0011F6  0EBF               	movlw	191
  5787  0011F8  6E35               	movwf	??_efgtoa^0,c
  5788  0011FA  0EFF               	movlw	255
  5789  0011FC  6E36               	movwf	(??_efgtoa+1)^0,c
  5790  0011FE  5034               	movf	efgtoa@c^0,w,c
  5791  001200  6E37               	movwf	(??_efgtoa+2)^0,c
  5792  001202  6A38               	clrf	(??_efgtoa+3)^0,c
  5793  001204  5035               	movf	??_efgtoa^0,w,c
  5794  001206  2637               	addwf	(??_efgtoa+2)^0,f,c
  5795  001208  5036               	movf	(??_efgtoa+1)^0,w,c
  5796  00120A  2238               	addwfc	(??_efgtoa+3)^0,f,c
  5797  00120C  5038               	movf	(??_efgtoa+3)^0,w,c
  5798  00120E  E10A               	bnz	u5430
  5799  001210  0E1A               	movlw	26
  5800  001212  5C37               	subwf	(??_efgtoa+2)^0,w,c
  5801  001214  A0D8               	btfss	status,0,c
  5802  001216  EF0F  F009         	goto	u5431
  5803  00121A  EF12  F009         	goto	u5430
  5804  00121E                     u5431:
  5805  00121E  0E01               	movlw	1
  5806  001220  EF13  F009         	goto	u5440
  5807  001224                     u5430:
  5808  001224  0E00               	movlw	0
  5809  001226                     u5440:
  5810  001226  6E44               	movwf	_efgtoa$859^0,c
  5811  001228  6A45               	clrf	(_efgtoa$859+1)^0,c
  5812  00122A  5044               	movf	_efgtoa$859^0,w,c
  5813  00122C  1045               	iorwf	(_efgtoa$859+1)^0,w,c
  5814  00122E  A4D8               	btfss	status,2,c
  5815  001230  EF1C  F009         	goto	u5451
  5816  001234  EF1E  F009         	goto	u5450
  5817  001238                     u5451:
  5818  001238  EF24  F009         	goto	l4376
  5819  00123C                     u5450:
  5820  00123C  0E00               	movlw	0
  5821  00123E  6E43               	movwf	(_efgtoa$858+1)^0,c
  5822  001240  0E65               	movlw	101
  5823  001242  6E42               	movwf	_efgtoa$858^0,c
  5824  001244  EF28  F009         	goto	l4378
  5825  001248                     l4376:
  5826  001248  0E00               	movlw	0
  5827  00124A  6E43               	movwf	(_efgtoa$858+1)^0,c
  5828  00124C  0E45               	movlw	69
  5829  00124E  6E42               	movwf	_efgtoa$858^0,c
  5830  001250                     l4378:
  5831  001250  0E00               	movlw	low _dbuf
  5832  001252  2464               	addwf	efgtoa@i^0,w,c
  5833  001254  6ED9               	movwf	fsr2l,c
  5834  001256  0E01               	movlw	high _dbuf
  5835  001258  2065               	addwfc	(efgtoa@i+1)^0,w,c
  5836  00125A  6EDA               	movwf	fsr2h,c
  5837  00125C  C042  FFDF         	movff	_efgtoa$858,indf2
  5838  001260                     
  5839                           ;C:\Program Files\Microchip\xc8\v2.32\pic\sources\c99\common\doprnt.c: 519:         --w;
  5840  001260  0658               	decf	efgtoa@w^0,f,c
  5841  001262  A0D8               	btfss	status,0,c
  5842  001264  0659               	decf	(efgtoa@w+1)^0,f,c
  5843  001266                     
  5844                           ;C:\Program Files\Microchip\xc8\v2.32\pic\sources\c99\common\doprnt.c: 520:         strc
      +                          py(&dbuf[n], &dbuf[i]);
  5845  001266  0E00               	movlw	low _dbuf
  5846  001268  246C               	addwf	efgtoa@n^0,w,c
  5847  00126A  6E01               	movwf	strcpy@dest^0,c
  5848  00126C  0E01               	movlw	high _dbuf
  5849  00126E  206D               	addwfc	(efgtoa@n+1)^0,w,c
  5850  001270  6E02               	movwf	(strcpy@dest+1)^0,c
  5851  001272  0E00               	movlw	low _dbuf
  5852  001274  2464               	addwf	efgtoa@i^0,w,c
  5853  001276  6E03               	movwf	strcpy@src^0,c
  5854  001278  0E01               	movlw	high _dbuf
  5855  00127A  2065               	addwfc	(efgtoa@i+1)^0,w,c
  5856  00127C  6E04               	movwf	(strcpy@src+1)^0,c
  5857  00127E  EC1C  F023         	call	_strcpy	;wreg free
  5858  001282                     l4384:
  5859                           
  5860                           ;C:\Program Files\Microchip\xc8\v2.32\pic\sources\c99\common\doprnt.c: 524:     return p
      +                          ad(fp, &dbuf[0], w);
  5861  001282  C02E  F016         	movff	efgtoa@fp,pad@fp
  5862  001286  C02F  F017         	movff	efgtoa@fp+1,pad@fp+1
  5863  00128A  0E00               	movlw	low _dbuf
  5864  00128C  6E18               	movwf	pad@buf^0,c
  5865  00128E  0E01               	movlw	high _dbuf
  5866  001290  6E19               	movwf	(pad@buf+1)^0,c
  5867  001292  C058  F01A         	movff	efgtoa@w,pad@p
  5868  001296  C059  F01B         	movff	efgtoa@w+1,pad@p+1
  5869  00129A  ECA1  F01F         	call	_pad	;wreg free
  5870  00129E  C016  F02E         	movff	?_pad,?_efgtoa
  5871  0012A2  C017  F02F         	movff	?_pad+1,?_efgtoa+1
  5872  0012A6                     l926:
  5873  0012A6  0012               	return		;funcret
  5874  0012A8                     __end_of_efgtoa:
  5875                           	callstack 0
  5876                           
  5877 ;; *************** function _tolower *****************
  5878 ;; Defined at:
  5879 ;;		line 4 in file "C:\Program Files\Microchip\xc8\v2.32\pic\sources\c99\common\tolower.c"
  5880 ;; Parameters:    Size  Location     Type
  5881 ;;  c               2    6[COMRAM] int 
  5882 ;; Auto vars:     Size  Location     Type
  5883 ;;		None
  5884 ;; Return value:  Size  Location     Type
  5885 ;;                  2    6[COMRAM] int 
  5886 ;; Registers used:
  5887 ;;		wreg, status,2, status,0
  5888 ;; Tracked objects:
  5889 ;;		On entry : 0/0
  5890 ;;		On exit  : 0/0
  5891 ;;		Unchanged: 0/0
  5892 ;; Data sizes:     COMRAM   BANK0   BANK1   BANK2   BANK3   BANK4   BANK5
  5893 ;;      Params:         2       0       0       0       0       0       0
  5894 ;;      Locals:         2       0       0       0       0       0       0
  5895 ;;      Temps:          4       0       0       0       0       0       0
  5896 ;;      Totals:         8       0       0       0       0       0       0
  5897 ;;Total ram usage:        8 bytes
  5898 ;; Hardware stack levels used: 1
  5899 ;; Hardware stack levels required when called: 1
  5900 ;; This function calls:
  5901 ;;		_isupper
  5902 ;; This function is called by:
  5903 ;;		_efgtoa
  5904 ;;		_vfpfcnvrt
  5905 ;; This function uses a non-reentrant model
  5906 ;;
  5907                           
  5908                           	psect	text12
  5909  00457A                     __ptext12:
  5910                           	callstack 0
  5911  00457A                     _tolower:
  5912                           	callstack 26
  5913  00457A  0EBF               	movlw	191
  5914  00457C  6E09               	movwf	??_tolower^0,c
  5915  00457E  0EFF               	movlw	255
  5916  004580  6E0A               	movwf	(??_tolower+1)^0,c
  5917  004582  C007  F00B         	movff	tolower@c,??_tolower+2
  5918  004586  C008  F00C         	movff	tolower@c+1,??_tolower+3
  5919  00458A  5009               	movf	??_tolower^0,w,c
  5920  00458C  260B               	addwf	(??_tolower+2)^0,f,c
  5921  00458E  500A               	movf	(??_tolower+1)^0,w,c
  5922  004590  220C               	addwfc	(??_tolower+3)^0,f,c
  5923  004592  500C               	movf	(??_tolower+3)^0,w,c
  5924  004594  E10A               	bnz	u4700
  5925  004596  0E1A               	movlw	26
  5926  004598  5C0B               	subwf	(??_tolower+2)^0,w,c
  5927  00459A  A0D8               	btfss	status,0,c
  5928  00459C  EFD2  F022         	goto	u4701
  5929  0045A0  EFD5  F022         	goto	u4700
  5930  0045A4                     u4701:
  5931  0045A4  0E01               	movlw	1
  5932  0045A6  EFD6  F022         	goto	u4710
  5933  0045AA                     u4700:
  5934  0045AA  0E00               	movlw	0
  5935  0045AC                     u4710:
  5936  0045AC  6E0D               	movwf	_tolower$1055^0,c
  5937  0045AE  6A0E               	clrf	(_tolower$1055+1)^0,c
  5938  0045B0  500D               	movf	_tolower$1055^0,w,c
  5939  0045B2  100E               	iorwf	(_tolower$1055+1)^0,w,c
  5940  0045B4  B4D8               	btfsc	status,2,c
  5941  0045B6  EFDF  F022         	goto	u4721
  5942  0045BA  EFE1  F022         	goto	u4720
  5943  0045BE                     u4721:
  5944  0045BE  EFE8  F022         	goto	l1233
  5945  0045C2                     u4720:
  5946  0045C2  0E20               	movlw	32
  5947  0045C4  1007               	iorwf	tolower@c^0,w,c
  5948  0045C6  6E07               	movwf	?_tolower^0,c
  5949  0045C8  5008               	movf	(tolower@c+1)^0,w,c
  5950  0045CA  6E08               	movwf	(?_tolower+1)^0,c
  5951  0045CC  EFEC  F022         	goto	l1238
  5952  0045D0                     l1233:
  5953  0045D0  C007  F007         	movff	tolower@c,?_tolower
  5954  0045D4  C008  F008         	movff	tolower@c+1,?_tolower+1
  5955  0045D8                     l1238:
  5956  0045D8  0012               	return		;funcret
  5957  0045DA                     __end_of_tolower:
  5958                           	callstack 0
  5959                           
  5960 ;; *************** function _isupper *****************
  5961 ;; Defined at:
  5962 ;;		line 5 in file "C:\Program Files\Microchip\xc8\v2.32\pic\sources\c99\common\isupper.c"
  5963 ;; Parameters:    Size  Location     Type
  5964 ;;  c               2    0[COMRAM] int 
  5965 ;; Auto vars:     Size  Location     Type
  5966 ;;		None
  5967 ;; Return value:  Size  Location     Type
  5968 ;;                  2    0[COMRAM] int 
  5969 ;; Registers used:
  5970 ;;		wreg, status,2, status,0
  5971 ;; Tracked objects:
  5972 ;;		On entry : 0/0
  5973 ;;		On exit  : 0/0
  5974 ;;		Unchanged: 0/0
  5975 ;; Data sizes:     COMRAM   BANK0   BANK1   BANK2   BANK3   BANK4   BANK5
  5976 ;;      Params:         2       0       0       0       0       0       0
  5977 ;;      Locals:         0       0       0       0       0       0       0
  5978 ;;      Temps:          4       0       0       0       0       0       0
  5979 ;;      Totals:         6       0       0       0       0       0       0
  5980 ;;Total ram usage:        6 bytes
  5981 ;; Hardware stack levels used: 1
  5982 ;; This function calls:
  5983 ;;		Nothing
  5984 ;; This function is called by:
  5985 ;;		_efgtoa
  5986 ;;		_vfpfcnvrt
  5987 ;;		_tolower
  5988 ;; This function uses a non-reentrant model
  5989 ;;
  5990                           
  5991                           	psect	text13
  5992  0047E4                     __ptext13:
  5993                           	callstack 0
  5994  0047E4                     _isupper:
  5995                           	callstack 26
  5996  0047E4  0EBF               	movlw	191
  5997  0047E6  6E03               	movwf	??_isupper^0,c
  5998  0047E8  0EFF               	movlw	255
  5999  0047EA  6E04               	movwf	(??_isupper+1)^0,c
  6000  0047EC  C001  F005         	movff	isupper@c,??_isupper+2
  6001  0047F0  C002  F006         	movff	isupper@c+1,??_isupper+3
  6002  0047F4  5003               	movf	??_isupper^0,w,c
  6003  0047F6  2605               	addwf	(??_isupper+2)^0,f,c
  6004  0047F8  5004               	movf	(??_isupper+1)^0,w,c
  6005  0047FA  2206               	addwfc	(??_isupper+3)^0,f,c
  6006  0047FC  5006               	movf	(??_isupper+3)^0,w,c
  6007  0047FE  E10A               	bnz	u3850
  6008  004800  0E1A               	movlw	26
  6009  004802  5C05               	subwf	(??_isupper+2)^0,w,c
  6010  004804  A0D8               	btfss	status,0,c
  6011  004806  EF07  F024         	goto	u3851
  6012  00480A  EF0A  F024         	goto	u3850
  6013  00480E                     u3851:
  6014  00480E  0E01               	movlw	1
  6015  004810  EF0B  F024         	goto	u3860
  6016  004814                     u3850:
  6017  004814  0E00               	movlw	0
  6018  004816                     u3860:
  6019  004816  6E01               	movwf	?_isupper^0,c
  6020  004818  6A02               	clrf	(?_isupper+1)^0,c
  6021  00481A  0012               	return		;funcret
  6022  00481C                     __end_of_isupper:
  6023                           	callstack 0
  6024                           
  6025 ;; *************** function _strcpy *****************
  6026 ;; Defined at:
  6027 ;;		line 3 in file "C:\Program Files\Microchip\xc8\v2.32\pic\sources\c99\common\strcpy.c"
  6028 ;; Parameters:    Size  Location     Type
  6029 ;;  dest            2    0[COMRAM] PTR unsigned char 
  6030 ;;		 -> dbuf(80), 
  6031 ;;  src             2    2[COMRAM] PTR const unsigned char 
  6032 ;;		 -> STR_26(4), STR_25(4), STR_22(4), STR_21(4), 
  6033 ;;		 -> dbuf(80), 
  6034 ;; Auto vars:     Size  Location     Type
  6035 ;;  d               2    8[COMRAM] PTR unsigned char 
  6036 ;;		 -> dbuf(80), 
  6037 ;;  s               2    6[COMRAM] PTR const unsigned char 
  6038 ;;		 -> STR_26(4), STR_25(4), STR_22(4), STR_21(4), 
  6039 ;;		 -> dbuf(80), 
  6040 ;; Return value:  Size  Location     Type
  6041 ;;                  2    0[COMRAM] PTR unsigned char 
  6042 ;; Registers used:
  6043 ;;		wreg, fsr1l, fsr1h, fsr2l, fsr2h, status,2, status,0, tblptrl, tblptrh, tblptru
  6044 ;; Tracked objects:
  6045 ;;		On entry : 0/0
  6046 ;;		On exit  : 0/0
  6047 ;;		Unchanged: 0/0
  6048 ;; Data sizes:     COMRAM   BANK0   BANK1   BANK2   BANK3   BANK4   BANK5
  6049 ;;      Params:         4       0       0       0       0       0       0
  6050 ;;      Locals:         4       0       0       0       0       0       0
  6051 ;;      Temps:          2       0       0       0       0       0       0
  6052 ;;      Totals:        10       0       0       0       0       0       0
  6053 ;;Total ram usage:       10 bytes
  6054 ;; Hardware stack levels used: 1
  6055 ;; This function calls:
  6056 ;;		Nothing
  6057 ;; This function is called by:
  6058 ;;		_efgtoa
  6059 ;; This function uses a non-reentrant model
  6060 ;;
  6061                           
  6062                           	psect	text14
  6063  004638                     __ptext14:
  6064                           	callstack 0
  6065  004638                     _strcpy:
  6066                           	callstack 26
  6067  004638  C003  F007         	movff	strcpy@src,strcpy@s
  6068  00463C  C004  F008         	movff	strcpy@src+1,strcpy@s+1
  6069  004640  C001  F009         	movff	strcpy@dest,strcpy@d
  6070  004644  C002  F00A         	movff	strcpy@dest+1,strcpy@d+1
  6071  004648                     l3996:
  6072  004648  5007               	movf	strcpy@s^0,w,c
  6073  00464A  6E05               	movwf	??_strcpy^0,c
  6074  00464C  5008               	movf	(strcpy@s+1)^0,w,c
  6075  00464E  6E06               	movwf	(??_strcpy+1)^0,c
  6076  004650  4A07               	infsnz	strcpy@s^0,f,c
  6077  004652  2A08               	incf	(strcpy@s+1)^0,f,c
  6078  004654  C005  FFF6         	movff	??_strcpy,tblptrl
  6079  004658  C006  FFF7         	movff	??_strcpy+1,tblptrh
  6080  00465C  6AF8               	clrf	tblptru,c
  6081  00465E  C009  FFD9         	movff	strcpy@d,fsr2l
  6082  004662  C00A  FFDA         	movff	strcpy@d+1,fsr2h
  6083  004666  4A09               	infsnz	strcpy@d^0,f,c
  6084  004668  2A0A               	incf	(strcpy@d+1)^0,f,c
  6085  00466A  0E05               	movlw	(high __ramtop+-1)
  6086  00466C  64F7               	cpfsgt	tblptrh,c
  6087  00466E  D003               	bra	u4687
  6088  004670  0008               	tblrd		*
  6089  004672  50F5               	movf	tablat,w,c
  6090  004674  D005               	bra	u4680
  6091  004676                     u4687:
  6092  004676  CFF6 FFE1          	movff	tblptrl,fsr1l
  6093  00467A  CFF7 FFE2          	movff	tblptrh,fsr1h
  6094  00467E  50E7               	movf	indf1,w,c
  6095  004680                     u4680:
  6096  004680  6EDF               	movwf	indf2,c
  6097  004682  50DF               	movf	indf2,w,c
  6098  004684  A4D8               	btfss	status,2,c
  6099  004686  EF47  F023         	goto	u4691
  6100  00468A  EF49  F023         	goto	u4690
  6101  00468E                     u4691:
  6102  00468E  EF24  F023         	goto	l3996
  6103  004692                     u4690:
  6104  004692  0012               	return		;funcret
  6105  004694                     __end_of_strcpy:
  6106                           	callstack 0
  6107                           
  6108 ;; *************** function _pad *****************
  6109 ;; Defined at:
  6110 ;;		line 72 in file "C:\Program Files\Microchip\xc8\v2.32\pic\sources\c99\common\doprnt.c"
  6111 ;; Parameters:    Size  Location     Type
  6112 ;;  fp              2   21[COMRAM] PTR struct _IO_FILE
  6113 ;;		 -> NULL(0), 
  6114 ;;  buf             2   23[COMRAM] PTR unsigned char 
  6115 ;;		 -> dbuf(80), 
  6116 ;;  p               2   25[COMRAM] int 
  6117 ;; Auto vars:     Size  Location     Type
  6118 ;;  w               2   30[COMRAM] int 
  6119 ;;  i               2   28[COMRAM] int 
  6120 ;; Return value:  Size  Location     Type
  6121 ;;                  2   21[COMRAM] int 
  6122 ;; Registers used:
  6123 ;;		wreg, fsr1l, fsr1h, fsr2l, fsr2h, status,2, status,0, cstack
  6124 ;; Tracked objects:
  6125 ;;		On entry : 0/0
  6126 ;;		On exit  : 0/0
  6127 ;;		Unchanged: 0/0
  6128 ;; Data sizes:     COMRAM   BANK0   BANK1   BANK2   BANK3   BANK4   BANK5
  6129 ;;      Params:         6       0       0       0       0       0       0
  6130 ;;      Locals:         4       0       0       0       0       0       0
  6131 ;;      Temps:          1       0       0       0       0       0       0
  6132 ;;      Totals:        11       0       0       0       0       0       0
  6133 ;;Total ram usage:       11 bytes
  6134 ;; Hardware stack levels used: 1
  6135 ;; Hardware stack levels required when called: 5
  6136 ;; This function calls:
  6137 ;;		_fputc
  6138 ;;		_fputs
  6139 ;;		_strlen
  6140 ;; This function is called by:
  6141 ;;		_efgtoa
  6142 ;; This function uses a non-reentrant model
  6143 ;;
  6144                           
  6145                           	psect	text15
  6146  003F42                     __ptext15:
  6147                           	callstack 0
  6148  003F42                     _pad:
  6149                           	callstack 21
  6150  003F42                     
  6151                           ;C:\Program Files\Microchip\xc8\v2.32\pic\sources\c99\common\doprnt.c: 72: static int pa
      +                          d(FILE *fp, char *buf, int p);C:\Program Files\Microchip\xc8\v2.32\pic\sources\c99\commo
      +                          n\doprnt.c: 73: {;C:\Program Files\Microchip\xc8\v2.32\pic\sources\c99\common\doprnt.c: 
      +                          74:     int i, w;;C:\Program Files\Microchip\xc8\v2.32\pic\sources\c99\common\doprnt.c: 
      +                          77:     if (flags & (1 << 0)) {
  6152  003F42  0100               	movlb	0	; () banked
  6153  003F44  A1F0               	btfss	_flags& (0+255),0,b
  6154  003F46  EFA7  F01F         	goto	u4571
  6155  003F4A  EFA9  F01F         	goto	u4570
  6156  003F4E                     u4571:
  6157  003F4E  EFB3  F01F         	goto	l3954
  6158  003F52                     u4570:
  6159  003F52                     
  6160                           ; BSR set to: 0
  6161                           ;C:\Program Files\Microchip\xc8\v2.32\pic\sources\c99\common\doprnt.c: 78:         fputs
      +                          ((const char *)buf, fp);
  6162  003F52  C018  F00F         	movff	pad@buf,fputs@s
  6163  003F56  C019  F010         	movff	pad@buf+1,fputs@s+1
  6164  003F5A  C016  F011         	movff	pad@fp,fputs@fp
  6165  003F5E  C017  F012         	movff	pad@fp+1,fputs@fp+1
  6166  003F62  EC96  F023         	call	_fputs	;wreg free
  6167  003F66                     l3954:
  6168                           
  6169                           ;C:\Program Files\Microchip\xc8\v2.32\pic\sources\c99\common\doprnt.c: 82:     w = (p < 
      +                          0) ? 0 : p;
  6170  003F66  BE1B               	btfsc	(pad@p+1)^0,7,c
  6171  003F68  EFB8  F01F         	goto	u4581
  6172  003F6C  EFBA  F01F         	goto	u4580
  6173  003F70                     u4581:
  6174  003F70  EFC0  F01F         	goto	l3958
  6175  003F74                     u4580:
  6176  003F74  C01A  F01F         	movff	pad@p,pad@w
  6177  003F78  C01B  F020         	movff	pad@p+1,pad@w+1
  6178  003F7C  EFC4  F01F         	goto	l887
  6179  003F80                     l3958:
  6180  003F80  0E00               	movlw	0
  6181  003F82  6E20               	movwf	(pad@w+1)^0,c
  6182  003F84  0E00               	movlw	0
  6183  003F86  6E1F               	movwf	pad@w^0,c
  6184  003F88                     l887:
  6185                           
  6186                           ;C:\Program Files\Microchip\xc8\v2.32\pic\sources\c99\common\doprnt.c: 83:     i = 0;
  6187  003F88  0E00               	movlw	0
  6188  003F8A  6E1E               	movwf	(pad@i+1)^0,c
  6189  003F8C  0E00               	movlw	0
  6190  003F8E  6E1D               	movwf	pad@i^0,c
  6191                           
  6192                           ;C:\Program Files\Microchip\xc8\v2.32\pic\sources\c99\common\doprnt.c: 84:     while (i 
      +                          < w) {
  6193  003F90  EFD6  F01F         	goto	l3964
  6194  003F94                     l3960:
  6195                           
  6196                           ;C:\Program Files\Microchip\xc8\v2.32\pic\sources\c99\common\doprnt.c: 85:         fputc
      +                          (' ', fp);
  6197  003F94  0E00               	movlw	0
  6198  003F96  6E07               	movwf	(fputc@c+1)^0,c
  6199  003F98  0E20               	movlw	32
  6200  003F9A  6E06               	movwf	fputc@c^0,c
  6201  003F9C  C016  F008         	movff	pad@fp,fputc@fp
  6202  003FA0  C017  F009         	movff	pad@fp+1,fputc@fp+1
  6203  003FA4  EC6C  F021         	call	_fputc	;wreg free
  6204  003FA8                     
  6205                           ;C:\Program Files\Microchip\xc8\v2.32\pic\sources\c99\common\doprnt.c: 86:         ++i;
  6206  003FA8  4A1D               	infsnz	pad@i^0,f,c
  6207  003FAA  2A1E               	incf	(pad@i+1)^0,f,c
  6208  003FAC                     l3964:
  6209                           
  6210                           ;C:\Program Files\Microchip\xc8\v2.32\pic\sources\c99\common\doprnt.c: 84:     while (i 
      +                          < w) {
  6211  003FAC  501F               	movf	pad@w^0,w,c
  6212  003FAE  5C1D               	subwf	pad@i^0,w,c
  6213  003FB0  501E               	movf	(pad@i+1)^0,w,c
  6214  003FB2  0A80               	xorlw	128
  6215  003FB4  6E1C               	movwf	??_pad^0,c
  6216  003FB6  5020               	movf	(pad@w+1)^0,w,c
  6217  003FB8  0A80               	xorlw	128
  6218  003FBA  581C               	subwfb	??_pad^0,w,c
  6219  003FBC  A0D8               	btfss	status,0,c
  6220  003FBE  EFE3  F01F         	goto	u4591
  6221  003FC2  EFE5  F01F         	goto	u4590
  6222  003FC6                     u4591:
  6223  003FC6  EFCA  F01F         	goto	l3960
  6224  003FCA                     u4590:
  6225  003FCA                     
  6226                           ;C:\Program Files\Microchip\xc8\v2.32\pic\sources\c99\common\doprnt.c: 90:     if (!(fla
      +                          gs & (1 << 0))) {
  6227  003FCA  0100               	movlb	0	; () banked
  6228  003FCC  B1F0               	btfsc	_flags& (0+255),0,b
  6229  003FCE  EFEB  F01F         	goto	u4601
  6230  003FD2  EFED  F01F         	goto	u4600
  6231  003FD6                     u4601:
  6232  003FD6  EFF7  F01F         	goto	l3968
  6233  003FDA                     u4600:
  6234  003FDA                     
  6235                           ; BSR set to: 0
  6236                           ;C:\Program Files\Microchip\xc8\v2.32\pic\sources\c99\common\doprnt.c: 91:         fputs
      +                          ((const char *)buf, fp);
  6237  003FDA  C018  F00F         	movff	pad@buf,fputs@s
  6238  003FDE  C019  F010         	movff	pad@buf+1,fputs@s+1
  6239  003FE2  C016  F011         	movff	pad@fp,fputs@fp
  6240  003FE6  C017  F012         	movff	pad@fp+1,fputs@fp+1
  6241  003FEA  EC96  F023         	call	_fputs	;wreg free
  6242  003FEE                     l3968:
  6243                           
  6244                           ;C:\Program Files\Microchip\xc8\v2.32\pic\sources\c99\common\doprnt.c: 94:     return (i
      +                          nt)(strlen(buf) + (size_t)w);
  6245  003FEE  C018  F001         	movff	pad@buf,strlen@s
  6246  003FF2  C019  F002         	movff	pad@buf+1,strlen@s+1
  6247  003FF6  EC46  F024         	call	_strlen	;wreg free
  6248  003FFA  501F               	movf	pad@w^0,w,c
  6249  003FFC  2401               	addwf	?_strlen^0,w,c
  6250  003FFE  6E16               	movwf	?_pad^0,c
  6251  004000  5020               	movf	(pad@w+1)^0,w,c
  6252  004002  2002               	addwfc	(?_strlen+1)^0,w,c
  6253  004004  6E17               	movwf	(?_pad+1)^0,c
  6254  004006  0012               	return		;funcret
  6255  004008                     __end_of_pad:
  6256                           	callstack 0
  6257                           
  6258 ;; *************** function _strlen *****************
  6259 ;; Defined at:
  6260 ;;		line 5 in file "C:\Program Files\Microchip\xc8\v2.32\pic\sources\c99\common\strlen.c"
  6261 ;; Parameters:    Size  Location     Type
  6262 ;;  s               2    0[COMRAM] PTR const unsigned char 
  6263 ;;		 -> dbuf(80), 
  6264 ;; Auto vars:     Size  Location     Type
  6265 ;;  a               2    2[COMRAM] PTR const unsigned char 
  6266 ;;		 -> dbuf(80), 
  6267 ;; Return value:  Size  Location     Type
  6268 ;;                  2    0[COMRAM] unsigned int 
  6269 ;; Registers used:
  6270 ;;		wreg, fsr2l, fsr2h, status,2, status,0
  6271 ;; Tracked objects:
  6272 ;;		On entry : 0/0
  6273 ;;		On exit  : 0/0
  6274 ;;		Unchanged: 0/0
  6275 ;; Data sizes:     COMRAM   BANK0   BANK1   BANK2   BANK3   BANK4   BANK5
  6276 ;;      Params:         2       0       0       0       0       0       0
  6277 ;;      Locals:         2       0       0       0       0       0       0
  6278 ;;      Temps:          0       0       0       0       0       0       0
  6279 ;;      Totals:         4       0       0       0       0       0       0
  6280 ;;Total ram usage:        4 bytes
  6281 ;; Hardware stack levels used: 1
  6282 ;; This function calls:
  6283 ;;		Nothing
  6284 ;; This function is called by:
  6285 ;;		_pad
  6286 ;; This function uses a non-reentrant model
  6287 ;;
  6288                           
  6289                           	psect	text16
  6290  00488C                     __ptext16:
  6291                           	callstack 0
  6292  00488C                     _strlen:
  6293                           	callstack 25
  6294  00488C  C001  F003         	movff	strlen@s,strlen@a
  6295  004890  C002  F004         	movff	strlen@s+1,strlen@a+1
  6296  004894  EF4E  F024         	goto	l3490
  6297  004898                     l3488:
  6298  004898  4A01               	infsnz	strlen@s^0,f,c
  6299  00489A  2A02               	incf	(strlen@s+1)^0,f,c
  6300  00489C                     l3490:
  6301  00489C  C001  FFD9         	movff	strlen@s,fsr2l
  6302  0048A0  C002  FFDA         	movff	strlen@s+1,fsr2h
  6303  0048A4  50DF               	movf	indf2,w,c
  6304  0048A6  A4D8               	btfss	status,2,c
  6305  0048A8  EF58  F024         	goto	u3841
  6306  0048AC  EF5A  F024         	goto	u3840
  6307  0048B0                     u3841:
  6308  0048B0  EF4C  F024         	goto	l3488
  6309  0048B4                     u3840:
  6310  0048B4  5003               	movf	strlen@a^0,w,c
  6311  0048B6  5C01               	subwf	strlen@s^0,w,c
  6312  0048B8  6E01               	movwf	?_strlen^0,c
  6313  0048BA  5004               	movf	(strlen@a+1)^0,w,c
  6314  0048BC  5802               	subwfb	(strlen@s+1)^0,w,c
  6315  0048BE  6E02               	movwf	(?_strlen+1)^0,c
  6316  0048C0  0012               	return		;funcret
  6317  0048C2                     __end_of_strlen:
  6318                           	callstack 0
  6319                           
  6320 ;; *************** function _fputs *****************
  6321 ;; Defined at:
  6322 ;;		line 8 in file "C:\Program Files\Microchip\xc8\v2.32\pic\sources\c99\common\nf_fputs.c"
  6323 ;; Parameters:    Size  Location     Type
  6324 ;;  s               2   14[COMRAM] PTR const unsigned char 
  6325 ;;		 -> dbuf(80), 
  6326 ;;  fp              2   16[COMRAM] PTR struct _IO_FILE
  6327 ;;		 -> NULL(0), 
  6328 ;; Auto vars:     Size  Location     Type
  6329 ;;  i               2   19[COMRAM] int 
  6330 ;;  c               1   18[COMRAM] unsigned char 
  6331 ;; Return value:  Size  Location     Type
  6332 ;;                  2   14[COMRAM] int 
  6333 ;; Registers used:
  6334 ;;		wreg, fsr1l, fsr1h, fsr2l, fsr2h, status,2, status,0, cstack
  6335 ;; Tracked objects:
  6336 ;;		On entry : 0/0
  6337 ;;		On exit  : 0/0
  6338 ;;		Unchanged: 0/0
  6339 ;; Data sizes:     COMRAM   BANK0   BANK1   BANK2   BANK3   BANK4   BANK5
  6340 ;;      Params:         4       0       0       0       0       0       0
  6341 ;;      Locals:         3       0       0       0       0       0       0
  6342 ;;      Temps:          0       0       0       0       0       0       0
  6343 ;;      Totals:         7       0       0       0       0       0       0
  6344 ;;Total ram usage:        7 bytes
  6345 ;; Hardware stack levels used: 1
  6346 ;; Hardware stack levels required when called: 4
  6347 ;; This function calls:
  6348 ;;		_fputc
  6349 ;; This function is called by:
  6350 ;;		_pad
  6351 ;; This function uses a non-reentrant model
  6352 ;;
  6353                           
  6354                           	psect	text17
  6355  00472C                     __ptext17:
  6356                           	callstack 0
  6357  00472C                     _fputs:
  6358                           	callstack 21
  6359  00472C  0E00               	movlw	0
  6360  00472E  6E15               	movwf	(fputs@i+1)^0,c
  6361  004730  0E00               	movlw	0
  6362  004732  6E14               	movwf	fputs@i^0,c
  6363  004734  EFA7  F023         	goto	l3484
  6364  004738                     l3480:
  6365  004738  C013  F006         	movff	fputs@c,fputc@c
  6366  00473C  6A07               	clrf	(fputc@c+1)^0,c
  6367  00473E  C011  F008         	movff	fputs@fp,fputc@fp
  6368  004742  C012  F009         	movff	fputs@fp+1,fputc@fp+1
  6369  004746  EC6C  F021         	call	_fputc	;wreg free
  6370  00474A  4A14               	infsnz	fputs@i^0,f,c
  6371  00474C  2A15               	incf	(fputs@i+1)^0,f,c
  6372  00474E                     l3484:
  6373  00474E  5014               	movf	fputs@i^0,w,c
  6374  004750  240F               	addwf	fputs@s^0,w,c
  6375  004752  6ED9               	movwf	fsr2l,c
  6376  004754  5015               	movf	(fputs@i+1)^0,w,c
  6377  004756  2010               	addwfc	(fputs@s+1)^0,w,c
  6378  004758  6EDA               	movwf	fsr2h,c
  6379  00475A  50DF               	movf	indf2,w,c
  6380  00475C  6E13               	movwf	fputs@c^0,c
  6381  00475E  5013               	movf	fputs@c^0,w,c
  6382  004760  A4D8               	btfss	status,2,c
  6383  004762  EFB5  F023         	goto	u3831
  6384  004766  EFB7  F023         	goto	u3830
  6385  00476A                     u3831:
  6386  00476A  EF9C  F023         	goto	l3480
  6387  00476E                     u3830:
  6388  00476E  0012               	return		;funcret
  6389  004770                     __end_of_fputs:
  6390                           	callstack 0
  6391                           
  6392 ;; *************** function _floorf *****************
  6393 ;; Defined at:
  6394 ;;		line 3 in file "C:\Program Files\Microchip\xc8\v2.32\pic\sources\c99\common\floorf.c"
  6395 ;; Parameters:    Size  Location     Type
  6396 ;;  x               4   25[COMRAM] float 
  6397 ;; Auto vars:     Size  Location     Type
  6398 ;;  u               4   41[COMRAM] struct .
  6399 ;;  m               4   35[COMRAM] unsigned long 
  6400 ;;  e               2   39[COMRAM] int 
  6401 ;; Return value:  Size  Location     Type
  6402 ;;                  4   25[COMRAM] float 
  6403 ;; Registers used:
  6404 ;;		wreg, status,2, status,0
  6405 ;; Tracked objects:
  6406 ;;		On entry : 0/0
  6407 ;;		On exit  : 0/0
  6408 ;;		Unchanged: 0/0
  6409 ;; Data sizes:     COMRAM   BANK0   BANK1   BANK2   BANK3   BANK4   BANK5
  6410 ;;      Params:         4       0       0       0       0       0       0
  6411 ;;      Locals:        10       0       0       0       0       0       0
  6412 ;;      Temps:          6       0       0       0       0       0       0
  6413 ;;      Totals:        20       0       0       0       0       0       0
  6414 ;;Total ram usage:       20 bytes
  6415 ;; Hardware stack levels used: 1
  6416 ;; This function calls:
  6417 ;;		Nothing
  6418 ;; This function is called by:
  6419 ;;		_efgtoa
  6420 ;; This function uses a non-reentrant model
  6421 ;;
  6422                           
  6423                           	psect	text18
  6424  003536                     __ptext18:
  6425                           	callstack 0
  6426  003536                     _floorf:
  6427                           	callstack 26
  6428  003536  C0E0  F02A         	movff	floorf@F527,floorf@u
  6429  00353A  C0E1  F02B         	movff	floorf@F527+1,floorf@u+1
  6430  00353E  C0E2  F02C         	movff	floorf@F527+2,floorf@u+2
  6431  003542  C0E3  F02D         	movff	floorf@F527+3,floorf@u+3
  6432  003546  C01A  F02A         	movff	floorf@x,floorf@u
  6433  00354A  C01B  F02B         	movff	floorf@x+1,floorf@u+1
  6434  00354E  C01C  F02C         	movff	floorf@x+2,floorf@u+2
  6435  003552  C01D  F02D         	movff	floorf@x+3,floorf@u+3
  6436  003556  0E81               	movlw	129
  6437  003558  6E1E               	movwf	??_floorf^0,c
  6438  00355A  0EFF               	movlw	255
  6439  00355C  6E1F               	movwf	(??_floorf+1)^0,c
  6440  00355E  C02A  F020         	movff	floorf@u,??_floorf+2
  6441  003562  C02B  F021         	movff	floorf@u+1,??_floorf+3
  6442  003566  C02C  F022         	movff	floorf@u+2,??_floorf+4
  6443  00356A  C02D  F023         	movff	floorf@u+3,??_floorf+5
  6444  00356E  0E18               	movlw	24
  6445  003570  EFBF  F01A         	goto	u4730
  6446  003574                     u4735:
  6447  003574  90D8               	bcf	status,0,c
  6448  003576  3223               	rrcf	(??_floorf+5)^0,f,c
  6449  003578  3222               	rrcf	(??_floorf+4)^0,f,c
  6450  00357A  3221               	rrcf	(??_floorf+3)^0,f,c
  6451  00357C  3220               	rrcf	(??_floorf+2)^0,f,c
  6452  00357E                     u4730:
  6453  00357E  2EE8               	decfsz	wreg,f,c
  6454  003580  EFBA  F01A         	goto	u4735
  6455  003584  5020               	movf	(??_floorf+2)^0,w,c
  6456  003586  241E               	addwf	??_floorf^0,w,c
  6457  003588  6E28               	movwf	floorf@e^0,c
  6458  00358A  0E00               	movlw	0
  6459  00358C  201F               	addwfc	(??_floorf+1)^0,w,c
  6460  00358E  6E29               	movwf	(floorf@e+1)^0,c
  6461  003590  BE29               	btfsc	(floorf@e+1)^0,7,c
  6462  003592  EFD4  F01A         	goto	u4741
  6463  003596  5029               	movf	(floorf@e+1)^0,w,c
  6464  003598  E109               	bnz	u4740
  6465  00359A  0E17               	movlw	23
  6466  00359C  5C28               	subwf	floorf@e^0,w,c
  6467  00359E  A0D8               	btfss	status,0,c
  6468  0035A0  EFD4  F01A         	goto	u4741
  6469  0035A4  EFD6  F01A         	goto	u4740
  6470  0035A8                     u4741:
  6471  0035A8  EFE0  F01A         	goto	l4014
  6472  0035AC                     u4740:
  6473  0035AC                     l4012:
  6474  0035AC  C01A  F01A         	movff	floorf@x,?_floorf
  6475  0035B0  C01B  F01B         	movff	floorf@x+1,?_floorf+1
  6476  0035B4  C01C  F01C         	movff	floorf@x+2,?_floorf+2
  6477  0035B8  C01D  F01D         	movff	floorf@x+3,?_floorf+3
  6478  0035BC  EFA3  F01B         	goto	l1081
  6479  0035C0                     l4014:
  6480  0035C0  BE29               	btfsc	(floorf@e+1)^0,7,c
  6481  0035C2  EFE5  F01A         	goto	u4751
  6482  0035C6  EFE7  F01A         	goto	u4750
  6483  0035CA                     u4751:
  6484  0035CA  EF57  F01B         	goto	l4024
  6485  0035CE                     u4750:
  6486  0035CE  C028  F01E         	movff	floorf@e,??_floorf
  6487  0035D2  0EFF               	movlw	255
  6488  0035D4  6E1F               	movwf	(??_floorf+1)^0,c
  6489  0035D6  0EFF               	movlw	255
  6490  0035D8  6E20               	movwf	(??_floorf+2)^0,c
  6491  0035DA  0E7F               	movlw	127
  6492  0035DC  6E21               	movwf	(??_floorf+3)^0,c
  6493  0035DE  0E00               	movlw	0
  6494  0035E0  6E22               	movwf	(??_floorf+4)^0,c
  6495  0035E2                     u4765:
  6496  0035E2  661E               	tstfsz	??_floorf^0,c
  6497  0035E4  EFF6  F01A         	goto	u4766
  6498  0035E8  EFFE  F01A         	goto	u4767
  6499  0035EC                     u4766:
  6500  0035EC  3422               	rlcf	(??_floorf+4)^0,w,c
  6501  0035EE  3222               	rrcf	(??_floorf+4)^0,f,c
  6502  0035F0  3221               	rrcf	(??_floorf+3)^0,f,c
  6503  0035F2  3220               	rrcf	(??_floorf+2)^0,f,c
  6504  0035F4  321F               	rrcf	(??_floorf+1)^0,f,c
  6505  0035F6  2E1E               	decfsz	??_floorf^0,f,c
  6506  0035F8  EFF1  F01A         	goto	u4765
  6507  0035FC                     u4767:
  6508  0035FC  C01F  F024         	movff	??_floorf+1,floorf@m
  6509  003600  C020  F025         	movff	??_floorf+2,floorf@m+1
  6510  003604  C021  F026         	movff	??_floorf+3,floorf@m+2
  6511  003608  C022  F027         	movff	??_floorf+4,floorf@m+3
  6512  00360C  5024               	movf	floorf@m^0,w,c
  6513  00360E  142A               	andwf	floorf@u^0,w,c
  6514  003610  6E1E               	movwf	??_floorf^0,c
  6515  003612  5025               	movf	(floorf@m+1)^0,w,c
  6516  003614  142B               	andwf	(floorf@u+1)^0,w,c
  6517  003616  6E1F               	movwf	(??_floorf+1)^0,c
  6518  003618  5026               	movf	(floorf@m+2)^0,w,c
  6519  00361A  142C               	andwf	(floorf@u+2)^0,w,c
  6520  00361C  6E20               	movwf	(??_floorf+2)^0,c
  6521  00361E  5027               	movf	(floorf@m+3)^0,w,c
  6522  003620  142D               	andwf	(floorf@u+3)^0,w,c
  6523  003622  6E21               	movwf	(??_floorf+3)^0,c
  6524  003624  501E               	movf	??_floorf^0,w,c
  6525  003626  101F               	iorwf	(??_floorf+1)^0,w,c
  6526  003628  1020               	iorwf	(??_floorf+2)^0,w,c
  6527  00362A  1021               	iorwf	(??_floorf+3)^0,w,c
  6528  00362C  A4D8               	btfss	status,2,c
  6529  00362E  EF1B  F01B         	goto	u4771
  6530  003632  EF1D  F01B         	goto	u4770
  6531  003636                     u4771:
  6532  003636  EF1F  F01B         	goto	l4020
  6533  00363A                     u4770:
  6534  00363A  EFD6  F01A         	goto	l4012
  6535  00363E                     l4020:
  6536  00363E  C02A  F01E         	movff	floorf@u,??_floorf
  6537  003642  C02B  F01F         	movff	floorf@u+1,??_floorf+1
  6538  003646  C02C  F020         	movff	floorf@u+2,??_floorf+2
  6539  00364A  C02D  F021         	movff	floorf@u+3,??_floorf+3
  6540  00364E  0E20               	movlw	32
  6541  003650  EF2F  F01B         	goto	u4780
  6542  003654                     u4785:
  6543  003654  90D8               	bcf	status,0,c
  6544  003656  3221               	rrcf	(??_floorf+3)^0,f,c
  6545  003658  3220               	rrcf	(??_floorf+2)^0,f,c
  6546  00365A  321F               	rrcf	(??_floorf+1)^0,f,c
  6547  00365C  321E               	rrcf	??_floorf^0,f,c
  6548  00365E                     u4780:
  6549  00365E  2EE8               	decfsz	wreg,f,c
  6550  003660  EF2A  F01B         	goto	u4785
  6551  003664  501E               	movf	??_floorf^0,w,c
  6552  003666  101F               	iorwf	(??_floorf+1)^0,w,c
  6553  003668  1020               	iorwf	(??_floorf+2)^0,w,c
  6554  00366A  1021               	iorwf	(??_floorf+3)^0,w,c
  6555  00366C  B4D8               	btfsc	status,2,c
  6556  00366E  EF3B  F01B         	goto	u4791
  6557  003672  EF3D  F01B         	goto	u4790
  6558  003676                     u4791:
  6559  003676  EF45  F01B         	goto	l1084
  6560  00367A                     u4790:
  6561  00367A  5024               	movf	floorf@m^0,w,c
  6562  00367C  262A               	addwf	floorf@u^0,f,c
  6563  00367E  5025               	movf	(floorf@m+1)^0,w,c
  6564  003680  222B               	addwfc	(floorf@u+1)^0,f,c
  6565  003682  5026               	movf	(floorf@m+2)^0,w,c
  6566  003684  222C               	addwfc	(floorf@u+2)^0,f,c
  6567  003686  5027               	movf	(floorf@m+3)^0,w,c
  6568  003688  222D               	addwfc	(floorf@u+3)^0,f,c
  6569  00368A                     l1084:
  6570  00368A  1C24               	comf	floorf@m^0,w,c
  6571  00368C  6E1E               	movwf	??_floorf^0,c
  6572  00368E  1C25               	comf	(floorf@m+1)^0,w,c
  6573  003690  6E1F               	movwf	(??_floorf+1)^0,c
  6574  003692  1C26               	comf	(floorf@m+2)^0,w,c
  6575  003694  6E20               	movwf	(??_floorf+2)^0,c
  6576  003696  1C27               	comf	(floorf@m+3)^0,w,c
  6577  003698  6E21               	movwf	(??_floorf+3)^0,c
  6578  00369A  501E               	movf	??_floorf^0,w,c
  6579  00369C  162A               	andwf	floorf@u^0,f,c
  6580  00369E  501F               	movf	(??_floorf+1)^0,w,c
  6581  0036A0  162B               	andwf	(floorf@u+1)^0,f,c
  6582  0036A2  5020               	movf	(??_floorf+2)^0,w,c
  6583  0036A4  162C               	andwf	(floorf@u+2)^0,f,c
  6584  0036A6  5021               	movf	(??_floorf+3)^0,w,c
  6585  0036A8  162D               	andwf	(floorf@u+3)^0,f,c
  6586  0036AA  EF9B  F01B         	goto	l4032
  6587  0036AE                     l4024:
  6588  0036AE  C02A  F01E         	movff	floorf@u,??_floorf
  6589  0036B2  C02B  F01F         	movff	floorf@u+1,??_floorf+1
  6590  0036B6  C02C  F020         	movff	floorf@u+2,??_floorf+2
  6591  0036BA  C02D  F021         	movff	floorf@u+3,??_floorf+3
  6592  0036BE  0E20               	movlw	32
  6593  0036C0  EF67  F01B         	goto	u4800
  6594  0036C4                     u4805:
  6595  0036C4  90D8               	bcf	status,0,c
  6596  0036C6  3221               	rrcf	(??_floorf+3)^0,f,c
  6597  0036C8  3220               	rrcf	(??_floorf+2)^0,f,c
  6598  0036CA  321F               	rrcf	(??_floorf+1)^0,f,c
  6599  0036CC  321E               	rrcf	??_floorf^0,f,c
  6600  0036CE                     u4800:
  6601  0036CE  2EE8               	decfsz	wreg,f,c
  6602  0036D0  EF62  F01B         	goto	u4805
  6603  0036D4  501E               	movf	??_floorf^0,w,c
  6604  0036D6  101F               	iorwf	(??_floorf+1)^0,w,c
  6605  0036D8  1020               	iorwf	(??_floorf+2)^0,w,c
  6606  0036DA  1021               	iorwf	(??_floorf+3)^0,w,c
  6607  0036DC  A4D8               	btfss	status,2,c
  6608  0036DE  EF73  F01B         	goto	u4811
  6609  0036E2  EF75  F01B         	goto	u4810
  6610  0036E6                     u4811:
  6611  0036E6  EF7F  F01B         	goto	l4028
  6612  0036EA                     u4810:
  6613  0036EA  0E00               	movlw	0
  6614  0036EC  6E2A               	movwf	floorf@u^0,c
  6615  0036EE  0E00               	movlw	0
  6616  0036F0  6E2B               	movwf	(floorf@u+1)^0,c
  6617  0036F2  0E00               	movlw	0
  6618  0036F4  6E2C               	movwf	(floorf@u+2)^0,c
  6619  0036F6  0E00               	movlw	0
  6620  0036F8  6E2D               	movwf	(floorf@u+3)^0,c
  6621  0036FA  EF9B  F01B         	goto	l4032
  6622  0036FE                     l4028:
  6623  0036FE  90D8               	bcf	status,0,c
  6624  003700  342A               	rlcf	floorf@u^0,w,c
  6625  003702  6E1E               	movwf	??_floorf^0,c
  6626  003704  342B               	rlcf	(floorf@u+1)^0,w,c
  6627  003706  6E1F               	movwf	(??_floorf+1)^0,c
  6628  003708  342C               	rlcf	(floorf@u+2)^0,w,c
  6629  00370A  6E20               	movwf	(??_floorf+2)^0,c
  6630  00370C  342D               	rlcf	(floorf@u+3)^0,w,c
  6631  00370E  6E21               	movwf	(??_floorf+3)^0,c
  6632  003710  501E               	movf	??_floorf^0,w,c
  6633  003712  101F               	iorwf	(??_floorf+1)^0,w,c
  6634  003714  1020               	iorwf	(??_floorf+2)^0,w,c
  6635  003716  1021               	iorwf	(??_floorf+3)^0,w,c
  6636  003718  B4D8               	btfsc	status,2,c
  6637  00371A  EF91  F01B         	goto	u4821
  6638  00371E  EF93  F01B         	goto	u4820
  6639  003722                     u4821:
  6640  003722  EF9B  F01B         	goto	l4032
  6641  003726                     u4820:
  6642  003726  0E00               	movlw	0
  6643  003728  6E2A               	movwf	floorf@u^0,c
  6644  00372A  0E00               	movlw	0
  6645  00372C  6E2B               	movwf	(floorf@u+1)^0,c
  6646  00372E  0E80               	movlw	128
  6647  003730  6E2C               	movwf	(floorf@u+2)^0,c
  6648  003732  0EBF               	movlw	191
  6649  003734  6E2D               	movwf	(floorf@u+3)^0,c
  6650  003736                     l4032:
  6651  003736  C02A  F01A         	movff	floorf@u,?_floorf
  6652  00373A  C02B  F01B         	movff	floorf@u+1,?_floorf+1
  6653  00373E  C02C  F01C         	movff	floorf@u+2,?_floorf+2
  6654  003742  C02D  F01D         	movff	floorf@u+3,?_floorf+3
  6655  003746                     l1081:
  6656  003746  0012               	return		;funcret
  6657  003748                     __end_of_floorf:
  6658                           	callstack 0
  6659                           
  6660 ;; *************** function ___fpclassifyf *****************
  6661 ;; Defined at:
  6662 ;;		line 4 in file "C:\Program Files\Microchip\xc8\v2.32\pic\sources\c99\common\__fpclassifyf.c"
  6663 ;; Parameters:    Size  Location     Type
  6664 ;;  x               4    0[COMRAM] float 
  6665 ;; Auto vars:     Size  Location     Type
  6666 ;;  u               4   10[COMRAM] struct .
  6667 ;;  e               2    8[COMRAM] int 
  6668 ;; Return value:  Size  Location     Type
  6669 ;;                  2    0[COMRAM] int 
  6670 ;; Registers used:
  6671 ;;		wreg, status,2, status,0
  6672 ;; Tracked objects:
  6673 ;;		On entry : 0/0
  6674 ;;		On exit  : 0/0
  6675 ;;		Unchanged: 0/0
  6676 ;; Data sizes:     COMRAM   BANK0   BANK1   BANK2   BANK3   BANK4   BANK5
  6677 ;;      Params:         4       0       0       0       0       0       0
  6678 ;;      Locals:         6       0       0       0       0       0       0
  6679 ;;      Temps:          4       0       0       0       0       0       0
  6680 ;;      Totals:        14       0       0       0       0       0       0
  6681 ;;Total ram usage:       14 bytes
  6682 ;; Hardware stack levels used: 1
  6683 ;; This function calls:
  6684 ;;		Nothing
  6685 ;; This function is called by:
  6686 ;;		_efgtoa
  6687 ;; This function uses a non-reentrant model
  6688 ;;
  6689                           
  6690                           	psect	text19
  6691  003C96                     __ptext19:
  6692                           	callstack 0
  6693  003C96                     ___fpclassifyf:
  6694                           	callstack 26
  6695  003C96  C0E4  F00B         	movff	___fpclassifyf@F465,___fpclassifyf@u
  6696  003C9A  C0E5  F00C         	movff	___fpclassifyf@F465+1,___fpclassifyf@u+1
  6697  003C9E  C0E6  F00D         	movff	___fpclassifyf@F465+2,___fpclassifyf@u+2
  6698  003CA2  C0E7  F00E         	movff	___fpclassifyf@F465+3,___fpclassifyf@u+3
  6699  003CA6  C001  F00B         	movff	___fpclassifyf@x,___fpclassifyf@u
  6700  003CAA  C002  F00C         	movff	___fpclassifyf@x+1,___fpclassifyf@u+1
  6701  003CAE  C003  F00D         	movff	___fpclassifyf@x+2,___fpclassifyf@u+2
  6702  003CB2  C004  F00E         	movff	___fpclassifyf@x+3,___fpclassifyf@u+3
  6703  003CB6  C00B  F005         	movff	___fpclassifyf@u,??___fpclassifyf
  6704  003CBA  C00C  F006         	movff	___fpclassifyf@u+1,??___fpclassifyf+1
  6705  003CBE  C00D  F007         	movff	___fpclassifyf@u+2,??___fpclassifyf+2
  6706  003CC2  C00E  F008         	movff	___fpclassifyf@u+3,??___fpclassifyf+3
  6707  003CC6  0E18               	movlw	24
  6708  003CC8  EF6B  F01E         	goto	u4610
  6709  003CCC                     u4615:
  6710  003CCC  90D8               	bcf	status,0,c
  6711  003CCE  3208               	rrcf	(??___fpclassifyf+3)^0,f,c
  6712  003CD0  3207               	rrcf	(??___fpclassifyf+2)^0,f,c
  6713  003CD2  3206               	rrcf	(??___fpclassifyf+1)^0,f,c
  6714  003CD4  3205               	rrcf	??___fpclassifyf^0,f,c
  6715  003CD6                     u4610:
  6716  003CD6  2EE8               	decfsz	wreg,f,c
  6717  003CD8  EF66  F01E         	goto	u4615
  6718  003CDC  5005               	movf	??___fpclassifyf^0,w,c
  6719  003CDE  6E09               	movwf	___fpclassifyf@e^0,c
  6720  003CE0  6A0A               	clrf	(___fpclassifyf@e+1)^0,c
  6721  003CE2  5009               	movf	___fpclassifyf@e^0,w,c
  6722  003CE4  100A               	iorwf	(___fpclassifyf@e+1)^0,w,c
  6723  003CE6  A4D8               	btfss	status,2,c
  6724  003CE8  EF78  F01E         	goto	u4621
  6725  003CEC  EF7A  F01E         	goto	u4620
  6726  003CF0                     u4621:
  6727  003CF0  EF9A  F01E         	goto	l3984
  6728  003CF4                     u4620:
  6729  003CF4  90D8               	bcf	status,0,c
  6730  003CF6  340B               	rlcf	___fpclassifyf@u^0,w,c
  6731  003CF8  6E05               	movwf	??___fpclassifyf^0,c
  6732  003CFA  340C               	rlcf	(___fpclassifyf@u+1)^0,w,c
  6733  003CFC  6E06               	movwf	(??___fpclassifyf+1)^0,c
  6734  003CFE  340D               	rlcf	(___fpclassifyf@u+2)^0,w,c
  6735  003D00  6E07               	movwf	(??___fpclassifyf+2)^0,c
  6736  003D02  340E               	rlcf	(___fpclassifyf@u+3)^0,w,c
  6737  003D04  6E08               	movwf	(??___fpclassifyf+3)^0,c
  6738  003D06  5005               	movf	??___fpclassifyf^0,w,c
  6739  003D08  1006               	iorwf	(??___fpclassifyf+1)^0,w,c
  6740  003D0A  1007               	iorwf	(??___fpclassifyf+2)^0,w,c
  6741  003D0C  1008               	iorwf	(??___fpclassifyf+3)^0,w,c
  6742  003D0E  A4D8               	btfss	status,2,c
  6743  003D10  EF8C  F01E         	goto	u4631
  6744  003D14  EF8E  F01E         	goto	u4630
  6745  003D18                     u4631:
  6746  003D18  EF94  F01E         	goto	l3980
  6747  003D1C                     u4630:
  6748  003D1C  0E00               	movlw	0
  6749  003D1E  6E02               	movwf	(?___fpclassifyf+1)^0,c
  6750  003D20  0E02               	movlw	2
  6751  003D22  6E01               	movwf	?___fpclassifyf^0,c
  6752  003D24  EFC9  F01E         	goto	l1043
  6753  003D28                     l3980:
  6754  003D28  0E00               	movlw	0
  6755  003D2A  6E02               	movwf	(?___fpclassifyf+1)^0,c
  6756  003D2C  0E03               	movlw	3
  6757  003D2E  6E01               	movwf	?___fpclassifyf^0,c
  6758  003D30  EFC9  F01E         	goto	l1043
  6759  003D34                     l3984:
  6760  003D34  2809               	incf	___fpclassifyf@e^0,w,c
  6761  003D36  100A               	iorwf	(___fpclassifyf@e+1)^0,w,c
  6762  003D38  A4D8               	btfss	status,2,c
  6763  003D3A  EFA1  F01E         	goto	u4641
  6764  003D3E  EFA3  F01E         	goto	u4640
  6765  003D42                     u4641:
  6766  003D42  EFC5  F01E         	goto	l3990
  6767  003D46                     u4640:
  6768  003D46  C00B  F005         	movff	___fpclassifyf@u,??___fpclassifyf
  6769  003D4A  C00C  F006         	movff	___fpclassifyf@u+1,??___fpclassifyf+1
  6770  003D4E  C00D  F007         	movff	___fpclassifyf@u+2,??___fpclassifyf+2
  6771  003D52  C00E  F008         	movff	___fpclassifyf@u+3,??___fpclassifyf+3
  6772  003D56  0E09               	movlw	9
  6773  003D58                     u4655:
  6774  003D58  90D8               	bcf	status,0,c
  6775  003D5A  3605               	rlcf	??___fpclassifyf^0,f,c
  6776  003D5C  3606               	rlcf	(??___fpclassifyf+1)^0,f,c
  6777  003D5E  3607               	rlcf	(??___fpclassifyf+2)^0,f,c
  6778  003D60  3608               	rlcf	(??___fpclassifyf+3)^0,f,c
  6779  003D62  2EE8               	decfsz	wreg,f,c
  6780  003D64  EFAC  F01E         	goto	u4655
  6781  003D68  5005               	movf	??___fpclassifyf^0,w,c
  6782  003D6A  1006               	iorwf	(??___fpclassifyf+1)^0,w,c
  6783  003D6C  1007               	iorwf	(??___fpclassifyf+2)^0,w,c
  6784  003D6E  1008               	iorwf	(??___fpclassifyf+3)^0,w,c
  6785  003D70  B4D8               	btfsc	status,2,c
  6786  003D72  EFBD  F01E         	goto	u4661
  6787  003D76  EFC0  F01E         	goto	u4660
  6788  003D7A                     u4661:
  6789  003D7A  0E01               	movlw	1
  6790  003D7C  EFC1  F01E         	goto	u4670
  6791  003D80                     u4660:
  6792  003D80  0E00               	movlw	0
  6793  003D82                     u4670:
  6794  003D82  6E01               	movwf	?___fpclassifyf^0,c
  6795  003D84  6A02               	clrf	(?___fpclassifyf+1)^0,c
  6796  003D86  EFC9  F01E         	goto	l1043
  6797  003D8A                     l3990:
  6798  003D8A  0E00               	movlw	0
  6799  003D8C  6E02               	movwf	(?___fpclassifyf+1)^0,c
  6800  003D8E  0E04               	movlw	4
  6801  003D90  6E01               	movwf	?___fpclassifyf^0,c
  6802  003D92                     l1043:
  6803  003D92  0012               	return		;funcret
  6804  003D94                     __end_of___fpclassifyf:
  6805                           	callstack 0
  6806                           
  6807 ;; *************** function ___fltol *****************
  6808 ;; Defined at:
  6809 ;;		line 43 in file "C:\Program Files\Microchip\xc8\v2.32\pic\sources\c99\common\fltol.c"
  6810 ;; Parameters:    Size  Location     Type
  6811 ;;  f1              4    0[COMRAM] int 
  6812 ;; Auto vars:     Size  Location     Type
  6813 ;;  exp1            1    9[COMRAM] unsigned char 
  6814 ;;  sign1           1    8[COMRAM] unsigned char 
  6815 ;; Return value:  Size  Location     Type
  6816 ;;                  4    0[COMRAM] long 
  6817 ;; Registers used:
  6818 ;;		wreg, status,2, status,0
  6819 ;; Tracked objects:
  6820 ;;		On entry : 0/0
  6821 ;;		On exit  : 0/0
  6822 ;;		Unchanged: 0/0
  6823 ;; Data sizes:     COMRAM   BANK0   BANK1   BANK2   BANK3   BANK4   BANK5
  6824 ;;      Params:         4       0       0       0       0       0       0
  6825 ;;      Locals:         2       0       0       0       0       0       0
  6826 ;;      Temps:          4       0       0       0       0       0       0
  6827 ;;      Totals:        10       0       0       0       0       0       0
  6828 ;;Total ram usage:       10 bytes
  6829 ;; Hardware stack levels used: 1
  6830 ;; This function calls:
  6831 ;;		Nothing
  6832 ;; This function is called by:
  6833 ;;		_efgtoa
  6834 ;; This function uses a non-reentrant model
  6835 ;;
  6836                           
  6837                           	psect	text20
  6838  003A8C                     __ptext20:
  6839                           	callstack 0
  6840  003A8C                     ___fltol:
  6841                           	callstack 26
  6842  003A8C  3403               	rlcf	(___fltol@f1+2)^0,w,c
  6843  003A8E  3404               	rlcf	(___fltol@f1+3)^0,w,c
  6844  003A90  6E0A               	movwf	___fltol@exp1^0,c
  6845  003A92  500A               	movf	___fltol@exp1^0,w,c
  6846  003A94  A4D8               	btfss	status,2,c
  6847  003A96  EF4F  F01D         	goto	u4501
  6848  003A9A  EF51  F01D         	goto	u4500
  6849  003A9E                     u4501:
  6850  003A9E  EF5B  F01D         	goto	l3912
  6851  003AA2                     u4500:
  6852  003AA2                     l3908:
  6853  003AA2  0E00               	movlw	0
  6854  003AA4  6E01               	movwf	?___fltol^0,c
  6855  003AA6  0E00               	movlw	0
  6856  003AA8  6E02               	movwf	(?___fltol+1)^0,c
  6857  003AAA  0E00               	movlw	0
  6858  003AAC  6E03               	movwf	(?___fltol+2)^0,c
  6859  003AAE  0E00               	movlw	0
  6860  003AB0  6E04               	movwf	(?___fltol+3)^0,c
  6861  003AB2  EFC8  F01D         	goto	l465
  6862  003AB6                     l3912:
  6863  003AB6  C001  F005         	movff	___fltol@f1,??___fltol
  6864  003ABA  C002  F006         	movff	___fltol@f1+1,??___fltol+1
  6865  003ABE  C003  F007         	movff	___fltol@f1+2,??___fltol+2
  6866  003AC2  C004  F008         	movff	___fltol@f1+3,??___fltol+3
  6867  003AC6  0E20               	movlw	32
  6868  003AC8  EF6B  F01D         	goto	u4510
  6869  003ACC                     u4515:
  6870  003ACC  90D8               	bcf	status,0,c
  6871  003ACE  3208               	rrcf	(??___fltol+3)^0,f,c
  6872  003AD0  3207               	rrcf	(??___fltol+2)^0,f,c
  6873  003AD2  3206               	rrcf	(??___fltol+1)^0,f,c
  6874  003AD4  3205               	rrcf	??___fltol^0,f,c
  6875  003AD6                     u4510:
  6876  003AD6  2EE8               	decfsz	wreg,f,c
  6877  003AD8  EF66  F01D         	goto	u4515
  6878  003ADC  5005               	movf	??___fltol^0,w,c
  6879  003ADE  6E09               	movwf	___fltol@sign1^0,c
  6880  003AE0  8E03               	bsf	(___fltol@f1+2)^0,7,c
  6881  003AE2  0EFF               	movlw	255
  6882  003AE4  1601               	andwf	___fltol@f1^0,f,c
  6883  003AE6  0EFF               	movlw	255
  6884  003AE8  1602               	andwf	(___fltol@f1+1)^0,f,c
  6885  003AEA  0EFF               	movlw	255
  6886  003AEC  1603               	andwf	(___fltol@f1+2)^0,f,c
  6887  003AEE  0E00               	movlw	0
  6888  003AF0  1604               	andwf	(___fltol@f1+3)^0,f,c
  6889  003AF2  0E96               	movlw	150
  6890  003AF4  5E0A               	subwf	___fltol@exp1^0,f,c
  6891  003AF6  BE0A               	btfsc	___fltol@exp1^0,7,c
  6892  003AF8  EF82  F01D         	goto	u4520
  6893  003AFC  EF80  F01D         	goto	u4521
  6894  003B00                     u4521:
  6895  003B00  EF98  F01D         	goto	l3932
  6896  003B04                     u4520:
  6897  003B04  500A               	movf	___fltol@exp1^0,w,c
  6898  003B06  0A80               	xorlw	128
  6899  003B08  0F97               	addlw	151
  6900  003B0A  B0D8               	btfsc	status,0,c
  6901  003B0C  EF8A  F01D         	goto	u4531
  6902  003B10  EF8C  F01D         	goto	u4530
  6903  003B14                     u4531:
  6904  003B14  EF8E  F01D         	goto	l3928
  6905  003B18                     u4530:
  6906  003B18  EF51  F01D         	goto	l3908
  6907  003B1C                     l3928:
  6908  003B1C  90D8               	bcf	status,0,c
  6909  003B1E  3204               	rrcf	(___fltol@f1+3)^0,f,c
  6910  003B20  3203               	rrcf	(___fltol@f1+2)^0,f,c
  6911  003B22  3202               	rrcf	(___fltol@f1+1)^0,f,c
  6912  003B24  3201               	rrcf	___fltol@f1^0,f,c
  6913  003B26  3E0A               	incfsz	___fltol@exp1^0,f,c
  6914  003B28  EF8E  F01D         	goto	l3928
  6915  003B2C  EFB0  F01D         	goto	l3942
  6916  003B30                     l3932:
  6917  003B30  0E1F               	movlw	31
  6918  003B32  640A               	cpfsgt	___fltol@exp1^0,c
  6919  003B34  EF9E  F01D         	goto	u4541
  6920  003B38  EFA0  F01D         	goto	u4540
  6921  003B3C                     u4541:
  6922  003B3C  EFA8  F01D         	goto	l3940
  6923  003B40                     u4540:
  6924  003B40  EF51  F01D         	goto	l3908
  6925  003B44                     l3938:
  6926  003B44  90D8               	bcf	status,0,c
  6927  003B46  3601               	rlcf	___fltol@f1^0,f,c
  6928  003B48  3602               	rlcf	(___fltol@f1+1)^0,f,c
  6929  003B4A  3603               	rlcf	(___fltol@f1+2)^0,f,c
  6930  003B4C  3604               	rlcf	(___fltol@f1+3)^0,f,c
  6931  003B4E  060A               	decf	___fltol@exp1^0,f,c
  6932  003B50                     l3940:
  6933  003B50  500A               	movf	___fltol@exp1^0,w,c
  6934  003B52  A4D8               	btfss	status,2,c
  6935  003B54  EFAE  F01D         	goto	u4551
  6936  003B58  EFB0  F01D         	goto	u4550
  6937  003B5C                     u4551:
  6938  003B5C  EFA2  F01D         	goto	l3938
  6939  003B60                     u4550:
  6940  003B60                     l3942:
  6941  003B60  5009               	movf	___fltol@sign1^0,w,c
  6942  003B62  B4D8               	btfsc	status,2,c
  6943  003B64  EFB6  F01D         	goto	u4561
  6944  003B68  EFB8  F01D         	goto	u4560
  6945  003B6C                     u4561:
  6946  003B6C  EFC0  F01D         	goto	l3946
  6947  003B70                     u4560:
  6948  003B70  1E04               	comf	(___fltol@f1+3)^0,f,c
  6949  003B72  1E03               	comf	(___fltol@f1+2)^0,f,c
  6950  003B74  1E02               	comf	(___fltol@f1+1)^0,f,c
  6951  003B76  6C01               	negf	___fltol@f1^0,c
  6952  003B78  0E00               	movlw	0
  6953  003B7A  2202               	addwfc	(___fltol@f1+1)^0,f,c
  6954  003B7C  2203               	addwfc	(___fltol@f1+2)^0,f,c
  6955  003B7E  2204               	addwfc	(___fltol@f1+3)^0,f,c
  6956  003B80                     l3946:
  6957  003B80  C001  F001         	movff	___fltol@f1,?___fltol
  6958  003B84  C002  F002         	movff	___fltol@f1+1,?___fltol+1
  6959  003B88  C003  F003         	movff	___fltol@f1+2,?___fltol+2
  6960  003B8C  C004  F004         	movff	___fltol@f1+3,?___fltol+3
  6961  003B90                     l465:
  6962  003B90  0012               	return		;funcret
  6963  003B92                     __end_of___fltol:
  6964                           	callstack 0
  6965                           
  6966 ;; *************** function ___flsub *****************
  6967 ;; Defined at:
  6968 ;;		line 245 in file "C:\Program Files\Microchip\xc8\v2.32\pic\sources\c99\common\sprcadd.c"
  6969 ;; Parameters:    Size  Location     Type
  6970 ;;  b               4   25[COMRAM] long 
  6971 ;;  a               4   29[COMRAM] long 
  6972 ;; Auto vars:     Size  Location     Type
  6973 ;;		None
  6974 ;; Return value:  Size  Location     Type
  6975 ;;                  4   25[COMRAM] long 
  6976 ;; Registers used:
  6977 ;;		wreg, status,2, status,0, cstack
  6978 ;; Tracked objects:
  6979 ;;		On entry : 0/0
  6980 ;;		On exit  : 0/0
  6981 ;;		Unchanged: 0/0
  6982 ;; Data sizes:     COMRAM   BANK0   BANK1   BANK2   BANK3   BANK4   BANK5
  6983 ;;      Params:         8       0       0       0       0       0       0
  6984 ;;      Locals:         0       0       0       0       0       0       0
  6985 ;;      Temps:          0       0       0       0       0       0       0
  6986 ;;      Totals:         8       0       0       0       0       0       0
  6987 ;;Total ram usage:        8 bytes
  6988 ;; Hardware stack levels used: 1
  6989 ;; Hardware stack levels required when called: 1
  6990 ;; This function calls:
  6991 ;;		___fladd
  6992 ;; This function is called by:
  6993 ;;		_main
  6994 ;;		_efgtoa
  6995 ;; This function uses a non-reentrant model
  6996 ;;
  6997                           
  6998                           	psect	text21
  6999  0046E6                     __ptext21:
  7000                           	callstack 0
  7001  0046E6                     ___flsub:
  7002                           	callstack 25
  7003  0046E6  0E00               	movlw	0
  7004  0046E8  1A1E               	xorwf	___flsub@a^0,f,c
  7005  0046EA  0E00               	movlw	0
  7006  0046EC  1A1F               	xorwf	(___flsub@a+1)^0,f,c
  7007  0046EE  0E00               	movlw	0
  7008  0046F0  1A20               	xorwf	(___flsub@a+2)^0,f,c
  7009  0046F2  0E80               	movlw	128
  7010  0046F4  1A21               	xorwf	(___flsub@a+3)^0,f,c
  7011  0046F6  C01A  F001         	movff	___flsub@b,___fladd@b
  7012  0046FA  C01B  F002         	movff	___flsub@b+1,___fladd@b+1
  7013  0046FE  C01C  F003         	movff	___flsub@b+2,___fladd@b+2
  7014  004702  C01D  F004         	movff	___flsub@b+3,___fladd@b+3
  7015  004706  C01E  F005         	movff	___flsub@a,___fladd@a
  7016  00470A  C01F  F006         	movff	___flsub@a+1,___fladd@a+1
  7017  00470E  C020  F007         	movff	___flsub@a+2,___fladd@a+2
  7018  004712  C021  F008         	movff	___flsub@a+3,___fladd@a+3
  7019  004716  EC9F  F010         	call	___fladd	;wreg free
  7020  00471A  C001  F01A         	movff	?___fladd,?___flsub
  7021  00471E  C002  F01B         	movff	?___fladd+1,?___flsub+1
  7022  004722  C003  F01C         	movff	?___fladd+2,?___flsub+2
  7023  004726  C004  F01D         	movff	?___fladd+3,?___flsub+3
  7024  00472A  0012               	return		;funcret
  7025  00472C                     __end_of___flsub:
  7026                           	callstack 0
  7027                           
  7028 ;; *************** function ___fladd *****************
  7029 ;; Defined at:
  7030 ;;		line 10 in file "C:\Program Files\Microchip\xc8\v2.32\pic\sources\c99\common\sprcadd.c"
  7031 ;; Parameters:    Size  Location     Type
  7032 ;;  b               4    0[COMRAM] long 
  7033 ;;  a               4    4[COMRAM] long 
  7034 ;; Auto vars:     Size  Location     Type
  7035 ;;  grs             1   15[COMRAM] unsigned char 
  7036 ;;  bexp            1   14[COMRAM] unsigned char 
  7037 ;;  aexp            1   13[COMRAM] unsigned char 
  7038 ;;  signs           1   12[COMRAM] unsigned char 
  7039 ;; Return value:  Size  Location     Type
  7040 ;;                  4    0[COMRAM] unsigned char 
  7041 ;; Registers used:
  7042 ;;		wreg, status,2, status,0
  7043 ;; Tracked objects:
  7044 ;;		On entry : 0/0
  7045 ;;		On exit  : 0/0
  7046 ;;		Unchanged: 0/0
  7047 ;; Data sizes:     COMRAM   BANK0   BANK1   BANK2   BANK3   BANK4   BANK5
  7048 ;;      Params:         8       0       0       0       0       0       0
  7049 ;;      Locals:         4       0       0       0       0       0       0
  7050 ;;      Temps:          4       0       0       0       0       0       0
  7051 ;;      Totals:        16       0       0       0       0       0       0
  7052 ;;Total ram usage:       16 bytes
  7053 ;; Hardware stack levels used: 1
  7054 ;; This function calls:
  7055 ;;		Nothing
  7056 ;; This function is called by:
  7057 ;;		_main
  7058 ;;		___flsub
  7059 ;;		_efgtoa
  7060 ;; This function uses a non-reentrant model
  7061 ;;
  7062                           
  7063                           	psect	text22
  7064  00213E                     __ptext22:
  7065                           	callstack 0
  7066  00213E                     ___fladd:
  7067                           	callstack 25
  7068  00213E  5004               	movf	(___fladd@b+3)^0,w,c
  7069  002140  0B80               	andlw	128
  7070  002142  6E0D               	movwf	___fladd@signs^0,c
  7071  002144  5004               	movf	(___fladd@b+3)^0,w,c
  7072  002146  2404               	addwf	(___fladd@b+3)^0,w,c
  7073  002148  6E0F               	movwf	___fladd@bexp^0,c
  7074  00214A  AE03               	btfss	(___fladd@b+2)^0,7,c
  7075  00214C  EFAA  F010         	goto	u3441
  7076  002150  EFAC  F010         	goto	u3440
  7077  002154                     u3441:
  7078  002154  EFAD  F010         	goto	l3282
  7079  002158                     u3440:
  7080  002158  800F               	bsf	___fladd@bexp^0,0,c
  7081  00215A                     l3282:
  7082  00215A  500F               	movf	___fladd@bexp^0,w,c
  7083  00215C  B4D8               	btfsc	status,2,c
  7084  00215E  EFB3  F010         	goto	u3451
  7085  002162  EFB5  F010         	goto	u3450
  7086  002166                     u3451:
  7087  002166  EFCA  F010         	goto	l3292
  7088  00216A                     u3450:
  7089  00216A  280F               	incf	___fladd@bexp^0,w,c
  7090  00216C  A4D8               	btfss	status,2,c
  7091  00216E  EFBB  F010         	goto	u3461
  7092  002172  EFBD  F010         	goto	u3460
  7093  002176                     u3461:
  7094  002176  EFC5  F010         	goto	l3288
  7095  00217A                     u3460:
  7096  00217A  0E00               	movlw	0
  7097  00217C  6E01               	movwf	___fladd@b^0,c
  7098  00217E  0E00               	movlw	0
  7099  002180  6E02               	movwf	(___fladd@b+1)^0,c
  7100  002182  0E00               	movlw	0
  7101  002184  6E03               	movwf	(___fladd@b+2)^0,c
  7102  002186  0E00               	movlw	0
  7103  002188  6E04               	movwf	(___fladd@b+3)^0,c
  7104  00218A                     l3288:
  7105  00218A  8E03               	bsf	(___fladd@b+2)^0,7,c
  7106  00218C  0E00               	movlw	0
  7107  00218E  6E04               	movwf	(___fladd@b+3)^0,c
  7108  002190  EFD2  F010         	goto	l3294
  7109  002194                     l3292:
  7110  002194  0E00               	movlw	0
  7111  002196  6E01               	movwf	___fladd@b^0,c
  7112  002198  0E00               	movlw	0
  7113  00219A  6E02               	movwf	(___fladd@b+1)^0,c
  7114  00219C  0E00               	movlw	0
  7115  00219E  6E03               	movwf	(___fladd@b+2)^0,c
  7116  0021A0  0E00               	movlw	0
  7117  0021A2  6E04               	movwf	(___fladd@b+3)^0,c
  7118  0021A4                     l3294:
  7119  0021A4  5008               	movf	(___fladd@a+3)^0,w,c
  7120  0021A6  0B80               	andlw	128
  7121  0021A8  6E0E               	movwf	___fladd@aexp^0,c
  7122  0021AA  500D               	movf	___fladd@signs^0,w,c
  7123  0021AC  180E               	xorwf	___fladd@aexp^0,w,c
  7124  0021AE  B4D8               	btfsc	status,2,c
  7125  0021B0  EFDC  F010         	goto	u3471
  7126  0021B4  EFDE  F010         	goto	u3470
  7127  0021B8                     u3471:
  7128  0021B8  EFDF  F010         	goto	l3300
  7129  0021BC                     u3470:
  7130  0021BC  8C0D               	bsf	___fladd@signs^0,6,c
  7131  0021BE                     l3300:
  7132  0021BE  5008               	movf	(___fladd@a+3)^0,w,c
  7133  0021C0  2408               	addwf	(___fladd@a+3)^0,w,c
  7134  0021C2  6E0E               	movwf	___fladd@aexp^0,c
  7135  0021C4  AE07               	btfss	(___fladd@a+2)^0,7,c
  7136  0021C6  EFE7  F010         	goto	u3481
  7137  0021CA  EFE9  F010         	goto	u3480
  7138  0021CE                     u3481:
  7139  0021CE  EFEA  F010         	goto	l3306
  7140  0021D2                     u3480:
  7141  0021D2  800E               	bsf	___fladd@aexp^0,0,c
  7142  0021D4                     l3306:
  7143  0021D4  500E               	movf	___fladd@aexp^0,w,c
  7144  0021D6  B4D8               	btfsc	status,2,c
  7145  0021D8  EFF0  F010         	goto	u3491
  7146  0021DC  EFF2  F010         	goto	u3490
  7147  0021E0                     u3491:
  7148  0021E0  EF07  F011         	goto	l3316
  7149  0021E4                     u3490:
  7150  0021E4  280E               	incf	___fladd@aexp^0,w,c
  7151  0021E6  A4D8               	btfss	status,2,c
  7152  0021E8  EFF8  F010         	goto	u3501
  7153  0021EC  EFFA  F010         	goto	u3500
  7154  0021F0                     u3501:
  7155  0021F0  EF02  F011         	goto	l3312
  7156  0021F4                     u3500:
  7157  0021F4  0E00               	movlw	0
  7158  0021F6  6E05               	movwf	___fladd@a^0,c
  7159  0021F8  0E00               	movlw	0
  7160  0021FA  6E06               	movwf	(___fladd@a+1)^0,c
  7161  0021FC  0E00               	movlw	0
  7162  0021FE  6E07               	movwf	(___fladd@a+2)^0,c
  7163  002200  0E00               	movlw	0
  7164  002202  6E08               	movwf	(___fladd@a+3)^0,c
  7165  002204                     l3312:
  7166  002204  8E07               	bsf	(___fladd@a+2)^0,7,c
  7167  002206  0E00               	movlw	0
  7168  002208  6E08               	movwf	(___fladd@a+3)^0,c
  7169  00220A  EF0F  F011         	goto	l3318
  7170  00220E                     l3316:
  7171  00220E  0E00               	movlw	0
  7172  002210  6E05               	movwf	___fladd@a^0,c
  7173  002212  0E00               	movlw	0
  7174  002214  6E06               	movwf	(___fladd@a+1)^0,c
  7175  002216  0E00               	movlw	0
  7176  002218  6E07               	movwf	(___fladd@a+2)^0,c
  7177  00221A  0E00               	movlw	0
  7178  00221C  6E08               	movwf	(___fladd@a+3)^0,c
  7179  00221E                     l3318:
  7180  00221E  500F               	movf	___fladd@bexp^0,w,c
  7181  002220  5C0E               	subwf	___fladd@aexp^0,w,c
  7182  002222  B0D8               	btfsc	status,0,c
  7183  002224  EF16  F011         	goto	u3511
  7184  002228  EF18  F011         	goto	u3510
  7185  00222C                     u3511:
  7186  00222C  EF3F  F011         	goto	l3354
  7187  002230                     u3510:
  7188  002230  AC0D               	btfss	___fladd@signs^0,6,c
  7189  002232  EF1D  F011         	goto	u3521
  7190  002236  EF1F  F011         	goto	u3520
  7191  00223A                     u3521:
  7192  00223A  EF21  F011         	goto	l3324
  7193  00223E                     u3520:
  7194  00223E  0E80               	movlw	128
  7195  002240  1A0D               	xorwf	___fladd@signs^0,f,c
  7196  002242                     l3324:
  7197  002242  C00F  F010         	movff	___fladd@bexp,___fladd@grs
  7198  002246  C00E  F00F         	movff	___fladd@aexp,___fladd@bexp
  7199  00224A  C010  F00E         	movff	___fladd@grs,___fladd@aexp
  7200  00224E  C001  F010         	movff	___fladd@b,___fladd@grs
  7201  002252  C005  F001         	movff	___fladd@a,___fladd@b
  7202  002256  C010  F005         	movff	___fladd@grs,___fladd@a
  7203  00225A  C002  F010         	movff	___fladd@b+1,___fladd@grs
  7204  00225E  C006  F002         	movff	___fladd@a+1,___fladd@b+1
  7205  002262  C010  F006         	movff	___fladd@grs,___fladd@a+1
  7206  002266  C003  F010         	movff	___fladd@b+2,___fladd@grs
  7207  00226A  C007  F003         	movff	___fladd@a+2,___fladd@b+2
  7208  00226E  C010  F007         	movff	___fladd@grs,___fladd@a+2
  7209  002272  C004  F010         	movff	___fladd@b+3,___fladd@grs
  7210  002276  C008  F004         	movff	___fladd@a+3,___fladd@b+3
  7211  00227A  C010  F008         	movff	___fladd@grs,___fladd@a+3
  7212  00227E                     l3354:
  7213  00227E  0E00               	movlw	0
  7214  002280  6E10               	movwf	___fladd@grs^0,c
  7215  002282  500F               	movf	___fladd@bexp^0,w,c
  7216  002284  C00E  F009         	movff	___fladd@aexp,??___fladd
  7217  002288  6A0A               	clrf	(??___fladd+1)^0,c
  7218  00228A  5E09               	subwf	??___fladd^0,f,c
  7219  00228C  0E00               	movlw	0
  7220  00228E  5A0A               	subwfb	(??___fladd+1)^0,f,c
  7221  002290  BE0A               	btfsc	(??___fladd+1)^0,7,c
  7222  002292  EF54  F011         	goto	u3531
  7223  002296  500A               	movf	(??___fladd+1)^0,w,c
  7224  002298  E109               	bnz	u3530
  7225  00229A  0E1A               	movlw	26
  7226  00229C  5C09               	subwf	??___fladd^0,w,c
  7227  00229E  A0D8               	btfss	status,0,c
  7228  0022A0  EF54  F011         	goto	u3531
  7229  0022A4  EF56  F011         	goto	u3530
  7230  0022A8                     u3531:
  7231  0022A8  EF8D  F011         	goto	l697
  7232  0022AC                     u3530:
  7233  0022AC  5001               	movf	___fladd@b^0,w,c
  7234  0022AE  1002               	iorwf	(___fladd@b+1)^0,w,c
  7235  0022B0  1003               	iorwf	(___fladd@b+2)^0,w,c
  7236  0022B2  1004               	iorwf	(___fladd@b+3)^0,w,c
  7237  0022B4  A4D8               	btfss	status,2,c
  7238  0022B6  EF5F  F011         	goto	u3541
  7239  0022BA  EF62  F011         	goto	u3540
  7240  0022BE                     u3541:
  7241  0022BE  0E01               	movlw	1
  7242  0022C0  EF63  F011         	goto	u3550
  7243  0022C4                     u3540:
  7244  0022C4  0E00               	movlw	0
  7245  0022C6                     u3550:
  7246  0022C6  6E10               	movwf	___fladd@grs^0,c
  7247  0022C8  0E00               	movlw	0
  7248  0022CA  6E01               	movwf	___fladd@b^0,c
  7249  0022CC  0E00               	movlw	0
  7250  0022CE  6E02               	movwf	(___fladd@b+1)^0,c
  7251  0022D0  0E00               	movlw	0
  7252  0022D2  6E03               	movwf	(___fladd@b+2)^0,c
  7253  0022D4  0E00               	movlw	0
  7254  0022D6  6E04               	movwf	(___fladd@b+3)^0,c
  7255  0022D8  C00E  F00F         	movff	___fladd@aexp,___fladd@bexp
  7256  0022DC  EF96  F011         	goto	l696
  7257  0022E0                     l698:
  7258  0022E0  A010               	btfss	___fladd@grs^0,0,c
  7259  0022E2  EF75  F011         	goto	u3561
  7260  0022E6  EF77  F011         	goto	u3560
  7261  0022EA                     u3561:
  7262  0022EA  EF7D  F011         	goto	l3366
  7263  0022EE                     u3560:
  7264  0022EE  90D8               	bcf	status,0,c
  7265  0022F0  3010               	rrcf	___fladd@grs^0,w,c
  7266  0022F2  0901               	iorlw	1
  7267  0022F4  6E10               	movwf	___fladd@grs^0,c
  7268  0022F6  EF7F  F011         	goto	l3368
  7269  0022FA                     l3366:
  7270  0022FA  90D8               	bcf	status,0,c
  7271  0022FC  3210               	rrcf	___fladd@grs^0,f,c
  7272  0022FE                     l3368:
  7273  0022FE  A001               	btfss	___fladd@b^0,0,c
  7274  002300  EF84  F011         	goto	u3571
  7275  002304  EF86  F011         	goto	u3570
  7276  002308                     u3571:
  7277  002308  EF87  F011         	goto	l3372
  7278  00230C                     u3570:
  7279  00230C  8E10               	bsf	___fladd@grs^0,7,c
  7280  00230E                     l3372:
  7281  00230E  3404               	rlcf	(___fladd@b+3)^0,w,c
  7282  002310  3204               	rrcf	(___fladd@b+3)^0,f,c
  7283  002312  3203               	rrcf	(___fladd@b+2)^0,f,c
  7284  002314  3202               	rrcf	(___fladd@b+1)^0,f,c
  7285  002316  3201               	rrcf	___fladd@b^0,f,c
  7286  002318  2A0F               	incf	___fladd@bexp^0,f,c
  7287  00231A                     l697:
  7288  00231A  500E               	movf	___fladd@aexp^0,w,c
  7289  00231C  5C0F               	subwf	___fladd@bexp^0,w,c
  7290  00231E  A0D8               	btfss	status,0,c
  7291  002320  EF94  F011         	goto	u3581
  7292  002324  EF96  F011         	goto	u3580
  7293  002328                     u3581:
  7294  002328  EF70  F011         	goto	l698
  7295  00232C                     u3580:
  7296  00232C                     l696:
  7297  00232C  BC0D               	btfsc	___fladd@signs^0,6,c
  7298  00232E  EF9B  F011         	goto	u3591
  7299  002332  EF9D  F011         	goto	u3590
  7300  002336                     u3591:
  7301  002336  EFDD  F011         	goto	l3400
  7302  00233A                     u3590:
  7303  00233A  500F               	movf	___fladd@bexp^0,w,c
  7304  00233C  A4D8               	btfss	status,2,c
  7305  00233E  EFA3  F011         	goto	u3601
  7306  002342  EFA5  F011         	goto	u3600
  7307  002346                     u3601:
  7308  002346  EFAF  F011         	goto	l3382
  7309  00234A                     u3600:
  7310  00234A  0E00               	movlw	0
  7311  00234C  6E01               	movwf	?___fladd^0,c
  7312  00234E  0E00               	movlw	0
  7313  002350  6E02               	movwf	(?___fladd+1)^0,c
  7314  002352  0E00               	movlw	0
  7315  002354  6E03               	movwf	(?___fladd+2)^0,c
  7316  002356  0E00               	movlw	0
  7317  002358  6E04               	movwf	(?___fladd+3)^0,c
  7318  00235A  EFFE  F012         	goto	l705
  7319  00235E                     l3382:
  7320  00235E  5005               	movf	___fladd@a^0,w,c
  7321  002360  2601               	addwf	___fladd@b^0,f,c
  7322  002362  5006               	movf	(___fladd@a+1)^0,w,c
  7323  002364  2202               	addwfc	(___fladd@b+1)^0,f,c
  7324  002366  5007               	movf	(___fladd@a+2)^0,w,c
  7325  002368  2203               	addwfc	(___fladd@b+2)^0,f,c
  7326  00236A  5008               	movf	(___fladd@a+3)^0,w,c
  7327  00236C  2204               	addwfc	(___fladd@b+3)^0,f,c
  7328  00236E  A004               	btfss	(___fladd@b+3)^0,0,c
  7329  002370  EFBC  F011         	goto	u3611
  7330  002374  EFBE  F011         	goto	u3610
  7331  002378                     u3611:
  7332  002378  EF6A  F012         	goto	l3436
  7333  00237C                     u3610:
  7334  00237C  A010               	btfss	___fladd@grs^0,0,c
  7335  00237E  EFC3  F011         	goto	u3621
  7336  002382  EFC5  F011         	goto	u3620
  7337  002386                     u3621:
  7338  002386  EFCB  F011         	goto	l3390
  7339  00238A                     u3620:
  7340  00238A  90D8               	bcf	status,0,c
  7341  00238C  3010               	rrcf	___fladd@grs^0,w,c
  7342  00238E  0901               	iorlw	1
  7343  002390  6E10               	movwf	___fladd@grs^0,c
  7344  002392  EFCD  F011         	goto	l3392
  7345  002396                     l3390:
  7346  002396  90D8               	bcf	status,0,c
  7347  002398  3210               	rrcf	___fladd@grs^0,f,c
  7348  00239A                     l3392:
  7349  00239A  A001               	btfss	___fladd@b^0,0,c
  7350  00239C  EFD2  F011         	goto	u3631
  7351  0023A0  EFD4  F011         	goto	u3630
  7352  0023A4                     u3631:
  7353  0023A4  EFD5  F011         	goto	l3396
  7354  0023A8                     u3630:
  7355  0023A8  8E10               	bsf	___fladd@grs^0,7,c
  7356  0023AA                     l3396:
  7357  0023AA  3404               	rlcf	(___fladd@b+3)^0,w,c
  7358  0023AC  3204               	rrcf	(___fladd@b+3)^0,f,c
  7359  0023AE  3203               	rrcf	(___fladd@b+2)^0,f,c
  7360  0023B0  3202               	rrcf	(___fladd@b+1)^0,f,c
  7361  0023B2  3201               	rrcf	___fladd@b^0,f,c
  7362  0023B4  2A0F               	incf	___fladd@bexp^0,f,c
  7363  0023B6  EF6A  F012         	goto	l3436
  7364  0023BA                     l3400:
  7365  0023BA  5005               	movf	___fladd@a^0,w,c
  7366  0023BC  5C01               	subwf	___fladd@b^0,w,c
  7367  0023BE  5006               	movf	(___fladd@a+1)^0,w,c
  7368  0023C0  5802               	subwfb	(___fladd@b+1)^0,w,c
  7369  0023C2  5007               	movf	(___fladd@a+2)^0,w,c
  7370  0023C4  5803               	subwfb	(___fladd@b+2)^0,w,c
  7371  0023C6  5004               	movf	(___fladd@b+3)^0,w,c
  7372  0023C8  0A80               	xorlw	128
  7373  0023CA  6E09               	movwf	??___fladd^0,c
  7374  0023CC  5008               	movf	(___fladd@a+3)^0,w,c
  7375  0023CE  0A80               	xorlw	128
  7376  0023D0  5809               	subwfb	??___fladd^0,w,c
  7377  0023D2  B0D8               	btfsc	status,0,c
  7378  0023D4  EFEE  F011         	goto	u3641
  7379  0023D8  EFF0  F011         	goto	u3640
  7380  0023DC                     u3641:
  7381  0023DC  EF1B  F012         	goto	l3410
  7382  0023E0                     u3640:
  7383  0023E0  5001               	movf	___fladd@b^0,w,c
  7384  0023E2  5C05               	subwf	___fladd@a^0,w,c
  7385  0023E4  6E09               	movwf	??___fladd^0,c
  7386  0023E6  5002               	movf	(___fladd@b+1)^0,w,c
  7387  0023E8  5806               	subwfb	(___fladd@a+1)^0,w,c
  7388  0023EA  6E0A               	movwf	(??___fladd+1)^0,c
  7389  0023EC  5003               	movf	(___fladd@b+2)^0,w,c
  7390  0023EE  5807               	subwfb	(___fladd@a+2)^0,w,c
  7391  0023F0  6E0B               	movwf	(??___fladd+2)^0,c
  7392  0023F2  5004               	movf	(___fladd@b+3)^0,w,c
  7393  0023F4  5808               	subwfb	(___fladd@a+3)^0,w,c
  7394  0023F6  6E0C               	movwf	(??___fladd+3)^0,c
  7395  0023F8  0EFF               	movlw	255
  7396  0023FA  2409               	addwf	??___fladd^0,w,c
  7397  0023FC  6E01               	movwf	___fladd@b^0,c
  7398  0023FE  0EFF               	movlw	255
  7399  002400  200A               	addwfc	(??___fladd+1)^0,w,c
  7400  002402  6E02               	movwf	(___fladd@b+1)^0,c
  7401  002404  0EFF               	movlw	255
  7402  002406  200B               	addwfc	(??___fladd+2)^0,w,c
  7403  002408  6E03               	movwf	(___fladd@b+2)^0,c
  7404  00240A  0EFF               	movlw	255
  7405  00240C  200C               	addwfc	(??___fladd+3)^0,w,c
  7406  00240E  6E04               	movwf	(___fladd@b+3)^0,c
  7407  002410  0E80               	movlw	128
  7408  002412  1A0D               	xorwf	___fladd@signs^0,f,c
  7409  002414  6C10               	negf	___fladd@grs^0,c
  7410  002416  5010               	movf	___fladd@grs^0,w,c
  7411  002418  A4D8               	btfss	status,2,c
  7412  00241A  EF11  F012         	goto	u3651
  7413  00241E  EF13  F012         	goto	u3650
  7414  002422                     u3651:
  7415  002422  EF23  F012         	goto	l713
  7416  002426                     u3650:
  7417  002426  0E01               	movlw	1
  7418  002428  2601               	addwf	___fladd@b^0,f,c
  7419  00242A  0E00               	movlw	0
  7420  00242C  2202               	addwfc	(___fladd@b+1)^0,f,c
  7421  00242E  2203               	addwfc	(___fladd@b+2)^0,f,c
  7422  002430  2204               	addwfc	(___fladd@b+3)^0,f,c
  7423  002432  EF23  F012         	goto	l713
  7424  002436                     l3410:
  7425  002436  5005               	movf	___fladd@a^0,w,c
  7426  002438  5E01               	subwf	___fladd@b^0,f,c
  7427  00243A  5006               	movf	(___fladd@a+1)^0,w,c
  7428  00243C  5A02               	subwfb	(___fladd@b+1)^0,f,c
  7429  00243E  5007               	movf	(___fladd@a+2)^0,w,c
  7430  002440  5A03               	subwfb	(___fladd@b+2)^0,f,c
  7431  002442  5008               	movf	(___fladd@a+3)^0,w,c
  7432  002444  5A04               	subwfb	(___fladd@b+3)^0,f,c
  7433  002446                     l713:
  7434  002446  5001               	movf	___fladd@b^0,w,c
  7435  002448  1002               	iorwf	(___fladd@b+1)^0,w,c
  7436  00244A  1003               	iorwf	(___fladd@b+2)^0,w,c
  7437  00244C  1004               	iorwf	(___fladd@b+3)^0,w,c
  7438  00244E  A4D8               	btfss	status,2,c
  7439  002450  EF2C  F012         	goto	u3661
  7440  002454  EF2E  F012         	goto	u3660
  7441  002458                     u3661:
  7442  002458  EF63  F012         	goto	l3434
  7443  00245C                     u3660:
  7444  00245C  5010               	movf	___fladd@grs^0,w,c
  7445  00245E  A4D8               	btfss	status,2,c
  7446  002460  EF34  F012         	goto	u3671
  7447  002464  EF36  F012         	goto	u3670
  7448  002468                     u3671:
  7449  002468  EF63  F012         	goto	l3434
  7450  00246C                     u3670:
  7451  00246C  0E00               	movlw	0
  7452  00246E  6E01               	movwf	?___fladd^0,c
  7453  002470  0E00               	movlw	0
  7454  002472  6E02               	movwf	(?___fladd+1)^0,c
  7455  002474  0E00               	movlw	0
  7456  002476  6E03               	movwf	(?___fladd+2)^0,c
  7457  002478  0E00               	movlw	0
  7458  00247A  6E04               	movwf	(?___fladd+3)^0,c
  7459  00247C  EFFE  F012         	goto	l705
  7460  002480                     l3418:
  7461  002480  90D8               	bcf	status,0,c
  7462  002482  3601               	rlcf	___fladd@b^0,f,c
  7463  002484  3602               	rlcf	(___fladd@b+1)^0,f,c
  7464  002486  3603               	rlcf	(___fladd@b+2)^0,f,c
  7465  002488  3604               	rlcf	(___fladd@b+3)^0,f,c
  7466  00248A  AE10               	btfss	___fladd@grs^0,7,c
  7467  00248C  EF4A  F012         	goto	u3681
  7468  002490  EF4C  F012         	goto	u3680
  7469  002494                     u3681:
  7470  002494  EF4D  F012         	goto	l3424
  7471  002498                     u3680:
  7472  002498  8001               	bsf	___fladd@b^0,0,c
  7473  00249A                     l3424:
  7474  00249A  A010               	btfss	___fladd@grs^0,0,c
  7475  00249C  EF52  F012         	goto	u3691
  7476  0024A0  EF54  F012         	goto	u3690
  7477  0024A4                     u3691:
  7478  0024A4  EF58  F012         	goto	l3428
  7479  0024A8                     u3690:
  7480  0024A8  80D8               	bsf	status,0,c
  7481  0024AA  3610               	rlcf	___fladd@grs^0,f,c
  7482  0024AC  EF5A  F012         	goto	l3430
  7483  0024B0                     l3428:
  7484  0024B0  90D8               	bcf	status,0,c
  7485  0024B2  3610               	rlcf	___fladd@grs^0,f,c
  7486  0024B4                     l3430:
  7487  0024B4  500F               	movf	___fladd@bexp^0,w,c
  7488  0024B6  B4D8               	btfsc	status,2,c
  7489  0024B8  EF60  F012         	goto	u3701
  7490  0024BC  EF62  F012         	goto	u3700
  7491  0024C0                     u3701:
  7492  0024C0  EF63  F012         	goto	l3434
  7493  0024C4                     u3700:
  7494  0024C4  060F               	decf	___fladd@bexp^0,f,c
  7495  0024C6                     l3434:
  7496  0024C6  AE03               	btfss	(___fladd@b+2)^0,7,c
  7497  0024C8  EF68  F012         	goto	u3711
  7498  0024CC  EF6A  F012         	goto	u3710
  7499  0024D0                     u3711:
  7500  0024D0  EF40  F012         	goto	l3418
  7501  0024D4                     u3710:
  7502  0024D4                     l3436:
  7503  0024D4  0E00               	movlw	0
  7504  0024D6  6E0E               	movwf	___fladd@aexp^0,c
  7505  0024D8  AE10               	btfss	___fladd@grs^0,7,c
  7506  0024DA  EF71  F012         	goto	u3721
  7507  0024DE  EF73  F012         	goto	u3720
  7508  0024E2                     u3721:
  7509  0024E2  EF8B  F012         	goto	l722
  7510  0024E6                     u3720:
  7511  0024E6  C010  F009         	movff	___fladd@grs,??___fladd
  7512  0024EA  0E7F               	movlw	127
  7513  0024EC  1609               	andwf	??___fladd^0,f,c
  7514  0024EE  B4D8               	btfsc	status,2,c
  7515  0024F0  EF7C  F012         	goto	u3731
  7516  0024F4  EF7E  F012         	goto	u3730
  7517  0024F8                     u3731:
  7518  0024F8  EF82  F012         	goto	l723
  7519  0024FC                     u3730:
  7520  0024FC                     l3442:
  7521  0024FC  0E01               	movlw	1
  7522  0024FE  6E0E               	movwf	___fladd@aexp^0,c
  7523  002500  EF8B  F012         	goto	l722
  7524  002504                     l723:
  7525  002504  A001               	btfss	___fladd@b^0,0,c
  7526  002506  EF87  F012         	goto	u3741
  7527  00250A  EF89  F012         	goto	u3740
  7528  00250E                     u3741:
  7529  00250E  EF8B  F012         	goto	l722
  7530  002512                     u3740:
  7531  002512  EF7E  F012         	goto	l3442
  7532  002516                     l722:
  7533  002516  500E               	movf	___fladd@aexp^0,w,c
  7534  002518  B4D8               	btfsc	status,2,c
  7535  00251A  EF91  F012         	goto	u3751
  7536  00251E  EF93  F012         	goto	u3750
  7537  002522                     u3751:
  7538  002522  EFBE  F012         	goto	l3454
  7539  002526                     u3750:
  7540  002526  0E01               	movlw	1
  7541  002528  2601               	addwf	___fladd@b^0,f,c
  7542  00252A  0E00               	movlw	0
  7543  00252C  2202               	addwfc	(___fladd@b+1)^0,f,c
  7544  00252E  2203               	addwfc	(___fladd@b+2)^0,f,c
  7545  002530  2204               	addwfc	(___fladd@b+3)^0,f,c
  7546  002532  A004               	btfss	(___fladd@b+3)^0,0,c
  7547  002534  EF9E  F012         	goto	u3761
  7548  002538  EFA0  F012         	goto	u3760
  7549  00253C                     u3761:
  7550  00253C  EFBE  F012         	goto	l3454
  7551  002540                     u3760:
  7552  002540  C001  F009         	movff	___fladd@b,??___fladd
  7553  002544  C002  F00A         	movff	___fladd@b+1,??___fladd+1
  7554  002548  C003  F00B         	movff	___fladd@b+2,??___fladd+2
  7555  00254C  C004  F00C         	movff	___fladd@b+3,??___fladd+3
  7556  002550  340C               	rlcf	(??___fladd+3)^0,w,c
  7557  002552  320C               	rrcf	(??___fladd+3)^0,f,c
  7558  002554  320B               	rrcf	(??___fladd+2)^0,f,c
  7559  002556  320A               	rrcf	(??___fladd+1)^0,f,c
  7560  002558  3209               	rrcf	??___fladd^0,f,c
  7561  00255A  C009  F001         	movff	??___fladd,___fladd@b
  7562  00255E  C00A  F002         	movff	??___fladd+1,___fladd@b+1
  7563  002562  C00B  F003         	movff	??___fladd+2,___fladd@b+2
  7564  002566  C00C  F004         	movff	??___fladd+3,___fladd@b+3
  7565  00256A  280F               	incf	___fladd@bexp^0,w,c
  7566  00256C  B4D8               	btfsc	status,2,c
  7567  00256E  EFBB  F012         	goto	u3771
  7568  002572  EFBD  F012         	goto	u3770
  7569  002576                     u3771:
  7570  002576  EFBE  F012         	goto	l3454
  7571  00257A                     u3770:
  7572  00257A  2A0F               	incf	___fladd@bexp^0,f,c
  7573  00257C                     l3454:
  7574  00257C  280F               	incf	___fladd@bexp^0,w,c
  7575  00257E  B4D8               	btfsc	status,2,c
  7576  002580  EFC4  F012         	goto	u3781
  7577  002584  EFC6  F012         	goto	u3780
  7578  002588                     u3781:
  7579  002588  EFCE  F012         	goto	l3458
  7580  00258C                     u3780:
  7581  00258C  500F               	movf	___fladd@bexp^0,w,c
  7582  00258E  A4D8               	btfss	status,2,c
  7583  002590  EFCC  F012         	goto	u3791
  7584  002594  EFCE  F012         	goto	u3790
  7585  002598                     u3791:
  7586  002598  EFE0  F012         	goto	l3462
  7587  00259C                     u3790:
  7588  00259C                     l3458:
  7589  00259C  0E00               	movlw	0
  7590  00259E  6E01               	movwf	___fladd@b^0,c
  7591  0025A0  0E00               	movlw	0
  7592  0025A2  6E02               	movwf	(___fladd@b+1)^0,c
  7593  0025A4  0E00               	movlw	0
  7594  0025A6  6E03               	movwf	(___fladd@b+2)^0,c
  7595  0025A8  0E00               	movlw	0
  7596  0025AA  6E04               	movwf	(___fladd@b+3)^0,c
  7597  0025AC  500F               	movf	___fladd@bexp^0,w,c
  7598  0025AE  A4D8               	btfss	status,2,c
  7599  0025B0  EFDC  F012         	goto	u3801
  7600  0025B4  EFDE  F012         	goto	u3800
  7601  0025B8                     u3801:
  7602  0025B8  EFE0  F012         	goto	l3462
  7603  0025BC                     u3800:
  7604  0025BC  0E00               	movlw	0
  7605  0025BE  6E0D               	movwf	___fladd@signs^0,c
  7606  0025C0                     l3462:
  7607  0025C0  A00F               	btfss	___fladd@bexp^0,0,c
  7608  0025C2  EFE5  F012         	goto	u3811
  7609  0025C6  EFE7  F012         	goto	u3810
  7610  0025CA                     u3811:
  7611  0025CA  EFEA  F012         	goto	l3466
  7612  0025CE                     u3810:
  7613  0025CE  8E03               	bsf	(___fladd@b+2)^0,7,c
  7614  0025D0  EFEB  F012         	goto	l3468
  7615  0025D4                     l3466:
  7616  0025D4  9E03               	bcf	(___fladd@b+2)^0,7,c
  7617  0025D6                     l3468:
  7618  0025D6  90D8               	bcf	status,0,c
  7619  0025D8  300F               	rrcf	___fladd@bexp^0,w,c
  7620  0025DA  6E04               	movwf	(___fladd@b+3)^0,c
  7621  0025DC  AE0D               	btfss	___fladd@signs^0,7,c
  7622  0025DE  EFF3  F012         	goto	u3821
  7623  0025E2  EFF5  F012         	goto	u3820
  7624  0025E6                     u3821:
  7625  0025E6  EFF6  F012         	goto	l3474
  7626  0025EA                     u3820:
  7627  0025EA  8E04               	bsf	(___fladd@b+3)^0,7,c
  7628  0025EC                     l3474:
  7629  0025EC  C001  F001         	movff	___fladd@b,?___fladd
  7630  0025F0  C002  F002         	movff	___fladd@b+1,?___fladd+1
  7631  0025F4  C003  F003         	movff	___fladd@b+2,?___fladd+2
  7632  0025F8  C004  F004         	movff	___fladd@b+3,?___fladd+3
  7633  0025FC                     l705:
  7634  0025FC  0012               	return		;funcret
  7635  0025FE                     __end_of___fladd:
  7636                           	callstack 0
  7637                           
  7638 ;; *************** function ___flneg *****************
  7639 ;; Defined at:
  7640 ;;		line 15 in file "C:\Program Files\Microchip\xc8\v2.32\pic\sources\c99\common\flneg.c"
  7641 ;; Parameters:    Size  Location     Type
  7642 ;;  f1              4    0[COMRAM] unsigned char 
  7643 ;; Auto vars:     Size  Location     Type
  7644 ;;		None
  7645 ;; Return value:  Size  Location     Type
  7646 ;;                  4    0[COMRAM] unsigned char 
  7647 ;; Registers used:
  7648 ;;		wreg, status,2, status,0
  7649 ;; Tracked objects:
  7650 ;;		On entry : 0/0
  7651 ;;		On exit  : 0/0
  7652 ;;		Unchanged: 0/0
  7653 ;; Data sizes:     COMRAM   BANK0   BANK1   BANK2   BANK3   BANK4   BANK5
  7654 ;;      Params:         4       0       0       0       0       0       0
  7655 ;;      Locals:         0       0       0       0       0       0       0
  7656 ;;      Temps:          0       0       0       0       0       0       0
  7657 ;;      Totals:         4       0       0       0       0       0       0
  7658 ;;Total ram usage:        4 bytes
  7659 ;; Hardware stack levels used: 1
  7660 ;; This function calls:
  7661 ;;		Nothing
  7662 ;; This function is called by:
  7663 ;;		_efgtoa
  7664 ;; This function uses a non-reentrant model
  7665 ;;
  7666                           
  7667                           	psect	text23
  7668  00481C                     __ptext23:
  7669                           	callstack 0
  7670  00481C                     ___flneg:
  7671                           	callstack 26
  7672  00481C  5001               	movf	___flneg@f1^0,w,c
  7673  00481E  1002               	iorwf	(___flneg@f1+1)^0,w,c
  7674  004820  1003               	iorwf	(___flneg@f1+2)^0,w,c
  7675  004822  1004               	iorwf	(___flneg@f1+3)^0,w,c
  7676  004824  B4D8               	btfsc	status,2,c
  7677  004826  EF17  F024         	goto	u4491
  7678  00482A  EF19  F024         	goto	u4490
  7679  00482E                     u4491:
  7680  00482E  EF21  F024         	goto	l3902
  7681  004832                     u4490:
  7682  004832  0E00               	movlw	0
  7683  004834  1A01               	xorwf	___flneg@f1^0,f,c
  7684  004836  0E00               	movlw	0
  7685  004838  1A02               	xorwf	(___flneg@f1+1)^0,f,c
  7686  00483A  0E00               	movlw	0
  7687  00483C  1A03               	xorwf	(___flneg@f1+2)^0,f,c
  7688  00483E  0E80               	movlw	128
  7689  004840  1A04               	xorwf	(___flneg@f1+3)^0,f,c
  7690  004842                     l3902:
  7691  004842  C001  F001         	movff	___flneg@f1,?___flneg
  7692  004846  C002  F002         	movff	___flneg@f1+1,?___flneg+1
  7693  00484A  C003  F003         	movff	___flneg@f1+2,?___flneg+2
  7694  00484E  C004  F004         	movff	___flneg@f1+3,?___flneg+3
  7695  004852  0012               	return		;funcret
  7696  004854                     __end_of___flneg:
  7697                           	callstack 0
  7698                           
  7699 ;; *************** function ___flmul *****************
  7700 ;; Defined at:
  7701 ;;		line 8 in file "C:\Program Files\Microchip\xc8\v2.32\pic\sources\c99\common\sprcmul.c"
  7702 ;; Parameters:    Size  Location     Type
  7703 ;;  b               4    0[COMRAM] unsigned char 
  7704 ;;  a               4    4[COMRAM] unsigned char 
  7705 ;; Auto vars:     Size  Location     Type
  7706 ;;  prod            4   19[COMRAM] struct .
  7707 ;;  grs             4   13[COMRAM] unsigned long 
  7708 ;;  temp            2   23[COMRAM] struct .
  7709 ;;  bexp            1   18[COMRAM] unsigned char 
  7710 ;;  aexp            1   17[COMRAM] unsigned char 
  7711 ;;  sign            1   12[COMRAM] unsigned char 
  7712 ;; Return value:  Size  Location     Type
  7713 ;;                  4    0[COMRAM] unsigned char 
  7714 ;; Registers used:
  7715 ;;		wreg, status,2, status,0, prodl, prodh
  7716 ;; Tracked objects:
  7717 ;;		On entry : 0/0
  7718 ;;		On exit  : 0/0
  7719 ;;		Unchanged: 0/0
  7720 ;; Data sizes:     COMRAM   BANK0   BANK1   BANK2   BANK3   BANK4   BANK5
  7721 ;;      Params:         8       0       0       0       0       0       0
  7722 ;;      Locals:        13       0       0       0       0       0       0
  7723 ;;      Temps:          4       0       0       0       0       0       0
  7724 ;;      Totals:        25       0       0       0       0       0       0
  7725 ;;Total ram usage:       25 bytes
  7726 ;; Hardware stack levels used: 1
  7727 ;; This function calls:
  7728 ;;		Nothing
  7729 ;; This function is called by:
  7730 ;;		_main
  7731 ;;		_efgtoa
  7732 ;; This function uses a non-reentrant model
  7733 ;;
  7734                           
  7735                           	psect	text24
  7736  002A4E                     __ptext24:
  7737                           	callstack 0
  7738  002A4E                     ___flmul:
  7739                           	callstack 26
  7740  002A4E  5004               	movf	(___flmul@b+3)^0,w,c
  7741  002A50  0B80               	andlw	128
  7742  002A52  6E0D               	movwf	___flmul@sign^0,c
  7743  002A54  5004               	movf	(___flmul@b+3)^0,w,c
  7744  002A56  2404               	addwf	(___flmul@b+3)^0,w,c
  7745  002A58  6E13               	movwf	___flmul@bexp^0,c
  7746  002A5A  AE03               	btfss	(___flmul@b+2)^0,7,c
  7747  002A5C  EF32  F015         	goto	u4101
  7748  002A60  EF34  F015         	goto	u4100
  7749  002A64                     u4101:
  7750  002A64  EF35  F015         	goto	l3650
  7751  002A68                     u4100:
  7752  002A68  8013               	bsf	___flmul@bexp^0,0,c
  7753  002A6A                     l3650:
  7754  002A6A  5013               	movf	___flmul@bexp^0,w,c
  7755  002A6C  B4D8               	btfsc	status,2,c
  7756  002A6E  EF3B  F015         	goto	u4111
  7757  002A72  EF3D  F015         	goto	u4110
  7758  002A76                     u4111:
  7759  002A76  EF50  F015         	goto	l3658
  7760  002A7A                     u4110:
  7761  002A7A  2813               	incf	___flmul@bexp^0,w,c
  7762  002A7C  A4D8               	btfss	status,2,c
  7763  002A7E  EF43  F015         	goto	u4121
  7764  002A82  EF45  F015         	goto	u4120
  7765  002A86                     u4121:
  7766  002A86  EF4D  F015         	goto	l3656
  7767  002A8A                     u4120:
  7768  002A8A  0E00               	movlw	0
  7769  002A8C  6E01               	movwf	___flmul@b^0,c
  7770  002A8E  0E00               	movlw	0
  7771  002A90  6E02               	movwf	(___flmul@b+1)^0,c
  7772  002A92  0E00               	movlw	0
  7773  002A94  6E03               	movwf	(___flmul@b+2)^0,c
  7774  002A96  0E00               	movlw	0
  7775  002A98  6E04               	movwf	(___flmul@b+3)^0,c
  7776  002A9A                     l3656:
  7777  002A9A  8E03               	bsf	(___flmul@b+2)^0,7,c
  7778  002A9C  EF58  F015         	goto	l3660
  7779  002AA0                     l3658:
  7780  002AA0  0E00               	movlw	0
  7781  002AA2  6E01               	movwf	___flmul@b^0,c
  7782  002AA4  0E00               	movlw	0
  7783  002AA6  6E02               	movwf	(___flmul@b+1)^0,c
  7784  002AA8  0E00               	movlw	0
  7785  002AAA  6E03               	movwf	(___flmul@b+2)^0,c
  7786  002AAC  0E00               	movlw	0
  7787  002AAE  6E04               	movwf	(___flmul@b+3)^0,c
  7788  002AB0                     l3660:
  7789  002AB0  5008               	movf	(___flmul@a+3)^0,w,c
  7790  002AB2  0B80               	andlw	128
  7791  002AB4  1A0D               	xorwf	___flmul@sign^0,f,c
  7792  002AB6  5008               	movf	(___flmul@a+3)^0,w,c
  7793  002AB8  2408               	addwf	(___flmul@a+3)^0,w,c
  7794  002ABA  6E12               	movwf	___flmul@aexp^0,c
  7795  002ABC  AE07               	btfss	(___flmul@a+2)^0,7,c
  7796  002ABE  EF63  F015         	goto	u4131
  7797  002AC2  EF65  F015         	goto	u4130
  7798  002AC6                     u4131:
  7799  002AC6  EF66  F015         	goto	l3668
  7800  002ACA                     u4130:
  7801  002ACA  8012               	bsf	___flmul@aexp^0,0,c
  7802  002ACC                     l3668:
  7803  002ACC  5012               	movf	___flmul@aexp^0,w,c
  7804  002ACE  B4D8               	btfsc	status,2,c
  7805  002AD0  EF6C  F015         	goto	u4141
  7806  002AD4  EF6E  F015         	goto	u4140
  7807  002AD8                     u4141:
  7808  002AD8  EF81  F015         	goto	l3676
  7809  002ADC                     u4140:
  7810  002ADC  2812               	incf	___flmul@aexp^0,w,c
  7811  002ADE  A4D8               	btfss	status,2,c
  7812  002AE0  EF74  F015         	goto	u4151
  7813  002AE4  EF76  F015         	goto	u4150
  7814  002AE8                     u4151:
  7815  002AE8  EF7E  F015         	goto	l3674
  7816  002AEC                     u4150:
  7817  002AEC  0E00               	movlw	0
  7818  002AEE  6E05               	movwf	___flmul@a^0,c
  7819  002AF0  0E00               	movlw	0
  7820  002AF2  6E06               	movwf	(___flmul@a+1)^0,c
  7821  002AF4  0E00               	movlw	0
  7822  002AF6  6E07               	movwf	(___flmul@a+2)^0,c
  7823  002AF8  0E00               	movlw	0
  7824  002AFA  6E08               	movwf	(___flmul@a+3)^0,c
  7825  002AFC                     l3674:
  7826  002AFC  8E07               	bsf	(___flmul@a+2)^0,7,c
  7827  002AFE  EF89  F015         	goto	l782
  7828  002B02                     l3676:
  7829  002B02  0E00               	movlw	0
  7830  002B04  6E05               	movwf	___flmul@a^0,c
  7831  002B06  0E00               	movlw	0
  7832  002B08  6E06               	movwf	(___flmul@a+1)^0,c
  7833  002B0A  0E00               	movlw	0
  7834  002B0C  6E07               	movwf	(___flmul@a+2)^0,c
  7835  002B0E  0E00               	movlw	0
  7836  002B10  6E08               	movwf	(___flmul@a+3)^0,c
  7837  002B12                     l782:
  7838  002B12  5012               	movf	___flmul@aexp^0,w,c
  7839  002B14  B4D8               	btfsc	status,2,c
  7840  002B16  EF8F  F015         	goto	u4161
  7841  002B1A  EF91  F015         	goto	u4160
  7842  002B1E                     u4161:
  7843  002B1E  EF99  F015         	goto	l3680
  7844  002B22                     u4160:
  7845  002B22  5013               	movf	___flmul@bexp^0,w,c
  7846  002B24  A4D8               	btfss	status,2,c
  7847  002B26  EF97  F015         	goto	u4171
  7848  002B2A  EF99  F015         	goto	u4170
  7849  002B2E                     u4171:
  7850  002B2E  EFA3  F015         	goto	l3684
  7851  002B32                     u4170:
  7852  002B32                     l3680:
  7853  002B32  0E00               	movlw	0
  7854  002B34  6E01               	movwf	?___flmul^0,c
  7855  002B36  0E00               	movlw	0
  7856  002B38  6E02               	movwf	(?___flmul+1)^0,c
  7857  002B3A  0E00               	movlw	0
  7858  002B3C  6E03               	movwf	(?___flmul+2)^0,c
  7859  002B3E  0E00               	movlw	0
  7860  002B40  6E04               	movwf	(?___flmul+3)^0,c
  7861  002B42  EF3B  F017         	goto	l786
  7862  002B46                     l3684:
  7863  002B46  5007               	movf	(___flmul@a+2)^0,w,c
  7864  002B48  0201               	mulwf	___flmul@b^0,c
  7865  002B4A  CFF3 F018          	movff	prodl,___flmul@temp
  7866  002B4E  CFF4 F019          	movff	prodh,___flmul@temp+1
  7867  002B52  5018               	movf	___flmul@temp^0,w,c
  7868  002B54  6E0E               	movwf	___flmul@grs^0,c
  7869  002B56  6A0F               	clrf	(___flmul@grs+1)^0,c
  7870  002B58  6A10               	clrf	(___flmul@grs+2)^0,c
  7871  002B5A  6A11               	clrf	(___flmul@grs+3)^0,c
  7872  002B5C  5019               	movf	(___flmul@temp+1)^0,w,c
  7873  002B5E  6E14               	movwf	___flmul@prod^0,c
  7874  002B60  6A15               	clrf	(___flmul@prod+1)^0,c
  7875  002B62  6A16               	clrf	(___flmul@prod+2)^0,c
  7876  002B64  6A17               	clrf	(___flmul@prod+3)^0,c
  7877  002B66  5006               	movf	(___flmul@a+1)^0,w,c
  7878  002B68  0202               	mulwf	(___flmul@b+1)^0,c
  7879  002B6A  CFF3 F018          	movff	prodl,___flmul@temp
  7880  002B6E  CFF4 F019          	movff	prodh,___flmul@temp+1
  7881  002B72  5018               	movf	___flmul@temp^0,w,c
  7882  002B74  260E               	addwf	___flmul@grs^0,f,c
  7883  002B76  0E00               	movlw	0
  7884  002B78  220F               	addwfc	(___flmul@grs+1)^0,f,c
  7885  002B7A  2210               	addwfc	(___flmul@grs+2)^0,f,c
  7886  002B7C  2211               	addwfc	(___flmul@grs+3)^0,f,c
  7887  002B7E  5019               	movf	(___flmul@temp+1)^0,w,c
  7888  002B80  2614               	addwf	___flmul@prod^0,f,c
  7889  002B82  0E00               	movlw	0
  7890  002B84  2215               	addwfc	(___flmul@prod+1)^0,f,c
  7891  002B86  2216               	addwfc	(___flmul@prod+2)^0,f,c
  7892  002B88  2217               	addwfc	(___flmul@prod+3)^0,f,c
  7893  002B8A  5005               	movf	___flmul@a^0,w,c
  7894  002B8C  0203               	mulwf	(___flmul@b+2)^0,c
  7895  002B8E  CFF3 F018          	movff	prodl,___flmul@temp
  7896  002B92  CFF4 F019          	movff	prodh,___flmul@temp+1
  7897  002B96  5018               	movf	___flmul@temp^0,w,c
  7898  002B98  260E               	addwf	___flmul@grs^0,f,c
  7899  002B9A  0E00               	movlw	0
  7900  002B9C  220F               	addwfc	(___flmul@grs+1)^0,f,c
  7901  002B9E  2210               	addwfc	(___flmul@grs+2)^0,f,c
  7902  002BA0  2211               	addwfc	(___flmul@grs+3)^0,f,c
  7903  002BA2  5019               	movf	(___flmul@temp+1)^0,w,c
  7904  002BA4  2614               	addwf	___flmul@prod^0,f,c
  7905  002BA6  0E00               	movlw	0
  7906  002BA8  2215               	addwfc	(___flmul@prod+1)^0,f,c
  7907  002BAA  2216               	addwfc	(___flmul@prod+2)^0,f,c
  7908  002BAC  2217               	addwfc	(___flmul@prod+3)^0,f,c
  7909  002BAE  C010  F011         	movff	___flmul@grs+2,___flmul@grs+3
  7910  002BB2  C00F  F010         	movff	___flmul@grs+1,___flmul@grs+2
  7911  002BB6  C00E  F00F         	movff	___flmul@grs,___flmul@grs+1
  7912  002BBA  6A0E               	clrf	___flmul@grs^0,c
  7913  002BBC  5005               	movf	___flmul@a^0,w,c
  7914  002BBE  0202               	mulwf	(___flmul@b+1)^0,c
  7915  002BC0  CFF3 F018          	movff	prodl,___flmul@temp
  7916  002BC4  CFF4 F019          	movff	prodh,___flmul@temp+1
  7917  002BC8  5018               	movf	___flmul@temp^0,w,c
  7918  002BCA  260E               	addwf	___flmul@grs^0,f,c
  7919  002BCC  5019               	movf	(___flmul@temp+1)^0,w,c
  7920  002BCE  220F               	addwfc	(___flmul@grs+1)^0,f,c
  7921  002BD0  0E00               	movlw	0
  7922  002BD2  2210               	addwfc	(___flmul@grs+2)^0,f,c
  7923  002BD4  0E00               	movlw	0
  7924  002BD6  2211               	addwfc	(___flmul@grs+3)^0,f,c
  7925  002BD8  5006               	movf	(___flmul@a+1)^0,w,c
  7926  002BDA  0201               	mulwf	___flmul@b^0,c
  7927  002BDC  CFF3 F018          	movff	prodl,___flmul@temp
  7928  002BE0  CFF4 F019          	movff	prodh,___flmul@temp+1
  7929  002BE4  5018               	movf	___flmul@temp^0,w,c
  7930  002BE6  260E               	addwf	___flmul@grs^0,f,c
  7931  002BE8  5019               	movf	(___flmul@temp+1)^0,w,c
  7932  002BEA  220F               	addwfc	(___flmul@grs+1)^0,f,c
  7933  002BEC  0E00               	movlw	0
  7934  002BEE  2210               	addwfc	(___flmul@grs+2)^0,f,c
  7935  002BF0  0E00               	movlw	0
  7936  002BF2  2211               	addwfc	(___flmul@grs+3)^0,f,c
  7937  002BF4  C010  F011         	movff	___flmul@grs+2,___flmul@grs+3
  7938  002BF8  C00F  F010         	movff	___flmul@grs+1,___flmul@grs+2
  7939  002BFC  C00E  F00F         	movff	___flmul@grs,___flmul@grs+1
  7940  002C00  6A0E               	clrf	___flmul@grs^0,c
  7941  002C02  5005               	movf	___flmul@a^0,w,c
  7942  002C04  0201               	mulwf	___flmul@b^0,c
  7943  002C06  CFF3 F018          	movff	prodl,___flmul@temp
  7944  002C0A  CFF4 F019          	movff	prodh,___flmul@temp+1
  7945  002C0E  5018               	movf	___flmul@temp^0,w,c
  7946  002C10  260E               	addwf	___flmul@grs^0,f,c
  7947  002C12  5019               	movf	(___flmul@temp+1)^0,w,c
  7948  002C14  220F               	addwfc	(___flmul@grs+1)^0,f,c
  7949  002C16  0E00               	movlw	0
  7950  002C18  2210               	addwfc	(___flmul@grs+2)^0,f,c
  7951  002C1A  0E00               	movlw	0
  7952  002C1C  2211               	addwfc	(___flmul@grs+3)^0,f,c
  7953  002C1E  5007               	movf	(___flmul@a+2)^0,w,c
  7954  002C20  0202               	mulwf	(___flmul@b+1)^0,c
  7955  002C22  CFF3 F018          	movff	prodl,___flmul@temp
  7956  002C26  CFF4 F019          	movff	prodh,___flmul@temp+1
  7957  002C2A  5018               	movf	___flmul@temp^0,w,c
  7958  002C2C  2614               	addwf	___flmul@prod^0,f,c
  7959  002C2E  5019               	movf	(___flmul@temp+1)^0,w,c
  7960  002C30  2215               	addwfc	(___flmul@prod+1)^0,f,c
  7961  002C32  0E00               	movlw	0
  7962  002C34  2216               	addwfc	(___flmul@prod+2)^0,f,c
  7963  002C36  0E00               	movlw	0
  7964  002C38  2217               	addwfc	(___flmul@prod+3)^0,f,c
  7965  002C3A  5006               	movf	(___flmul@a+1)^0,w,c
  7966  002C3C  0203               	mulwf	(___flmul@b+2)^0,c
  7967  002C3E  CFF3 F018          	movff	prodl,___flmul@temp
  7968  002C42  CFF4 F019          	movff	prodh,___flmul@temp+1
  7969  002C46  5018               	movf	___flmul@temp^0,w,c
  7970  002C48  2614               	addwf	___flmul@prod^0,f,c
  7971  002C4A  5019               	movf	(___flmul@temp+1)^0,w,c
  7972  002C4C  2215               	addwfc	(___flmul@prod+1)^0,f,c
  7973  002C4E  0E00               	movlw	0
  7974  002C50  2216               	addwfc	(___flmul@prod+2)^0,f,c
  7975  002C52  0E00               	movlw	0
  7976  002C54  2217               	addwfc	(___flmul@prod+3)^0,f,c
  7977  002C56  5007               	movf	(___flmul@a+2)^0,w,c
  7978  002C58  0203               	mulwf	(___flmul@b+2)^0,c
  7979  002C5A  CFF3 F018          	movff	prodl,___flmul@temp
  7980  002C5E  CFF4 F019          	movff	prodh,___flmul@temp+1
  7981  002C62  5018               	movf	___flmul@temp^0,w,c
  7982  002C64  6E09               	movwf	??___flmul^0,c
  7983  002C66  5019               	movf	(___flmul@temp+1)^0,w,c
  7984  002C68  6E0A               	movwf	(??___flmul+1)^0,c
  7985  002C6A  6A0B               	clrf	(??___flmul+2)^0,c
  7986  002C6C  6A0C               	clrf	(??___flmul+3)^0,c
  7987  002C6E  C00B  F00C         	movff	??___flmul+2,??___flmul+3
  7988  002C72  C00A  F00B         	movff	??___flmul+1,??___flmul+2
  7989  002C76  C009  F00A         	movff	??___flmul,??___flmul+1
  7990  002C7A  6A09               	clrf	??___flmul^0,c
  7991  002C7C  5009               	movf	??___flmul^0,w,c
  7992  002C7E  2614               	addwf	___flmul@prod^0,f,c
  7993  002C80  500A               	movf	(??___flmul+1)^0,w,c
  7994  002C82  2215               	addwfc	(___flmul@prod+1)^0,f,c
  7995  002C84  500B               	movf	(??___flmul+2)^0,w,c
  7996  002C86  2216               	addwfc	(___flmul@prod+2)^0,f,c
  7997  002C88  500C               	movf	(??___flmul+3)^0,w,c
  7998  002C8A  2217               	addwfc	(___flmul@prod+3)^0,f,c
  7999  002C8C  C00E  F009         	movff	___flmul@grs,??___flmul
  8000  002C90  C00F  F00A         	movff	___flmul@grs+1,??___flmul+1
  8001  002C94  C010  F00B         	movff	___flmul@grs+2,??___flmul+2
  8002  002C98  C011  F00C         	movff	___flmul@grs+3,??___flmul+3
  8003  002C9C  0E19               	movlw	25
  8004  002C9E  EF56  F016         	goto	u4180
  8005  002CA2                     u4185:
  8006  002CA2  90D8               	bcf	status,0,c
  8007  002CA4  320C               	rrcf	(??___flmul+3)^0,f,c
  8008  002CA6  320B               	rrcf	(??___flmul+2)^0,f,c
  8009  002CA8  320A               	rrcf	(??___flmul+1)^0,f,c
  8010  002CAA  3209               	rrcf	??___flmul^0,f,c
  8011  002CAC                     u4180:
  8012  002CAC  2EE8               	decfsz	wreg,f,c
  8013  002CAE  EF51  F016         	goto	u4185
  8014  002CB2  5009               	movf	??___flmul^0,w,c
  8015  002CB4  2614               	addwf	___flmul@prod^0,f,c
  8016  002CB6  500A               	movf	(??___flmul+1)^0,w,c
  8017  002CB8  2215               	addwfc	(___flmul@prod+1)^0,f,c
  8018  002CBA  500B               	movf	(??___flmul+2)^0,w,c
  8019  002CBC  2216               	addwfc	(___flmul@prod+2)^0,f,c
  8020  002CBE  500C               	movf	(??___flmul+3)^0,w,c
  8021  002CC0  2217               	addwfc	(___flmul@prod+3)^0,f,c
  8022  002CC2  C010  F011         	movff	___flmul@grs+2,___flmul@grs+3
  8023  002CC6  C00F  F010         	movff	___flmul@grs+1,___flmul@grs+2
  8024  002CCA  C00E  F00F         	movff	___flmul@grs,___flmul@grs+1
  8025  002CCE  6A0E               	clrf	___flmul@grs^0,c
  8026  002CD0  5012               	movf	___flmul@aexp^0,w,c
  8027  002CD2  C013  F009         	movff	___flmul@bexp,??___flmul
  8028  002CD6  6A0A               	clrf	(??___flmul+1)^0,c
  8029  002CD8  2609               	addwf	??___flmul^0,f,c
  8030  002CDA  0E00               	movlw	0
  8031  002CDC  220A               	addwfc	(??___flmul+1)^0,f,c
  8032  002CDE  0E82               	movlw	130
  8033  002CE0  2409               	addwf	??___flmul^0,w,c
  8034  002CE2  6E18               	movwf	___flmul@temp^0,c
  8035  002CE4  0EFF               	movlw	255
  8036  002CE6  200A               	addwfc	(??___flmul+1)^0,w,c
  8037  002CE8  6E19               	movwf	(___flmul@temp+1)^0,c
  8038  002CEA  EF8C  F016         	goto	l3732
  8039  002CEE                     l3726:
  8040  002CEE  90D8               	bcf	status,0,c
  8041  002CF0  3614               	rlcf	___flmul@prod^0,f,c
  8042  002CF2  3615               	rlcf	(___flmul@prod+1)^0,f,c
  8043  002CF4  3616               	rlcf	(___flmul@prod+2)^0,f,c
  8044  002CF6  3617               	rlcf	(___flmul@prod+3)^0,f,c
  8045  002CF8  AE11               	btfss	(___flmul@grs+3)^0,7,c
  8046  002CFA  EF81  F016         	goto	u4191
  8047  002CFE  EF83  F016         	goto	u4190
  8048  002D02                     u4191:
  8049  002D02  EF84  F016         	goto	l789
  8050  002D06                     u4190:
  8051  002D06  8014               	bsf	___flmul@prod^0,0,c
  8052  002D08                     l789:
  8053  002D08  90D8               	bcf	status,0,c
  8054  002D0A  360E               	rlcf	___flmul@grs^0,f,c
  8055  002D0C  360F               	rlcf	(___flmul@grs+1)^0,f,c
  8056  002D0E  3610               	rlcf	(___flmul@grs+2)^0,f,c
  8057  002D10  3611               	rlcf	(___flmul@grs+3)^0,f,c
  8058  002D12  0618               	decf	___flmul@temp^0,f,c
  8059  002D14  A0D8               	btfss	status,0,c
  8060  002D16  0619               	decf	(___flmul@temp+1)^0,f,c
  8061  002D18                     l3732:
  8062  002D18  AE16               	btfss	(___flmul@prod+2)^0,7,c
  8063  002D1A  EF91  F016         	goto	u4201
  8064  002D1E  EF93  F016         	goto	u4200
  8065  002D22                     u4201:
  8066  002D22  EF77  F016         	goto	l3726
  8067  002D26                     u4200:
  8068  002D26  0E00               	movlw	0
  8069  002D28  6E12               	movwf	___flmul@aexp^0,c
  8070  002D2A  AE11               	btfss	(___flmul@grs+3)^0,7,c
  8071  002D2C  EF9A  F016         	goto	u4211
  8072  002D30  EF9C  F016         	goto	u4210
  8073  002D34                     u4211:
  8074  002D34  EFC0  F016         	goto	l791
  8075  002D38                     u4210:
  8076  002D38  0EFF               	movlw	255
  8077  002D3A  140E               	andwf	___flmul@grs^0,w,c
  8078  002D3C  6E09               	movwf	??___flmul^0,c
  8079  002D3E  0EFF               	movlw	255
  8080  002D40  140F               	andwf	(___flmul@grs+1)^0,w,c
  8081  002D42  6E0A               	movwf	(??___flmul+1)^0,c
  8082  002D44  0EFF               	movlw	255
  8083  002D46  1410               	andwf	(___flmul@grs+2)^0,w,c
  8084  002D48  6E0B               	movwf	(??___flmul+2)^0,c
  8085  002D4A  0E7F               	movlw	127
  8086  002D4C  1411               	andwf	(___flmul@grs+3)^0,w,c
  8087  002D4E  6E0C               	movwf	(??___flmul+3)^0,c
  8088  002D50  5009               	movf	??___flmul^0,w,c
  8089  002D52  100A               	iorwf	(??___flmul+1)^0,w,c
  8090  002D54  100B               	iorwf	(??___flmul+2)^0,w,c
  8091  002D56  100C               	iorwf	(??___flmul+3)^0,w,c
  8092  002D58  B4D8               	btfsc	status,2,c
  8093  002D5A  EFB1  F016         	goto	u4221
  8094  002D5E  EFB3  F016         	goto	u4220
  8095  002D62                     u4221:
  8096  002D62  EFB7  F016         	goto	l792
  8097  002D66                     u4220:
  8098  002D66                     l3740:
  8099  002D66  0E01               	movlw	1
  8100  002D68  6E12               	movwf	___flmul@aexp^0,c
  8101  002D6A  EFC0  F016         	goto	l791
  8102  002D6E                     l792:
  8103  002D6E  A014               	btfss	___flmul@prod^0,0,c
  8104  002D70  EFBC  F016         	goto	u4231
  8105  002D74  EFBE  F016         	goto	u4230
  8106  002D78                     u4231:
  8107  002D78  EFC0  F016         	goto	l791
  8108  002D7C                     u4230:
  8109  002D7C  EFB3  F016         	goto	l3740
  8110  002D80                     l791:
  8111  002D80  5012               	movf	___flmul@aexp^0,w,c
  8112  002D82  B4D8               	btfsc	status,2,c
  8113  002D84  EFC6  F016         	goto	u4241
  8114  002D88  EFC8  F016         	goto	u4240
  8115  002D8C                     u4241:
  8116  002D8C  EFEC  F016         	goto	l3752
  8117  002D90                     u4240:
  8118  002D90  0E01               	movlw	1
  8119  002D92  2614               	addwf	___flmul@prod^0,f,c
  8120  002D94  0E00               	movlw	0
  8121  002D96  2215               	addwfc	(___flmul@prod+1)^0,f,c
  8122  002D98  2216               	addwfc	(___flmul@prod+2)^0,f,c
  8123  002D9A  2217               	addwfc	(___flmul@prod+3)^0,f,c
  8124  002D9C  A017               	btfss	(___flmul@prod+3)^0,0,c
  8125  002D9E  EFD3  F016         	goto	u4251
  8126  002DA2  EFD5  F016         	goto	u4250
  8127  002DA6                     u4251:
  8128  002DA6  EFEC  F016         	goto	l3752
  8129  002DAA                     u4250:
  8130  002DAA  C014  F009         	movff	___flmul@prod,??___flmul
  8131  002DAE  C015  F00A         	movff	___flmul@prod+1,??___flmul+1
  8132  002DB2  C016  F00B         	movff	___flmul@prod+2,??___flmul+2
  8133  002DB6  C017  F00C         	movff	___flmul@prod+3,??___flmul+3
  8134  002DBA  340C               	rlcf	(??___flmul+3)^0,w,c
  8135  002DBC  320C               	rrcf	(??___flmul+3)^0,f,c
  8136  002DBE  320B               	rrcf	(??___flmul+2)^0,f,c
  8137  002DC0  320A               	rrcf	(??___flmul+1)^0,f,c
  8138  002DC2  3209               	rrcf	??___flmul^0,f,c
  8139  002DC4  C009  F014         	movff	??___flmul,___flmul@prod
  8140  002DC8  C00A  F015         	movff	??___flmul+1,___flmul@prod+1
  8141  002DCC  C00B  F016         	movff	??___flmul+2,___flmul@prod+2
  8142  002DD0  C00C  F017         	movff	??___flmul+3,___flmul@prod+3
  8143  002DD4  4A18               	infsnz	___flmul@temp^0,f,c
  8144  002DD6  2A19               	incf	(___flmul@temp+1)^0,f,c
  8145  002DD8                     l3752:
  8146  002DD8  BE19               	btfsc	(___flmul@temp+1)^0,7,c
  8147  002DDA  EFF7  F016         	goto	u4261
  8148  002DDE  5019               	movf	(___flmul@temp+1)^0,w,c
  8149  002DE0  E108               	bnz	u4260
  8150  002DE2  2818               	incf	___flmul@temp^0,w,c
  8151  002DE4  A0D8               	btfss	status,0,c
  8152  002DE6  EFF7  F016         	goto	u4261
  8153  002DEA  EFF9  F016         	goto	u4260
  8154  002DEE                     u4261:
  8155  002DEE  EF03  F017         	goto	l3756
  8156  002DF2                     u4260:
  8157  002DF2  0E00               	movlw	0
  8158  002DF4  6E14               	movwf	___flmul@prod^0,c
  8159  002DF6  0E00               	movlw	0
  8160  002DF8  6E15               	movwf	(___flmul@prod+1)^0,c
  8161  002DFA  0E80               	movlw	128
  8162  002DFC  6E16               	movwf	(___flmul@prod+2)^0,c
  8163  002DFE  0E7F               	movlw	127
  8164  002E00  6E17               	movwf	(___flmul@prod+3)^0,c
  8165  002E02  EF31  F017         	goto	l3768
  8166  002E06                     l3756:
  8167  002E06  BE19               	btfsc	(___flmul@temp+1)^0,7,c
  8168  002E08  EF10  F017         	goto	u4270
  8169  002E0C  5019               	movf	(___flmul@temp+1)^0,w,c
  8170  002E0E  E106               	bnz	u4271
  8171  002E10  0418               	decf	___flmul@temp^0,w,c
  8172  002E12  B0D8               	btfsc	status,0,c
  8173  002E14  EF0E  F017         	goto	u4271
  8174  002E18  EF10  F017         	goto	u4270
  8175  002E1C                     u4271:
  8176  002E1C  EF1C  F017         	goto	l799
  8177  002E20                     u4270:
  8178  002E20  0E00               	movlw	0
  8179  002E22  6E14               	movwf	___flmul@prod^0,c
  8180  002E24  0E00               	movlw	0
  8181  002E26  6E15               	movwf	(___flmul@prod+1)^0,c
  8182  002E28  0E00               	movlw	0
  8183  002E2A  6E16               	movwf	(___flmul@prod+2)^0,c
  8184  002E2C  0E00               	movlw	0
  8185  002E2E  6E17               	movwf	(___flmul@prod+3)^0,c
  8186  002E30  0E00               	movlw	0
  8187  002E32  6E0D               	movwf	___flmul@sign^0,c
  8188  002E34  EF31  F017         	goto	l3768
  8189  002E38                     l799:
  8190  002E38  C018  F013         	movff	___flmul@temp,___flmul@bexp
  8191  002E3C  0EFF               	movlw	255
  8192  002E3E  1614               	andwf	___flmul@prod^0,f,c
  8193  002E40  0EFF               	movlw	255
  8194  002E42  1615               	andwf	(___flmul@prod+1)^0,f,c
  8195  002E44  0E7F               	movlw	127
  8196  002E46  1616               	andwf	(___flmul@prod+2)^0,f,c
  8197  002E48  0E00               	movlw	0
  8198  002E4A  1617               	andwf	(___flmul@prod+3)^0,f,c
  8199  002E4C  A013               	btfss	___flmul@bexp^0,0,c
  8200  002E4E  EF2B  F017         	goto	u4281
  8201  002E52  EF2D  F017         	goto	u4280
  8202  002E56                     u4281:
  8203  002E56  EF2E  F017         	goto	l3766
  8204  002E5A                     u4280:
  8205  002E5A  8E16               	bsf	(___flmul@prod+2)^0,7,c
  8206  002E5C                     l3766:
  8207  002E5C  90D8               	bcf	status,0,c
  8208  002E5E  3013               	rrcf	___flmul@bexp^0,w,c
  8209  002E60  6E17               	movwf	(___flmul@prod+3)^0,c
  8210  002E62                     l3768:
  8211  002E62  500D               	movf	___flmul@sign^0,w,c
  8212  002E64  1217               	iorwf	(___flmul@prod+3)^0,f,c
  8213  002E66  C014  F001         	movff	___flmul@prod,?___flmul
  8214  002E6A  C015  F002         	movff	___flmul@prod+1,?___flmul+1
  8215  002E6E  C016  F003         	movff	___flmul@prod+2,?___flmul+2
  8216  002E72  C017  F004         	movff	___flmul@prod+3,?___flmul+3
  8217  002E76                     l786:
  8218  002E76  0012               	return		;funcret
  8219  002E78                     __end_of___flmul:
  8220                           	callstack 0
  8221                           
  8222 ;; *************** function ___flge *****************
  8223 ;; Defined at:
  8224 ;;		line 4 in file "C:\Program Files\Microchip\xc8\v2.32\pic\sources\c99\common\flge.c"
  8225 ;; Parameters:    Size  Location     Type
  8226 ;;  ff1             4   25[COMRAM] unsigned char 
  8227 ;;  ff2             4   29[COMRAM] unsigned char 
  8228 ;; Auto vars:     Size  Location     Type
  8229 ;;		None
  8230 ;; Return value:  Size  Location     Type
  8231 ;;		None               void
  8232 ;; Registers used:
  8233 ;;		wreg, status,2, status,0
  8234 ;; Tracked objects:
  8235 ;;		On entry : 0/0
  8236 ;;		On exit  : 0/0
  8237 ;;		Unchanged: 0/0
  8238 ;; Data sizes:     COMRAM   BANK0   BANK1   BANK2   BANK3   BANK4   BANK5
  8239 ;;      Params:         8       0       0       0       0       0       0
  8240 ;;      Locals:         0       0       0       0       0       0       0
  8241 ;;      Temps:          4       0       0       0       0       0       0
  8242 ;;      Totals:        12       0       0       0       0       0       0
  8243 ;;Total ram usage:       12 bytes
  8244 ;; Hardware stack levels used: 1
  8245 ;; This function calls:
  8246 ;;		Nothing
  8247 ;; This function is called by:
  8248 ;;		_efgtoa
  8249 ;; This function uses a non-reentrant model
  8250 ;;
  8251                           
  8252                           	psect	text25
  8253  003B92                     __ptext25:
  8254                           	callstack 0
  8255  003B92                     ___flge:
  8256                           	callstack 26
  8257  003B92  0E00               	movlw	0
  8258  003B94  141A               	andwf	___flge@ff1^0,w,c
  8259  003B96  6E22               	movwf	??___flge^0,c
  8260  003B98  0E00               	movlw	0
  8261  003B9A  141B               	andwf	(___flge@ff1+1)^0,w,c
  8262  003B9C  6E23               	movwf	(??___flge+1)^0,c
  8263  003B9E  0E80               	movlw	128
  8264  003BA0  141C               	andwf	(___flge@ff1+2)^0,w,c
  8265  003BA2  6E24               	movwf	(??___flge+2)^0,c
  8266  003BA4  0E7F               	movlw	127
  8267  003BA6  141D               	andwf	(___flge@ff1+3)^0,w,c
  8268  003BA8  6E25               	movwf	(??___flge+3)^0,c
  8269  003BAA  5022               	movf	??___flge^0,w,c
  8270  003BAC  1023               	iorwf	(??___flge+1)^0,w,c
  8271  003BAE  1024               	iorwf	(??___flge+2)^0,w,c
  8272  003BB0  1025               	iorwf	(??___flge+3)^0,w,c
  8273  003BB2  A4D8               	btfss	status,2,c
  8274  003BB4  EFDE  F01D         	goto	u4441
  8275  003BB8  EFE0  F01D         	goto	u4440
  8276  003BBC                     u4441:
  8277  003BBC  EFE8  F01D         	goto	l3880
  8278  003BC0                     u4440:
  8279  003BC0  0E00               	movlw	0
  8280  003BC2  6E1A               	movwf	___flge@ff1^0,c
  8281  003BC4  0E00               	movlw	0
  8282  003BC6  6E1B               	movwf	(___flge@ff1+1)^0,c
  8283  003BC8  0E00               	movlw	0
  8284  003BCA  6E1C               	movwf	(___flge@ff1+2)^0,c
  8285  003BCC  0E00               	movlw	0
  8286  003BCE  6E1D               	movwf	(___flge@ff1+3)^0,c
  8287  003BD0                     l3880:
  8288  003BD0  0E00               	movlw	0
  8289  003BD2  141E               	andwf	___flge@ff2^0,w,c
  8290  003BD4  6E22               	movwf	??___flge^0,c
  8291  003BD6  0E00               	movlw	0
  8292  003BD8  141F               	andwf	(___flge@ff2+1)^0,w,c
  8293  003BDA  6E23               	movwf	(??___flge+1)^0,c
  8294  003BDC  0E80               	movlw	128
  8295  003BDE  1420               	andwf	(___flge@ff2+2)^0,w,c
  8296  003BE0  6E24               	movwf	(??___flge+2)^0,c
  8297  003BE2  0E7F               	movlw	127
  8298  003BE4  1421               	andwf	(___flge@ff2+3)^0,w,c
  8299  003BE6  6E25               	movwf	(??___flge+3)^0,c
  8300  003BE8  5022               	movf	??___flge^0,w,c
  8301  003BEA  1023               	iorwf	(??___flge+1)^0,w,c
  8302  003BEC  1024               	iorwf	(??___flge+2)^0,w,c
  8303  003BEE  1025               	iorwf	(??___flge+3)^0,w,c
  8304  003BF0  A4D8               	btfss	status,2,c
  8305  003BF2  EFFD  F01D         	goto	u4451
  8306  003BF6  EFFF  F01D         	goto	u4450
  8307  003BFA                     u4451:
  8308  003BFA  EF07  F01E         	goto	l3884
  8309  003BFE                     u4450:
  8310  003BFE  0E00               	movlw	0
  8311  003C00  6E1E               	movwf	___flge@ff2^0,c
  8312  003C02  0E00               	movlw	0
  8313  003C04  6E1F               	movwf	(___flge@ff2+1)^0,c
  8314  003C06  0E00               	movlw	0
  8315  003C08  6E20               	movwf	(___flge@ff2+2)^0,c
  8316  003C0A  0E00               	movlw	0
  8317  003C0C  6E21               	movwf	(___flge@ff2+3)^0,c
  8318  003C0E                     l3884:
  8319  003C0E  AE1D               	btfss	(___flge@ff1+3)^0,7,c
  8320  003C10  EF0C  F01E         	goto	u4461
  8321  003C14  EF0E  F01E         	goto	u4460
  8322  003C18                     u4461:
  8323  003C18  EF17  F01E         	goto	l3888
  8324  003C1C                     u4460:
  8325  003C1C  6C1A               	negf	___flge@ff1^0,c
  8326  003C1E  1E1B               	comf	(___flge@ff1+1)^0,f,c
  8327  003C20  B0D8               	btfsc	status,0,c
  8328  003C22  2A1B               	incf	(___flge@ff1+1)^0,f,c
  8329  003C24  1E1C               	comf	(___flge@ff1+2)^0,f,c
  8330  003C26  B0D8               	btfsc	status,0,c
  8331  003C28  2A1C               	incf	(___flge@ff1+2)^0,f,c
  8332  003C2A  0E80               	movlw	128
  8333  003C2C  561D               	subfwb	(___flge@ff1+3)^0,f,c
  8334  003C2E                     l3888:
  8335  003C2E  AE21               	btfss	(___flge@ff2+3)^0,7,c
  8336  003C30  EF1C  F01E         	goto	u4471
  8337  003C34  EF1E  F01E         	goto	u4470
  8338  003C38                     u4471:
  8339  003C38  EF27  F01E         	goto	l433
  8340  003C3C                     u4470:
  8341  003C3C  6C1E               	negf	___flge@ff2^0,c
  8342  003C3E  1E1F               	comf	(___flge@ff2+1)^0,f,c
  8343  003C40  B0D8               	btfsc	status,0,c
  8344  003C42  2A1F               	incf	(___flge@ff2+1)^0,f,c
  8345  003C44  1E20               	comf	(___flge@ff2+2)^0,f,c
  8346  003C46  B0D8               	btfsc	status,0,c
  8347  003C48  2A20               	incf	(___flge@ff2+2)^0,f,c
  8348  003C4A  0E80               	movlw	128
  8349  003C4C  5621               	subfwb	(___flge@ff2+3)^0,f,c
  8350  003C4E                     l433:
  8351  003C4E  0E00               	movlw	0
  8352  003C50  1A1A               	xorwf	___flge@ff1^0,f,c
  8353  003C52  0E00               	movlw	0
  8354  003C54  1A1B               	xorwf	(___flge@ff1+1)^0,f,c
  8355  003C56  0E00               	movlw	0
  8356  003C58  1A1C               	xorwf	(___flge@ff1+2)^0,f,c
  8357  003C5A  0E80               	movlw	128
  8358  003C5C  1A1D               	xorwf	(___flge@ff1+3)^0,f,c
  8359  003C5E  0E00               	movlw	0
  8360  003C60  1A1E               	xorwf	___flge@ff2^0,f,c
  8361  003C62  0E00               	movlw	0
  8362  003C64  1A1F               	xorwf	(___flge@ff2+1)^0,f,c
  8363  003C66  0E00               	movlw	0
  8364  003C68  1A20               	xorwf	(___flge@ff2+2)^0,f,c
  8365  003C6A  0E80               	movlw	128
  8366  003C6C  1A21               	xorwf	(___flge@ff2+3)^0,f,c
  8367  003C6E  501E               	movf	___flge@ff2^0,w,c
  8368  003C70  5C1A               	subwf	___flge@ff1^0,w,c
  8369  003C72  501F               	movf	(___flge@ff2+1)^0,w,c
  8370  003C74  581B               	subwfb	(___flge@ff1+1)^0,w,c
  8371  003C76  5020               	movf	(___flge@ff2+2)^0,w,c
  8372  003C78  581C               	subwfb	(___flge@ff1+2)^0,w,c
  8373  003C7A  5021               	movf	(___flge@ff2+3)^0,w,c
  8374  003C7C  581D               	subwfb	(___flge@ff1+3)^0,w,c
  8375  003C7E  B0D8               	btfsc	status,0,c
  8376  003C80  EF44  F01E         	goto	u4481
  8377  003C84  EF46  F01E         	goto	u4480
  8378  003C88                     u4481:
  8379  003C88  EF49  F01E         	goto	l3894
  8380  003C8C                     u4480:
  8381  003C8C  90D8               	bcf	status,0,c
  8382  003C8E  EF4A  F01E         	goto	l438
  8383  003C92                     l3894:
  8384  003C92  80D8               	bsf	status,0,c
  8385  003C94                     l438:
  8386  003C94  0012               	return		;funcret
  8387  003C96                     __end_of___flge:
  8388                           	callstack 0
  8389                           
  8390 ;; *************** function ___fleq *****************
  8391 ;; Defined at:
  8392 ;;		line 4 in file "C:\Program Files\Microchip\xc8\v2.32\pic\sources\c99\common\fleq.c"
  8393 ;; Parameters:    Size  Location     Type
  8394 ;;  ff1             4    0[COMRAM] unsigned char 
  8395 ;;  ff2             4    4[COMRAM] unsigned char 
  8396 ;; Auto vars:     Size  Location     Type
  8397 ;;		None
  8398 ;; Return value:  Size  Location     Type
  8399 ;;		None               void
  8400 ;; Registers used:
  8401 ;;		wreg, status,2, status,0
  8402 ;; Tracked objects:
  8403 ;;		On entry : 0/0
  8404 ;;		On exit  : 0/0
  8405 ;;		Unchanged: 0/0
  8406 ;; Data sizes:     COMRAM   BANK0   BANK1   BANK2   BANK3   BANK4   BANK5
  8407 ;;      Params:         8       0       0       0       0       0       0
  8408 ;;      Locals:         0       0       0       0       0       0       0
  8409 ;;      Temps:          4       0       0       0       0       0       0
  8410 ;;      Totals:        12       0       0       0       0       0       0
  8411 ;;Total ram usage:       12 bytes
  8412 ;; Hardware stack levels used: 1
  8413 ;; This function calls:
  8414 ;;		Nothing
  8415 ;; This function is called by:
  8416 ;;		_main
  8417 ;;		_efgtoa
  8418 ;; This function uses a non-reentrant model
  8419 ;;
  8420                           
  8421                           	psect	text26
  8422  00422E                     __ptext26:
  8423                           	callstack 0
  8424  00422E                     ___fleq:
  8425                           	callstack 26
  8426  00422E  0E00               	movlw	0
  8427  004230  1401               	andwf	___fleq@ff1^0,w,c
  8428  004232  6E09               	movwf	??___fleq^0,c
  8429  004234  0E00               	movlw	0
  8430  004236  1402               	andwf	(___fleq@ff1+1)^0,w,c
  8431  004238  6E0A               	movwf	(??___fleq+1)^0,c
  8432  00423A  0E80               	movlw	128
  8433  00423C  1403               	andwf	(___fleq@ff1+2)^0,w,c
  8434  00423E  6E0B               	movwf	(??___fleq+2)^0,c
  8435  004240  0E7F               	movlw	127
  8436  004242  1404               	andwf	(___fleq@ff1+3)^0,w,c
  8437  004244  6E0C               	movwf	(??___fleq+3)^0,c
  8438  004246  5009               	movf	??___fleq^0,w,c
  8439  004248  100A               	iorwf	(??___fleq+1)^0,w,c
  8440  00424A  100B               	iorwf	(??___fleq+2)^0,w,c
  8441  00424C  100C               	iorwf	(??___fleq+3)^0,w,c
  8442  00424E  A4D8               	btfss	status,2,c
  8443  004250  EF2C  F021         	goto	u4411
  8444  004254  EF2E  F021         	goto	u4410
  8445  004258                     u4411:
  8446  004258  EF36  F021         	goto	l3864
  8447  00425C                     u4410:
  8448  00425C  0E00               	movlw	0
  8449  00425E  6E01               	movwf	___fleq@ff1^0,c
  8450  004260  0E00               	movlw	0
  8451  004262  6E02               	movwf	(___fleq@ff1+1)^0,c
  8452  004264  0E00               	movlw	0
  8453  004266  6E03               	movwf	(___fleq@ff1+2)^0,c
  8454  004268  0E00               	movlw	0
  8455  00426A  6E04               	movwf	(___fleq@ff1+3)^0,c
  8456  00426C                     l3864:
  8457  00426C  0E00               	movlw	0
  8458  00426E  1405               	andwf	___fleq@ff2^0,w,c
  8459  004270  6E09               	movwf	??___fleq^0,c
  8460  004272  0E00               	movlw	0
  8461  004274  1406               	andwf	(___fleq@ff2+1)^0,w,c
  8462  004276  6E0A               	movwf	(??___fleq+1)^0,c
  8463  004278  0E80               	movlw	128
  8464  00427A  1407               	andwf	(___fleq@ff2+2)^0,w,c
  8465  00427C  6E0B               	movwf	(??___fleq+2)^0,c
  8466  00427E  0E7F               	movlw	127
  8467  004280  1408               	andwf	(___fleq@ff2+3)^0,w,c
  8468  004282  6E0C               	movwf	(??___fleq+3)^0,c
  8469  004284  5009               	movf	??___fleq^0,w,c
  8470  004286  100A               	iorwf	(??___fleq+1)^0,w,c
  8471  004288  100B               	iorwf	(??___fleq+2)^0,w,c
  8472  00428A  100C               	iorwf	(??___fleq+3)^0,w,c
  8473  00428C  A4D8               	btfss	status,2,c
  8474  00428E  EF4B  F021         	goto	u4421
  8475  004292  EF4D  F021         	goto	u4420
  8476  004296                     u4421:
  8477  004296  EF55  F021         	goto	l3868
  8478  00429A                     u4420:
  8479  00429A  0E00               	movlw	0
  8480  00429C  6E05               	movwf	___fleq@ff2^0,c
  8481  00429E  0E00               	movlw	0
  8482  0042A0  6E06               	movwf	(___fleq@ff2+1)^0,c
  8483  0042A2  0E00               	movlw	0
  8484  0042A4  6E07               	movwf	(___fleq@ff2+2)^0,c
  8485  0042A6  0E00               	movlw	0
  8486  0042A8  6E08               	movwf	(___fleq@ff2+3)^0,c
  8487  0042AA                     l3868:
  8488  0042AA  5005               	movf	___fleq@ff2^0,w,c
  8489  0042AC  1801               	xorwf	___fleq@ff1^0,w,c
  8490  0042AE  E10F               	bnz	u4430
  8491  0042B0  5006               	movf	(___fleq@ff2+1)^0,w,c
  8492  0042B2  1802               	xorwf	(___fleq@ff1+1)^0,w,c
  8493  0042B4  E10C               	bnz	u4430
  8494  0042B6  5007               	movf	(___fleq@ff2+2)^0,w,c
  8495  0042B8  1803               	xorwf	(___fleq@ff1+2)^0,w,c
  8496  0042BA  E109               	bnz	u4430
  8497  0042BC  5008               	movf	(___fleq@ff2+3)^0,w,c
  8498  0042BE  1804               	xorwf	(___fleq@ff1+3)^0,w,c
  8499  0042C0  B4D8               	btfsc	status,2,c
  8500  0042C2  EF65  F021         	goto	u4431
  8501  0042C6  EF67  F021         	goto	u4430
  8502  0042CA                     u4431:
  8503  0042CA  EF6A  F021         	goto	l3872
  8504  0042CE                     u4430:
  8505  0042CE  90D8               	bcf	status,0,c
  8506  0042D0  EF6B  F021         	goto	l427
  8507  0042D4                     l3872:
  8508  0042D4  80D8               	bsf	status,0,c
  8509  0042D6                     l427:
  8510  0042D6  0012               	return		;funcret
  8511  0042D8                     __end_of___fleq:
  8512                           	callstack 0
  8513                           
  8514 ;; *************** function ___fldiv *****************
  8515 ;; Defined at:
  8516 ;;		line 11 in file "C:\Program Files\Microchip\xc8\v2.32\pic\sources\c99\common\sprcdiv.c"
  8517 ;; Parameters:    Size  Location     Type
  8518 ;;  b               4    0[COMRAM] unsigned char 
  8519 ;;  a               4    4[COMRAM] unsigned char 
  8520 ;; Auto vars:     Size  Location     Type
  8521 ;;  grs             4   19[COMRAM] unsigned long 
  8522 ;;  rem             4   12[COMRAM] unsigned long 
  8523 ;;  new_exp         2   17[COMRAM] short 
  8524 ;;  aexp            1   24[COMRAM] unsigned char 
  8525 ;;  bexp            1   23[COMRAM] unsigned char 
  8526 ;;  sign            1   16[COMRAM] unsigned char 
  8527 ;; Return value:  Size  Location     Type
  8528 ;;                  4    0[COMRAM] unsigned char 
  8529 ;; Registers used:
  8530 ;;		wreg, status,2, status,0
  8531 ;; Tracked objects:
  8532 ;;		On entry : 0/0
  8533 ;;		On exit  : 0/0
  8534 ;;		Unchanged: 0/0
  8535 ;; Data sizes:     COMRAM   BANK0   BANK1   BANK2   BANK3   BANK4   BANK5
  8536 ;;      Params:         8       0       0       0       0       0       0
  8537 ;;      Locals:        13       0       0       0       0       0       0
  8538 ;;      Temps:          4       0       0       0       0       0       0
  8539 ;;      Totals:        25       0       0       0       0       0       0
  8540 ;;Total ram usage:       25 bytes
  8541 ;; Hardware stack levels used: 1
  8542 ;; This function calls:
  8543 ;;		Nothing
  8544 ;; This function is called by:
  8545 ;;		_main
  8546 ;;		_efgtoa
  8547 ;; This function uses a non-reentrant model
  8548 ;;
  8549                           
  8550                           	psect	text27
  8551  002E78                     __ptext27:
  8552                           	callstack 0
  8553  002E78                     ___fldiv:
  8554                           	callstack 26
  8555  002E78  5004               	movf	(___fldiv@b+3)^0,w,c
  8556  002E7A  0B80               	andlw	128
  8557  002E7C  6E11               	movwf	___fldiv@sign^0,c
  8558  002E7E  5004               	movf	(___fldiv@b+3)^0,w,c
  8559  002E80  2404               	addwf	(___fldiv@b+3)^0,w,c
  8560  002E82  6E18               	movwf	___fldiv@bexp^0,c
  8561  002E84  AE03               	btfss	(___fldiv@b+2)^0,7,c
  8562  002E86  EF47  F017         	goto	u3871
  8563  002E8A  EF49  F017         	goto	u3870
  8564  002E8E                     u3871:
  8565  002E8E  EF4A  F017         	goto	l3512
  8566  002E92                     u3870:
  8567  002E92  8018               	bsf	___fldiv@bexp^0,0,c
  8568  002E94                     l3512:
  8569  002E94  5018               	movf	___fldiv@bexp^0,w,c
  8570  002E96  B4D8               	btfsc	status,2,c
  8571  002E98  EF50  F017         	goto	u3881
  8572  002E9C  EF52  F017         	goto	u3880
  8573  002EA0                     u3881:
  8574  002EA0  EF67  F017         	goto	l3522
  8575  002EA4                     u3880:
  8576  002EA4  2818               	incf	___fldiv@bexp^0,w,c
  8577  002EA6  A4D8               	btfss	status,2,c
  8578  002EA8  EF58  F017         	goto	u3891
  8579  002EAC  EF5A  F017         	goto	u3890
  8580  002EB0                     u3891:
  8581  002EB0  EF62  F017         	goto	l3518
  8582  002EB4                     u3890:
  8583  002EB4  0E00               	movlw	0
  8584  002EB6  6E01               	movwf	___fldiv@b^0,c
  8585  002EB8  0E00               	movlw	0
  8586  002EBA  6E02               	movwf	(___fldiv@b+1)^0,c
  8587  002EBC  0E00               	movlw	0
  8588  002EBE  6E03               	movwf	(___fldiv@b+2)^0,c
  8589  002EC0  0E00               	movlw	0
  8590  002EC2  6E04               	movwf	(___fldiv@b+3)^0,c
  8591  002EC4                     l3518:
  8592  002EC4  8E03               	bsf	(___fldiv@b+2)^0,7,c
  8593  002EC6  0E00               	movlw	0
  8594  002EC8  6E04               	movwf	(___fldiv@b+3)^0,c
  8595  002ECA  EF6F  F017         	goto	l3524
  8596  002ECE                     l3522:
  8597  002ECE  0E00               	movlw	0
  8598  002ED0  6E01               	movwf	___fldiv@b^0,c
  8599  002ED2  0E00               	movlw	0
  8600  002ED4  6E02               	movwf	(___fldiv@b+1)^0,c
  8601  002ED6  0E00               	movlw	0
  8602  002ED8  6E03               	movwf	(___fldiv@b+2)^0,c
  8603  002EDA  0E00               	movlw	0
  8604  002EDC  6E04               	movwf	(___fldiv@b+3)^0,c
  8605  002EDE                     l3524:
  8606  002EDE  5008               	movf	(___fldiv@a+3)^0,w,c
  8607  002EE0  0B80               	andlw	128
  8608  002EE2  1A11               	xorwf	___fldiv@sign^0,f,c
  8609  002EE4  5008               	movf	(___fldiv@a+3)^0,w,c
  8610  002EE6  2408               	addwf	(___fldiv@a+3)^0,w,c
  8611  002EE8  6E19               	movwf	___fldiv@aexp^0,c
  8612  002EEA  AE07               	btfss	(___fldiv@a+2)^0,7,c
  8613  002EEC  EF7A  F017         	goto	u3901
  8614  002EF0  EF7C  F017         	goto	u3900
  8615  002EF4                     u3901:
  8616  002EF4  EF7D  F017         	goto	l3532
  8617  002EF8                     u3900:
  8618  002EF8  8019               	bsf	___fldiv@aexp^0,0,c
  8619  002EFA                     l3532:
  8620  002EFA  5019               	movf	___fldiv@aexp^0,w,c
  8621  002EFC  B4D8               	btfsc	status,2,c
  8622  002EFE  EF83  F017         	goto	u3911
  8623  002F02  EF85  F017         	goto	u3910
  8624  002F06                     u3911:
  8625  002F06  EF9A  F017         	goto	l3542
  8626  002F0A                     u3910:
  8627  002F0A  2819               	incf	___fldiv@aexp^0,w,c
  8628  002F0C  A4D8               	btfss	status,2,c
  8629  002F0E  EF8B  F017         	goto	u3921
  8630  002F12  EF8D  F017         	goto	u3920
  8631  002F16                     u3921:
  8632  002F16  EF95  F017         	goto	l3538
  8633  002F1A                     u3920:
  8634  002F1A  0E00               	movlw	0
  8635  002F1C  6E05               	movwf	___fldiv@a^0,c
  8636  002F1E  0E00               	movlw	0
  8637  002F20  6E06               	movwf	(___fldiv@a+1)^0,c
  8638  002F22  0E00               	movlw	0
  8639  002F24  6E07               	movwf	(___fldiv@a+2)^0,c
  8640  002F26  0E00               	movlw	0
  8641  002F28  6E08               	movwf	(___fldiv@a+3)^0,c
  8642  002F2A                     l3538:
  8643  002F2A  8E07               	bsf	(___fldiv@a+2)^0,7,c
  8644  002F2C  0E00               	movlw	0
  8645  002F2E  6E08               	movwf	(___fldiv@a+3)^0,c
  8646  002F30  EFA2  F017         	goto	l3544
  8647  002F34                     l3542:
  8648  002F34  0E00               	movlw	0
  8649  002F36  6E05               	movwf	___fldiv@a^0,c
  8650  002F38  0E00               	movlw	0
  8651  002F3A  6E06               	movwf	(___fldiv@a+1)^0,c
  8652  002F3C  0E00               	movlw	0
  8653  002F3E  6E07               	movwf	(___fldiv@a+2)^0,c
  8654  002F40  0E00               	movlw	0
  8655  002F42  6E08               	movwf	(___fldiv@a+3)^0,c
  8656  002F44                     l3544:
  8657  002F44  5005               	movf	___fldiv@a^0,w,c
  8658  002F46  1006               	iorwf	(___fldiv@a+1)^0,w,c
  8659  002F48  1007               	iorwf	(___fldiv@a+2)^0,w,c
  8660  002F4A  1008               	iorwf	(___fldiv@a+3)^0,w,c
  8661  002F4C  A4D8               	btfss	status,2,c
  8662  002F4E  EFAB  F017         	goto	u3931
  8663  002F52  EFAD  F017         	goto	u3930
  8664  002F56                     u3931:
  8665  002F56  EFC5  F017         	goto	l3556
  8666  002F5A                     u3930:
  8667  002F5A  0E00               	movlw	0
  8668  002F5C  6E01               	movwf	___fldiv@b^0,c
  8669  002F5E  0E00               	movlw	0
  8670  002F60  6E02               	movwf	(___fldiv@b+1)^0,c
  8671  002F62  0E00               	movlw	0
  8672  002F64  6E03               	movwf	(___fldiv@b+2)^0,c
  8673  002F66  0E00               	movlw	0
  8674  002F68  6E04               	movwf	(___fldiv@b+3)^0,c
  8675  002F6A  0E80               	movlw	128
  8676  002F6C  1203               	iorwf	(___fldiv@b+2)^0,f,c
  8677  002F6E  0E7F               	movlw	127
  8678  002F70  1204               	iorwf	(___fldiv@b+3)^0,f,c
  8679  002F72                     l3550:
  8680  002F72  5011               	movf	___fldiv@sign^0,w,c
  8681  002F74  1204               	iorwf	(___fldiv@b+3)^0,f,c
  8682  002F76  C001  F001         	movff	___fldiv@b,?___fldiv
  8683  002F7A  C002  F002         	movff	___fldiv@b+1,?___fldiv+1
  8684  002F7E  C003  F003         	movff	___fldiv@b+2,?___fldiv+2
  8685  002F82  C004  F004         	movff	___fldiv@b+3,?___fldiv+3
  8686  002F86  EF08  F019         	goto	l750
  8687  002F8A                     l3556:
  8688  002F8A  5018               	movf	___fldiv@bexp^0,w,c
  8689  002F8C  A4D8               	btfss	status,2,c
  8690  002F8E  EFCB  F017         	goto	u3941
  8691  002F92  EFCD  F017         	goto	u3940
  8692  002F96                     u3941:
  8693  002F96  EFD7  F017         	goto	l3564
  8694  002F9A                     u3940:
  8695  002F9A  0E00               	movlw	0
  8696  002F9C  6E01               	movwf	?___fldiv^0,c
  8697  002F9E  0E00               	movlw	0
  8698  002FA0  6E02               	movwf	(?___fldiv+1)^0,c
  8699  002FA2  0E00               	movlw	0
  8700  002FA4  6E03               	movwf	(?___fldiv+2)^0,c
  8701  002FA6  0E00               	movlw	0
  8702  002FA8  6E04               	movwf	(?___fldiv+3)^0,c
  8703  002FAA  EF08  F019         	goto	l750
  8704  002FAE                     l3564:
  8705  002FAE  5019               	movf	___fldiv@aexp^0,w,c
  8706  002FB0  C018  F009         	movff	___fldiv@bexp,??___fldiv
  8707  002FB4  6A0A               	clrf	(??___fldiv+1)^0,c
  8708  002FB6  5E09               	subwf	??___fldiv^0,f,c
  8709  002FB8  0E00               	movlw	0
  8710  002FBA  5A0A               	subwfb	(??___fldiv+1)^0,f,c
  8711  002FBC  0E7F               	movlw	127
  8712  002FBE  2409               	addwf	??___fldiv^0,w,c
  8713  002FC0  6E12               	movwf	___fldiv@new_exp^0,c
  8714  002FC2  0E00               	movlw	0
  8715  002FC4  200A               	addwfc	(??___fldiv+1)^0,w,c
  8716  002FC6  6E13               	movwf	(___fldiv@new_exp+1)^0,c
  8717  002FC8  C001  F00D         	movff	___fldiv@b,___fldiv@rem
  8718  002FCC  C002  F00E         	movff	___fldiv@b+1,___fldiv@rem+1
  8719  002FD0  C003  F00F         	movff	___fldiv@b+2,___fldiv@rem+2
  8720  002FD4  C004  F010         	movff	___fldiv@b+3,___fldiv@rem+3
  8721  002FD8  0E00               	movlw	0
  8722  002FDA  6E01               	movwf	___fldiv@b^0,c
  8723  002FDC  0E00               	movlw	0
  8724  002FDE  6E02               	movwf	(___fldiv@b+1)^0,c
  8725  002FE0  0E00               	movlw	0
  8726  002FE2  6E03               	movwf	(___fldiv@b+2)^0,c
  8727  002FE4  0E00               	movlw	0
  8728  002FE6  6E04               	movwf	(___fldiv@b+3)^0,c
  8729  002FE8  0E00               	movlw	0
  8730  002FEA  6E14               	movwf	___fldiv@grs^0,c
  8731  002FEC  0E00               	movlw	0
  8732  002FEE  6E15               	movwf	(___fldiv@grs+1)^0,c
  8733  002FF0  0E00               	movlw	0
  8734  002FF2  6E16               	movwf	(___fldiv@grs+2)^0,c
  8735  002FF4  0E00               	movlw	0
  8736  002FF6  6E17               	movwf	(___fldiv@grs+3)^0,c
  8737  002FF8  0E00               	movlw	0
  8738  002FFA  6E19               	movwf	___fldiv@aexp^0,c
  8739  002FFC  EF38  F018         	goto	l752
  8740  003000                     l3574:
  8741  003000  5019               	movf	___fldiv@aexp^0,w,c
  8742  003002  B4D8               	btfsc	status,2,c
  8743  003004  EF06  F018         	goto	u3951
  8744  003008  EF08  F018         	goto	u3950
  8745  00300C                     u3951:
  8746  00300C  EF1F  F018         	goto	l3582
  8747  003010                     u3950:
  8748  003010  90D8               	bcf	status,0,c
  8749  003012  360D               	rlcf	___fldiv@rem^0,f,c
  8750  003014  360E               	rlcf	(___fldiv@rem+1)^0,f,c
  8751  003016  360F               	rlcf	(___fldiv@rem+2)^0,f,c
  8752  003018  3610               	rlcf	(___fldiv@rem+3)^0,f,c
  8753  00301A  90D8               	bcf	status,0,c
  8754  00301C  3601               	rlcf	___fldiv@b^0,f,c
  8755  00301E  3602               	rlcf	(___fldiv@b+1)^0,f,c
  8756  003020  3603               	rlcf	(___fldiv@b+2)^0,f,c
  8757  003022  3604               	rlcf	(___fldiv@b+3)^0,f,c
  8758  003024  AE17               	btfss	(___fldiv@grs+3)^0,7,c
  8759  003026  EF17  F018         	goto	u3961
  8760  00302A  EF19  F018         	goto	u3960
  8761  00302E                     u3961:
  8762  00302E  EF1A  F018         	goto	l755
  8763  003032                     u3960:
  8764  003032  8001               	bsf	___fldiv@b^0,0,c
  8765  003034                     l755:
  8766  003034  90D8               	bcf	status,0,c
  8767  003036  3614               	rlcf	___fldiv@grs^0,f,c
  8768  003038  3615               	rlcf	(___fldiv@grs+1)^0,f,c
  8769  00303A  3616               	rlcf	(___fldiv@grs+2)^0,f,c
  8770  00303C  3617               	rlcf	(___fldiv@grs+3)^0,f,c
  8771  00303E                     l3582:
  8772  00303E  5005               	movf	___fldiv@a^0,w,c
  8773  003040  5C0D               	subwf	___fldiv@rem^0,w,c
  8774  003042  5006               	movf	(___fldiv@a+1)^0,w,c
  8775  003044  580E               	subwfb	(___fldiv@rem+1)^0,w,c
  8776  003046  5007               	movf	(___fldiv@a+2)^0,w,c
  8777  003048  580F               	subwfb	(___fldiv@rem+2)^0,w,c
  8778  00304A  5008               	movf	(___fldiv@a+3)^0,w,c
  8779  00304C  5810               	subwfb	(___fldiv@rem+3)^0,w,c
  8780  00304E  A0D8               	btfss	status,0,c
  8781  003050  EF2C  F018         	goto	u3971
  8782  003054  EF2E  F018         	goto	u3970
  8783  003058                     u3971:
  8784  003058  EF37  F018         	goto	l3588
  8785  00305C                     u3970:
  8786  00305C  8C17               	bsf	(___fldiv@grs+3)^0,6,c
  8787  00305E  5005               	movf	___fldiv@a^0,w,c
  8788  003060  5E0D               	subwf	___fldiv@rem^0,f,c
  8789  003062  5006               	movf	(___fldiv@a+1)^0,w,c
  8790  003064  5A0E               	subwfb	(___fldiv@rem+1)^0,f,c
  8791  003066  5007               	movf	(___fldiv@a+2)^0,w,c
  8792  003068  5A0F               	subwfb	(___fldiv@rem+2)^0,f,c
  8793  00306A  5008               	movf	(___fldiv@a+3)^0,w,c
  8794  00306C  5A10               	subwfb	(___fldiv@rem+3)^0,f,c
  8795  00306E                     l3588:
  8796  00306E  2A19               	incf	___fldiv@aexp^0,f,c
  8797  003070                     l752:
  8798  003070  0E19               	movlw	25
  8799  003072  6419               	cpfsgt	___fldiv@aexp^0,c
  8800  003074  EF3E  F018         	goto	u3981
  8801  003078  EF40  F018         	goto	u3980
  8802  00307C                     u3981:
  8803  00307C  EF00  F018         	goto	l3574
  8804  003080                     u3980:
  8805  003080  500D               	movf	___fldiv@rem^0,w,c
  8806  003082  100E               	iorwf	(___fldiv@rem+1)^0,w,c
  8807  003084  100F               	iorwf	(___fldiv@rem+2)^0,w,c
  8808  003086  1010               	iorwf	(___fldiv@rem+3)^0,w,c
  8809  003088  B4D8               	btfsc	status,2,c
  8810  00308A  EF49  F018         	goto	u3991
  8811  00308E  EF4B  F018         	goto	u3990
  8812  003092                     u3991:
  8813  003092  EF63  F018         	goto	l3600
  8814  003096                     u3990:
  8815  003096  8014               	bsf	___fldiv@grs^0,0,c
  8816  003098  EF63  F018         	goto	l3600
  8817  00309C                     l3594:
  8818  00309C  90D8               	bcf	status,0,c
  8819  00309E  3601               	rlcf	___fldiv@b^0,f,c
  8820  0030A0  3602               	rlcf	(___fldiv@b+1)^0,f,c
  8821  0030A2  3603               	rlcf	(___fldiv@b+2)^0,f,c
  8822  0030A4  3604               	rlcf	(___fldiv@b+3)^0,f,c
  8823  0030A6  AE17               	btfss	(___fldiv@grs+3)^0,7,c
  8824  0030A8  EF58  F018         	goto	u4001
  8825  0030AC  EF5A  F018         	goto	u4000
  8826  0030B0                     u4001:
  8827  0030B0  EF5B  F018         	goto	l761
  8828  0030B4                     u4000:
  8829  0030B4  8001               	bsf	___fldiv@b^0,0,c
  8830  0030B6                     l761:
  8831  0030B6  90D8               	bcf	status,0,c
  8832  0030B8  3614               	rlcf	___fldiv@grs^0,f,c
  8833  0030BA  3615               	rlcf	(___fldiv@grs+1)^0,f,c
  8834  0030BC  3616               	rlcf	(___fldiv@grs+2)^0,f,c
  8835  0030BE  3617               	rlcf	(___fldiv@grs+3)^0,f,c
  8836  0030C0  0612               	decf	___fldiv@new_exp^0,f,c
  8837  0030C2  A0D8               	btfss	status,0,c
  8838  0030C4  0613               	decf	(___fldiv@new_exp+1)^0,f,c
  8839  0030C6                     l3600:
  8840  0030C6  AE03               	btfss	(___fldiv@b+2)^0,7,c
  8841  0030C8  EF68  F018         	goto	u4011
  8842  0030CC  EF6A  F018         	goto	u4010
  8843  0030D0                     u4011:
  8844  0030D0  EF4E  F018         	goto	l3594
  8845  0030D4                     u4010:
  8846  0030D4  0E00               	movlw	0
  8847  0030D6  6E19               	movwf	___fldiv@aexp^0,c
  8848  0030D8  AE17               	btfss	(___fldiv@grs+3)^0,7,c
  8849  0030DA  EF71  F018         	goto	u4021
  8850  0030DE  EF73  F018         	goto	u4020
  8851  0030E2                     u4021:
  8852  0030E2  EF97  F018         	goto	l763
  8853  0030E6                     u4020:
  8854  0030E6  0EFF               	movlw	255
  8855  0030E8  1414               	andwf	___fldiv@grs^0,w,c
  8856  0030EA  6E09               	movwf	??___fldiv^0,c
  8857  0030EC  0EFF               	movlw	255
  8858  0030EE  1415               	andwf	(___fldiv@grs+1)^0,w,c
  8859  0030F0  6E0A               	movwf	(??___fldiv+1)^0,c
  8860  0030F2  0EFF               	movlw	255
  8861  0030F4  1416               	andwf	(___fldiv@grs+2)^0,w,c
  8862  0030F6  6E0B               	movwf	(??___fldiv+2)^0,c
  8863  0030F8  0E7F               	movlw	127
  8864  0030FA  1417               	andwf	(___fldiv@grs+3)^0,w,c
  8865  0030FC  6E0C               	movwf	(??___fldiv+3)^0,c
  8866  0030FE  5009               	movf	??___fldiv^0,w,c
  8867  003100  100A               	iorwf	(??___fldiv+1)^0,w,c
  8868  003102  100B               	iorwf	(??___fldiv+2)^0,w,c
  8869  003104  100C               	iorwf	(??___fldiv+3)^0,w,c
  8870  003106  B4D8               	btfsc	status,2,c
  8871  003108  EF88  F018         	goto	u4031
  8872  00310C  EF8A  F018         	goto	u4030
  8873  003110                     u4031:
  8874  003110  EF8E  F018         	goto	l764
  8875  003114                     u4030:
  8876  003114                     l3608:
  8877  003114  0E01               	movlw	1
  8878  003116  6E19               	movwf	___fldiv@aexp^0,c
  8879  003118  EF97  F018         	goto	l763
  8880  00311C                     l764:
  8881  00311C  A001               	btfss	___fldiv@b^0,0,c
  8882  00311E  EF93  F018         	goto	u4041
  8883  003122  EF95  F018         	goto	u4040
  8884  003126                     u4041:
  8885  003126  EF97  F018         	goto	l763
  8886  00312A                     u4040:
  8887  00312A  EF8A  F018         	goto	l3608
  8888  00312E                     l763:
  8889  00312E  5019               	movf	___fldiv@aexp^0,w,c
  8890  003130  B4D8               	btfsc	status,2,c
  8891  003132  EF9D  F018         	goto	u4051
  8892  003136  EF9F  F018         	goto	u4050
  8893  00313A                     u4051:
  8894  00313A  EFC3  F018         	goto	l3620
  8895  00313E                     u4050:
  8896  00313E  0E01               	movlw	1
  8897  003140  2601               	addwf	___fldiv@b^0,f,c
  8898  003142  0E00               	movlw	0
  8899  003144  2202               	addwfc	(___fldiv@b+1)^0,f,c
  8900  003146  2203               	addwfc	(___fldiv@b+2)^0,f,c
  8901  003148  2204               	addwfc	(___fldiv@b+3)^0,f,c
  8902  00314A  A004               	btfss	(___fldiv@b+3)^0,0,c
  8903  00314C  EFAA  F018         	goto	u4061
  8904  003150  EFAC  F018         	goto	u4060
  8905  003154                     u4061:
  8906  003154  EFC3  F018         	goto	l3620
  8907  003158                     u4060:
  8908  003158  C001  F009         	movff	___fldiv@b,??___fldiv
  8909  00315C  C002  F00A         	movff	___fldiv@b+1,??___fldiv+1
  8910  003160  C003  F00B         	movff	___fldiv@b+2,??___fldiv+2
  8911  003164  C004  F00C         	movff	___fldiv@b+3,??___fldiv+3
  8912  003168  340C               	rlcf	(??___fldiv+3)^0,w,c
  8913  00316A  320C               	rrcf	(??___fldiv+3)^0,f,c
  8914  00316C  320B               	rrcf	(??___fldiv+2)^0,f,c
  8915  00316E  320A               	rrcf	(??___fldiv+1)^0,f,c
  8916  003170  3209               	rrcf	??___fldiv^0,f,c
  8917  003172  C009  F001         	movff	??___fldiv,___fldiv@b
  8918  003176  C00A  F002         	movff	??___fldiv+1,___fldiv@b+1
  8919  00317A  C00B  F003         	movff	??___fldiv+2,___fldiv@b+2
  8920  00317E  C00C  F004         	movff	??___fldiv+3,___fldiv@b+3
  8921  003182  4A12               	infsnz	___fldiv@new_exp^0,f,c
  8922  003184  2A13               	incf	(___fldiv@new_exp+1)^0,f,c
  8923  003186                     l3620:
  8924  003186  BE13               	btfsc	(___fldiv@new_exp+1)^0,7,c
  8925  003188  EFCE  F018         	goto	u4071
  8926  00318C  5013               	movf	(___fldiv@new_exp+1)^0,w,c
  8927  00318E  E108               	bnz	u4070
  8928  003190  2812               	incf	___fldiv@new_exp^0,w,c
  8929  003192  A0D8               	btfss	status,0,c
  8930  003194  EFCE  F018         	goto	u4071
  8931  003198  EFD0  F018         	goto	u4070
  8932  00319C                     u4071:
  8933  00319C  EFDB  F018         	goto	l3624
  8934  0031A0                     u4070:
  8935  0031A0  0E00               	movlw	0
  8936  0031A2  6E13               	movwf	(___fldiv@new_exp+1)^0,c
  8937  0031A4  6812               	setf	___fldiv@new_exp^0,c
  8938  0031A6  0E00               	movlw	0
  8939  0031A8  6E01               	movwf	___fldiv@b^0,c
  8940  0031AA  0E00               	movlw	0
  8941  0031AC  6E02               	movwf	(___fldiv@b+1)^0,c
  8942  0031AE  0E00               	movlw	0
  8943  0031B0  6E03               	movwf	(___fldiv@b+2)^0,c
  8944  0031B2  0E00               	movlw	0
  8945  0031B4  6E04               	movwf	(___fldiv@b+3)^0,c
  8946  0031B6                     l3624:
  8947  0031B6  BE13               	btfsc	(___fldiv@new_exp+1)^0,7,c
  8948  0031B8  EFE8  F018         	goto	u4080
  8949  0031BC  5013               	movf	(___fldiv@new_exp+1)^0,w,c
  8950  0031BE  E106               	bnz	u4081
  8951  0031C0  0412               	decf	___fldiv@new_exp^0,w,c
  8952  0031C2  B0D8               	btfsc	status,0,c
  8953  0031C4  EFE6  F018         	goto	u4081
  8954  0031C8  EFE8  F018         	goto	u4080
  8955  0031CC                     u4081:
  8956  0031CC  EFF6  F018         	goto	l3628
  8957  0031D0                     u4080:
  8958  0031D0  0E00               	movlw	0
  8959  0031D2  6E13               	movwf	(___fldiv@new_exp+1)^0,c
  8960  0031D4  0E00               	movlw	0
  8961  0031D6  6E12               	movwf	___fldiv@new_exp^0,c
  8962  0031D8  0E00               	movlw	0
  8963  0031DA  6E01               	movwf	___fldiv@b^0,c
  8964  0031DC  0E00               	movlw	0
  8965  0031DE  6E02               	movwf	(___fldiv@b+1)^0,c
  8966  0031E0  0E00               	movlw	0
  8967  0031E2  6E03               	movwf	(___fldiv@b+2)^0,c
  8968  0031E4  0E00               	movlw	0
  8969  0031E6  6E04               	movwf	(___fldiv@b+3)^0,c
  8970  0031E8  0E00               	movlw	0
  8971  0031EA  6E11               	movwf	___fldiv@sign^0,c
  8972  0031EC                     l3628:
  8973  0031EC  C012  F018         	movff	___fldiv@new_exp,___fldiv@bexp
  8974  0031F0  A018               	btfss	___fldiv@bexp^0,0,c
  8975  0031F2  EFFD  F018         	goto	u4091
  8976  0031F6  EFFF  F018         	goto	u4090
  8977  0031FA                     u4091:
  8978  0031FA  EF02  F019         	goto	l3634
  8979  0031FE                     u4090:
  8980  0031FE  8E03               	bsf	(___fldiv@b+2)^0,7,c
  8981  003200  EF03  F019         	goto	l3636
  8982  003204                     l3634:
  8983  003204  9E03               	bcf	(___fldiv@b+2)^0,7,c
  8984  003206                     l3636:
  8985  003206  90D8               	bcf	status,0,c
  8986  003208  3018               	rrcf	___fldiv@bexp^0,w,c
  8987  00320A  6E04               	movwf	(___fldiv@b+3)^0,c
  8988  00320C  EFB9  F017         	goto	l3550
  8989  003210                     l750:
  8990  003210  0012               	return		;funcret
  8991  003212                     __end_of___fldiv:
  8992                           	callstack 0
  8993                           
  8994 ;; *************** function ___awmod *****************
  8995 ;; Defined at:
  8996 ;;		line 7 in file "C:\Program Files\Microchip\xc8\v2.32\pic\sources\c99\common\awmod.c"
  8997 ;; Parameters:    Size  Location     Type
  8998 ;;  dividend        2    0[COMRAM] int 
  8999 ;;  divisor         2    2[COMRAM] int 
  9000 ;; Auto vars:     Size  Location     Type
  9001 ;;  sign            1    5[COMRAM] unsigned char 
  9002 ;;  counter         1    4[COMRAM] unsigned char 
  9003 ;; Return value:  Size  Location     Type
  9004 ;;                  2    0[COMRAM] int 
  9005 ;; Registers used:
  9006 ;;		wreg, status,2, status,0
  9007 ;; Tracked objects:
  9008 ;;		On entry : 0/0
  9009 ;;		On exit  : 0/0
  9010 ;;		Unchanged: 0/0
  9011 ;; Data sizes:     COMRAM   BANK0   BANK1   BANK2   BANK3   BANK4   BANK5
  9012 ;;      Params:         4       0       0       0       0       0       0
  9013 ;;      Locals:         2       0       0       0       0       0       0
  9014 ;;      Temps:          0       0       0       0       0       0       0
  9015 ;;      Totals:         6       0       0       0       0       0       0
  9016 ;;Total ram usage:        6 bytes
  9017 ;; Hardware stack levels used: 1
  9018 ;; This function calls:
  9019 ;;		Nothing
  9020 ;; This function is called by:
  9021 ;;		_efgtoa
  9022 ;; This function uses a non-reentrant model
  9023 ;;
  9024                           
  9025                           	psect	text28
  9026  00417E                     __ptext28:
  9027                           	callstack 0
  9028  00417E                     ___awmod:
  9029                           	callstack 26
  9030  00417E  0E00               	movlw	0
  9031  004180  6E06               	movwf	___awmod@sign^0,c
  9032  004182  BE02               	btfsc	(___awmod@dividend+1)^0,7,c
  9033  004184  EFC8  F020         	goto	u4350
  9034  004188  EFC6  F020         	goto	u4351
  9035  00418C                     u4351:
  9036  00418C  EFCE  F020         	goto	l3832
  9037  004190                     u4350:
  9038  004190  6C01               	negf	___awmod@dividend^0,c
  9039  004192  1E02               	comf	(___awmod@dividend+1)^0,f,c
  9040  004194  B0D8               	btfsc	status,0,c
  9041  004196  2A02               	incf	(___awmod@dividend+1)^0,f,c
  9042  004198  0E01               	movlw	1
  9043  00419A  6E06               	movwf	___awmod@sign^0,c
  9044  00419C                     l3832:
  9045  00419C  BE04               	btfsc	(___awmod@divisor+1)^0,7,c
  9046  00419E  EFD5  F020         	goto	u4360
  9047  0041A2  EFD3  F020         	goto	u4361
  9048  0041A6                     u4361:
  9049  0041A6  EFD9  F020         	goto	l3836
  9050  0041AA                     u4360:
  9051  0041AA  6C03               	negf	___awmod@divisor^0,c
  9052  0041AC  1E04               	comf	(___awmod@divisor+1)^0,f,c
  9053  0041AE  B0D8               	btfsc	status,0,c
  9054  0041B0  2A04               	incf	(___awmod@divisor+1)^0,f,c
  9055  0041B2                     l3836:
  9056  0041B2  5003               	movf	___awmod@divisor^0,w,c
  9057  0041B4  1004               	iorwf	(___awmod@divisor+1)^0,w,c
  9058  0041B6  B4D8               	btfsc	status,2,c
  9059  0041B8  EFE0  F020         	goto	u4371
  9060  0041BC  EFE2  F020         	goto	u4370
  9061  0041C0                     u4371:
  9062  0041C0  EF06  F021         	goto	l3852
  9063  0041C4                     u4370:
  9064  0041C4  0E01               	movlw	1
  9065  0041C6  6E05               	movwf	___awmod@counter^0,c
  9066  0041C8  EFEA  F020         	goto	l3842
  9067  0041CC                     l3840:
  9068  0041CC  90D8               	bcf	status,0,c
  9069  0041CE  3603               	rlcf	___awmod@divisor^0,f,c
  9070  0041D0  3604               	rlcf	(___awmod@divisor+1)^0,f,c
  9071  0041D2  2A05               	incf	___awmod@counter^0,f,c
  9072  0041D4                     l3842:
  9073  0041D4  AE04               	btfss	(___awmod@divisor+1)^0,7,c
  9074  0041D6  EFEF  F020         	goto	u4381
  9075  0041DA  EFF1  F020         	goto	u4380
  9076  0041DE                     u4381:
  9077  0041DE  EFE6  F020         	goto	l3840
  9078  0041E2                     u4380:
  9079  0041E2                     l3844:
  9080  0041E2  5003               	movf	___awmod@divisor^0,w,c
  9081  0041E4  5C01               	subwf	___awmod@dividend^0,w,c
  9082  0041E6  5004               	movf	(___awmod@divisor+1)^0,w,c
  9083  0041E8  5802               	subwfb	(___awmod@dividend+1)^0,w,c
  9084  0041EA  A0D8               	btfss	status,0,c
  9085  0041EC  EFFA  F020         	goto	u4391
  9086  0041F0  EFFC  F020         	goto	u4390
  9087  0041F4                     u4391:
  9088  0041F4  EF00  F021         	goto	l3848
  9089  0041F8                     u4390:
  9090  0041F8  5003               	movf	___awmod@divisor^0,w,c
  9091  0041FA  5E01               	subwf	___awmod@dividend^0,f,c
  9092  0041FC  5004               	movf	(___awmod@divisor+1)^0,w,c
  9093  0041FE  5A02               	subwfb	(___awmod@dividend+1)^0,f,c
  9094  004200                     l3848:
  9095  004200  90D8               	bcf	status,0,c
  9096  004202  3204               	rrcf	(___awmod@divisor+1)^0,f,c
  9097  004204  3203               	rrcf	___awmod@divisor^0,f,c
  9098  004206  2E05               	decfsz	___awmod@counter^0,f,c
  9099  004208  EFF1  F020         	goto	l3844
  9100  00420C                     l3852:
  9101  00420C  5006               	movf	___awmod@sign^0,w,c
  9102  00420E  B4D8               	btfsc	status,2,c
  9103  004210  EF0C  F021         	goto	u4401
  9104  004214  EF0E  F021         	goto	u4400
  9105  004218                     u4401:
  9106  004218  EF12  F021         	goto	l3856
  9107  00421C                     u4400:
  9108  00421C  6C01               	negf	___awmod@dividend^0,c
  9109  00421E  1E02               	comf	(___awmod@dividend+1)^0,f,c
  9110  004220  B0D8               	btfsc	status,0,c
  9111  004222  2A02               	incf	(___awmod@dividend+1)^0,f,c
  9112  004224                     l3856:
  9113  004224  C001  F001         	movff	___awmod@dividend,?___awmod
  9114  004228  C002  F002         	movff	___awmod@dividend+1,?___awmod+1
  9115  00422C  0012               	return		;funcret
  9116  00422E                     __end_of___awmod:
  9117                           	callstack 0
  9118                           
  9119 ;; *************** function ___awdiv *****************
  9120 ;; Defined at:
  9121 ;;		line 7 in file "C:\Program Files\Microchip\xc8\v2.32\pic\sources\c99\common\awdiv.c"
  9122 ;; Parameters:    Size  Location     Type
  9123 ;;  dividend        2    0[COMRAM] int 
  9124 ;;  divisor         2    2[COMRAM] int 
  9125 ;; Auto vars:     Size  Location     Type
  9126 ;;  quotient        2    6[COMRAM] int 
  9127 ;;  sign            1    5[COMRAM] unsigned char 
  9128 ;;  counter         1    4[COMRAM] unsigned char 
  9129 ;; Return value:  Size  Location     Type
  9130 ;;                  2    0[COMRAM] int 
  9131 ;; Registers used:
  9132 ;;		wreg, status,2, status,0
  9133 ;; Tracked objects:
  9134 ;;		On entry : 0/0
  9135 ;;		On exit  : 0/0
  9136 ;;		Unchanged: 0/0
  9137 ;; Data sizes:     COMRAM   BANK0   BANK1   BANK2   BANK3   BANK4   BANK5
  9138 ;;      Params:         4       0       0       0       0       0       0
  9139 ;;      Locals:         4       0       0       0       0       0       0
  9140 ;;      Temps:          0       0       0       0       0       0       0
  9141 ;;      Totals:         8       0       0       0       0       0       0
  9142 ;;Total ram usage:        8 bytes
  9143 ;; Hardware stack levels used: 1
  9144 ;; This function calls:
  9145 ;;		Nothing
  9146 ;; This function is called by:
  9147 ;;		_efgtoa
  9148 ;; This function uses a non-reentrant model
  9149 ;;
  9150                           
  9151                           	psect	text29
  9152  004008                     __ptext29:
  9153                           	callstack 0
  9154  004008                     ___awdiv:
  9155                           	callstack 26
  9156  004008  0E00               	movlw	0
  9157  00400A  6E06               	movwf	___awdiv@sign^0,c
  9158  00400C  BE04               	btfsc	(___awdiv@divisor+1)^0,7,c
  9159  00400E  EF0D  F020         	goto	u4290
  9160  004012  EF0B  F020         	goto	u4291
  9161  004016                     u4291:
  9162  004016  EF13  F020         	goto	l3788
  9163  00401A                     u4290:
  9164  00401A  6C03               	negf	___awdiv@divisor^0,c
  9165  00401C  1E04               	comf	(___awdiv@divisor+1)^0,f,c
  9166  00401E  B0D8               	btfsc	status,0,c
  9167  004020  2A04               	incf	(___awdiv@divisor+1)^0,f,c
  9168  004022  0E01               	movlw	1
  9169  004024  6E06               	movwf	___awdiv@sign^0,c
  9170  004026                     l3788:
  9171  004026  BE02               	btfsc	(___awdiv@dividend+1)^0,7,c
  9172  004028  EF1A  F020         	goto	u4300
  9173  00402C  EF18  F020         	goto	u4301
  9174  004030                     u4301:
  9175  004030  EF20  F020         	goto	l3794
  9176  004034                     u4300:
  9177  004034  6C01               	negf	___awdiv@dividend^0,c
  9178  004036  1E02               	comf	(___awdiv@dividend+1)^0,f,c
  9179  004038  B0D8               	btfsc	status,0,c
  9180  00403A  2A02               	incf	(___awdiv@dividend+1)^0,f,c
  9181  00403C  0E01               	movlw	1
  9182  00403E  1A06               	xorwf	___awdiv@sign^0,f,c
  9183  004040                     l3794:
  9184  004040  0E00               	movlw	0
  9185  004042  6E08               	movwf	(___awdiv@quotient+1)^0,c
  9186  004044  0E00               	movlw	0
  9187  004046  6E07               	movwf	___awdiv@quotient^0,c
  9188  004048  5003               	movf	___awdiv@divisor^0,w,c
  9189  00404A  1004               	iorwf	(___awdiv@divisor+1)^0,w,c
  9190  00404C  B4D8               	btfsc	status,2,c
  9191  00404E  EF2B  F020         	goto	u4311
  9192  004052  EF2D  F020         	goto	u4310
  9193  004056                     u4311:
  9194  004056  EF55  F020         	goto	l3816
  9195  00405A                     u4310:
  9196  00405A  0E01               	movlw	1
  9197  00405C  6E05               	movwf	___awdiv@counter^0,c
  9198  00405E  EF35  F020         	goto	l3802
  9199  004062                     l3800:
  9200  004062  90D8               	bcf	status,0,c
  9201  004064  3603               	rlcf	___awdiv@divisor^0,f,c
  9202  004066  3604               	rlcf	(___awdiv@divisor+1)^0,f,c
  9203  004068  2A05               	incf	___awdiv@counter^0,f,c
  9204  00406A                     l3802:
  9205  00406A  AE04               	btfss	(___awdiv@divisor+1)^0,7,c
  9206  00406C  EF3A  F020         	goto	u4321
  9207  004070  EF3C  F020         	goto	u4320
  9208  004074                     u4321:
  9209  004074  EF31  F020         	goto	l3800
  9210  004078                     u4320:
  9211  004078                     l3804:
  9212  004078  90D8               	bcf	status,0,c
  9213  00407A  3607               	rlcf	___awdiv@quotient^0,f,c
  9214  00407C  3608               	rlcf	(___awdiv@quotient+1)^0,f,c
  9215  00407E  5003               	movf	___awdiv@divisor^0,w,c
  9216  004080  5C01               	subwf	___awdiv@dividend^0,w,c
  9217  004082  5004               	movf	(___awdiv@divisor+1)^0,w,c
  9218  004084  5802               	subwfb	(___awdiv@dividend+1)^0,w,c
  9219  004086  A0D8               	btfss	status,0,c
  9220  004088  EF48  F020         	goto	u4331
  9221  00408C  EF4A  F020         	goto	u4330
  9222  004090                     u4331:
  9223  004090  EF4F  F020         	goto	l3812
  9224  004094                     u4330:
  9225  004094  5003               	movf	___awdiv@divisor^0,w,c
  9226  004096  5E01               	subwf	___awdiv@dividend^0,f,c
  9227  004098  5004               	movf	(___awdiv@divisor+1)^0,w,c
  9228  00409A  5A02               	subwfb	(___awdiv@dividend+1)^0,f,c
  9229  00409C  8007               	bsf	___awdiv@quotient^0,0,c
  9230  00409E                     l3812:
  9231  00409E  90D8               	bcf	status,0,c
  9232  0040A0  3204               	rrcf	(___awdiv@divisor+1)^0,f,c
  9233  0040A2  3203               	rrcf	___awdiv@divisor^0,f,c
  9234  0040A4  2E05               	decfsz	___awdiv@counter^0,f,c
  9235  0040A6  EF3C  F020         	goto	l3804
  9236  0040AA                     l3816:
  9237  0040AA  5006               	movf	___awdiv@sign^0,w,c
  9238  0040AC  B4D8               	btfsc	status,2,c
  9239  0040AE  EF5B  F020         	goto	u4341
  9240  0040B2  EF5D  F020         	goto	u4340
  9241  0040B6                     u4341:
  9242  0040B6  EF61  F020         	goto	l3820
  9243  0040BA                     u4340:
  9244  0040BA  6C07               	negf	___awdiv@quotient^0,c
  9245  0040BC  1E08               	comf	(___awdiv@quotient+1)^0,f,c
  9246  0040BE  B0D8               	btfsc	status,0,c
  9247  0040C0  2A08               	incf	(___awdiv@quotient+1)^0,f,c
  9248  0040C2                     l3820:
  9249  0040C2  C007  F001         	movff	___awdiv@quotient,?___awdiv
  9250  0040C6  C008  F002         	movff	___awdiv@quotient+1,?___awdiv+1
  9251  0040CA  0012               	return		;funcret
  9252  0040CC                     __end_of___awdiv:
  9253                           	callstack 0
  9254                           
  9255 ;; *************** function _ctoa *****************
  9256 ;; Defined at:
  9257 ;;		line 259 in file "C:\Program Files\Microchip\xc8\v2.32\pic\sources\c99\common\doprnt.c"
  9258 ;; Parameters:    Size  Location     Type
  9259 ;;  fp              2   14[COMRAM] PTR struct _IO_FILE
  9260 ;;		 -> NULL(0), 
  9261 ;;  c               1   16[COMRAM] unsigned char 
  9262 ;; Auto vars:     Size  Location     Type
  9263 ;;  w               2   20[COMRAM] int 
  9264 ;;  l               2   18[COMRAM] int 
  9265 ;; Return value:  Size  Location     Type
  9266 ;;                  2   14[COMRAM] int 
  9267 ;; Registers used:
  9268 ;;		wreg, fsr1l, fsr1h, fsr2l, fsr2h, status,2, status,0, cstack
  9269 ;; Tracked objects:
  9270 ;;		On entry : 0/0
  9271 ;;		On exit  : 0/0
  9272 ;;		Unchanged: 0/0
  9273 ;; Data sizes:     COMRAM   BANK0   BANK1   BANK2   BANK3   BANK4   BANK5
  9274 ;;      Params:         3       0       0       0       0       0       0
  9275 ;;      Locals:         4       0       0       0       0       0       0
  9276 ;;      Temps:          1       0       0       0       0       0       0
  9277 ;;      Totals:         8       0       0       0       0       0       0
  9278 ;;Total ram usage:        8 bytes
  9279 ;; Hardware stack levels used: 1
  9280 ;; Hardware stack levels required when called: 4
  9281 ;; This function calls:
  9282 ;;		_fputc
  9283 ;; This function is called by:
  9284 ;;		_vfpfcnvrt
  9285 ;; This function uses a non-reentrant model
  9286 ;;
  9287                           
  9288                           	psect	text30
  9289  003D94                     __ptext30:
  9290                           	callstack 0
  9291  003D94                     _ctoa:
  9292                           	callstack 23
  9293  003D94                     
  9294                           ;C:\Program Files\Microchip\xc8\v2.32\pic\sources\c99\common\doprnt.c: 259: static int c
      +                          toa(FILE *fp, char c);C:\Program Files\Microchip\xc8\v2.32\pic\sources\c99\common\doprnt
      +                          .c: 260: {;C:\Program Files\Microchip\xc8\v2.32\pic\sources\c99\common\doprnt.c: 261:   
      +                            int l, w;;C:\Program Files\Microchip\xc8\v2.32\pic\sources\c99\common\doprnt.c: 264:  
      +                             w = width ? width - 1 : width;
  9295  003D94  0100               	movlb	0	; () banked
  9296  003D96  51EC               	movf	_width& (0+255),w,b
  9297  003D98  11ED               	iorwf	(_width+1)& (0+255),w,b
  9298  003D9A  A4D8               	btfss	status,2,c
  9299  003D9C  EFD2  F01E         	goto	u4871
  9300  003DA0  EFD4  F01E         	goto	u4870
  9301  003DA4                     u4871:
  9302  003DA4  EFDA  F01E         	goto	l4056
  9303  003DA8                     u4870:
  9304  003DA8                     
  9305                           ; BSR set to: 0
  9306  003DA8  C0EC  F015         	movff	_width,ctoa@w
  9307  003DAC  C0ED  F016         	movff	_width+1,ctoa@w+1
  9308  003DB0  EFE0  F01E         	goto	l4058
  9309  003DB4                     l4056:
  9310                           
  9311                           ; BSR set to: 0
  9312  003DB4  0EFF               	movlw	255
  9313  003DB6  25EC               	addwf	_width& (0+255),w,b
  9314  003DB8  6E15               	movwf	ctoa@w^0,c
  9315  003DBA  0EFF               	movlw	255
  9316  003DBC  21ED               	addwfc	(_width+1)& (0+255),w,b
  9317  003DBE  6E16               	movwf	(ctoa@w+1)^0,c
  9318  003DC0                     l4058:
  9319                           
  9320                           ; BSR set to: 0
  9321                           ;C:\Program Files\Microchip\xc8\v2.32\pic\sources\c99\common\doprnt.c: 267:     if (flag
      +                          s & (1 << 0)) {
  9322  003DC0  A1F0               	btfss	_flags& (0+255),0,b
  9323  003DC2  EFE5  F01E         	goto	u4881
  9324  003DC6  EFE7  F01E         	goto	u4880
  9325  003DCA                     u4881:
  9326  003DCA  EFF0  F01E         	goto	l4062
  9327  003DCE                     u4880:
  9328  003DCE                     
  9329                           ; BSR set to: 0
  9330                           ;C:\Program Files\Microchip\xc8\v2.32\pic\sources\c99\common\doprnt.c: 268:         fput
      +                          c(c, fp);
  9331  003DCE  C011  F006         	movff	ctoa@c,fputc@c
  9332  003DD2  6A07               	clrf	(fputc@c+1)^0,c
  9333  003DD4  C00F  F008         	movff	ctoa@fp,fputc@fp
  9334  003DD8  C010  F009         	movff	ctoa@fp+1,fputc@fp+1
  9335  003DDC  EC6C  F021         	call	_fputc	;wreg free
  9336  003DE0                     l4062:
  9337                           
  9338                           ;C:\Program Files\Microchip\xc8\v2.32\pic\sources\c99\common\doprnt.c: 271:     w = (w <
      +                           0) ? 0 : w;
  9339  003DE0  BE16               	btfsc	(ctoa@w+1)^0,7,c
  9340  003DE2  EFF5  F01E         	goto	u4891
  9341  003DE6  EFF7  F01E         	goto	u4890
  9342  003DEA                     u4891:
  9343  003DEA  EFF9  F01E         	goto	l4066
  9344  003DEE                     u4890:
  9345  003DEE  EFFD  F01E         	goto	l903
  9346  003DF2                     l4066:
  9347  003DF2  0E00               	movlw	0
  9348  003DF4  6E16               	movwf	(ctoa@w+1)^0,c
  9349  003DF6  0E00               	movlw	0
  9350  003DF8  6E15               	movwf	ctoa@w^0,c
  9351  003DFA                     l903:
  9352                           
  9353                           ;C:\Program Files\Microchip\xc8\v2.32\pic\sources\c99\common\doprnt.c: 272:     l = 0;
  9354  003DFA  0E00               	movlw	0
  9355  003DFC  6E14               	movwf	(ctoa@l+1)^0,c
  9356  003DFE  0E00               	movlw	0
  9357  003E00  6E13               	movwf	ctoa@l^0,c
  9358                           
  9359                           ;C:\Program Files\Microchip\xc8\v2.32\pic\sources\c99\common\doprnt.c: 273:     while (l
      +                           < w) {
  9360  003E02  EF0F  F01F         	goto	l4072
  9361  003E06                     l4068:
  9362                           
  9363                           ;C:\Program Files\Microchip\xc8\v2.32\pic\sources\c99\common\doprnt.c: 274:         fput
      +                          c(' ', fp);
  9364  003E06  0E00               	movlw	0
  9365  003E08  6E07               	movwf	(fputc@c+1)^0,c
  9366  003E0A  0E20               	movlw	32
  9367  003E0C  6E06               	movwf	fputc@c^0,c
  9368  003E0E  C00F  F008         	movff	ctoa@fp,fputc@fp
  9369  003E12  C010  F009         	movff	ctoa@fp+1,fputc@fp+1
  9370  003E16  EC6C  F021         	call	_fputc	;wreg free
  9371  003E1A                     
  9372                           ;C:\Program Files\Microchip\xc8\v2.32\pic\sources\c99\common\doprnt.c: 275:         ++l;
  9373  003E1A  4A13               	infsnz	ctoa@l^0,f,c
  9374  003E1C  2A14               	incf	(ctoa@l+1)^0,f,c
  9375  003E1E                     l4072:
  9376                           
  9377                           ;C:\Program Files\Microchip\xc8\v2.32\pic\sources\c99\common\doprnt.c: 273:     while (l
      +                           < w) {
  9378  003E1E  5015               	movf	ctoa@w^0,w,c
  9379  003E20  5C13               	subwf	ctoa@l^0,w,c
  9380  003E22  5014               	movf	(ctoa@l+1)^0,w,c
  9381  003E24  0A80               	xorlw	128
  9382  003E26  6E12               	movwf	??_ctoa^0,c
  9383  003E28  5016               	movf	(ctoa@w+1)^0,w,c
  9384  003E2A  0A80               	xorlw	128
  9385  003E2C  5812               	subwfb	??_ctoa^0,w,c
  9386  003E2E  A0D8               	btfss	status,0,c
  9387  003E30  EF1C  F01F         	goto	u4901
  9388  003E34  EF1E  F01F         	goto	u4900
  9389  003E38                     u4901:
  9390  003E38  EF03  F01F         	goto	l4068
  9391  003E3C                     u4900:
  9392  003E3C                     
  9393                           ;C:\Program Files\Microchip\xc8\v2.32\pic\sources\c99\common\doprnt.c: 278:     if (!(fl
      +                          ags & (1 << 0))) {
  9394  003E3C  0100               	movlb	0	; () banked
  9395  003E3E  B1F0               	btfsc	_flags& (0+255),0,b
  9396  003E40  EF24  F01F         	goto	u4911
  9397  003E44  EF26  F01F         	goto	u4910
  9398  003E48                     u4911:
  9399  003E48  EF2F  F01F         	goto	l4076
  9400  003E4C                     u4910:
  9401  003E4C                     
  9402                           ; BSR set to: 0
  9403                           ;C:\Program Files\Microchip\xc8\v2.32\pic\sources\c99\common\doprnt.c: 279:         fput
      +                          c(c, fp);
  9404  003E4C  C011  F006         	movff	ctoa@c,fputc@c
  9405  003E50  6A07               	clrf	(fputc@c+1)^0,c
  9406  003E52  C00F  F008         	movff	ctoa@fp,fputc@fp
  9407  003E56  C010  F009         	movff	ctoa@fp+1,fputc@fp+1
  9408  003E5A  EC6C  F021         	call	_fputc	;wreg free
  9409  003E5E                     l4076:
  9410                           
  9411                           ;C:\Program Files\Microchip\xc8\v2.32\pic\sources\c99\common\doprnt.c: 282:     return l
      +                          +1;
  9412  003E5E  0E01               	movlw	1
  9413  003E60  2413               	addwf	ctoa@l^0,w,c
  9414  003E62  6E0F               	movwf	?_ctoa^0,c
  9415  003E64  0E00               	movlw	0
  9416  003E66  2014               	addwfc	(ctoa@l+1)^0,w,c
  9417  003E68  6E10               	movwf	(?_ctoa+1)^0,c
  9418  003E6A  0012               	return		;funcret
  9419  003E6C                     __end_of_ctoa:
  9420                           	callstack 0
  9421                           
  9422 ;; *************** function _fputc *****************
  9423 ;; Defined at:
  9424 ;;		line 8 in file "C:\Program Files\Microchip\xc8\v2.32\pic\sources\c99\common\nf_fputc.c"
  9425 ;; Parameters:    Size  Location     Type
  9426 ;;  c               2    5[COMRAM] int 
  9427 ;;  fp              2    7[COMRAM] PTR struct _IO_FILE
  9428 ;;		 -> NULL(0), 
  9429 ;; Auto vars:     Size  Location     Type
  9430 ;;		None
  9431 ;; Return value:  Size  Location     Type
  9432 ;;                  2    5[COMRAM] int 
  9433 ;; Registers used:
  9434 ;;		wreg, fsr1l, fsr1h, fsr2l, fsr2h, status,2, status,0, cstack
  9435 ;; Tracked objects:
  9436 ;;		On entry : 0/0
  9437 ;;		On exit  : 0/0
  9438 ;;		Unchanged: 0/0
  9439 ;; Data sizes:     COMRAM   BANK0   BANK1   BANK2   BANK3   BANK4   BANK5
  9440 ;;      Params:         4       0       0       0       0       0       0
  9441 ;;      Locals:         0       0       0       0       0       0       0
  9442 ;;      Temps:          5       0       0       0       0       0       0
  9443 ;;      Totals:         9       0       0       0       0       0       0
  9444 ;;Total ram usage:        9 bytes
  9445 ;; Hardware stack levels used: 1
  9446 ;; Hardware stack levels required when called: 3
  9447 ;; This function calls:
  9448 ;;		_putch
  9449 ;; This function is called by:
  9450 ;;		_pad
  9451 ;;		_ctoa
  9452 ;;		_vfpfcnvrt
  9453 ;;		_fputs
  9454 ;; This function uses a non-reentrant model
  9455 ;;
  9456                           
  9457                           	psect	text31
  9458  0042D8                     __ptext31:
  9459                           	callstack 0
  9460  0042D8                     _fputc:
  9461                           	callstack 24
  9462  0042D8  5008               	movf	fputc@fp^0,w,c
  9463  0042DA  1009               	iorwf	(fputc@fp+1)^0,w,c
  9464  0042DC  B4D8               	btfsc	status,2,c
  9465  0042DE  EF73  F021         	goto	u3401
  9466  0042E2  EF75  F021         	goto	u3400
  9467  0042E6                     u3401:
  9468  0042E6  EF7E  F021         	goto	l3266
  9469  0042EA                     u3400:
  9470  0042EA  5008               	movf	fputc@fp^0,w,c
  9471  0042EC  1009               	iorwf	(fputc@fp+1)^0,w,c
  9472  0042EE  A4D8               	btfss	status,2,c
  9473  0042F0  EF7C  F021         	goto	u3411
  9474  0042F4  EF7E  F021         	goto	u3410
  9475  0042F8                     u3411:
  9476  0042F8  EF83  F021         	goto	l3268
  9477  0042FC                     u3410:
  9478  0042FC                     l3266:
  9479  0042FC  5006               	movf	fputc@c^0,w,c
  9480  0042FE  ECD9  F024         	call	_putch
  9481  004302  EFB6  F021         	goto	l1120
  9482  004306                     l3268:
  9483  004306  EE20 F004          	lfsr	2,4
  9484  00430A  5008               	movf	fputc@fp^0,w,c
  9485  00430C  26D9               	addwf	fsr2l,f,c
  9486  00430E  5009               	movf	(fputc@fp+1)^0,w,c
  9487  004310  22DA               	addwfc	fsr2h,f,c
  9488  004312  50DE               	movf	postinc2,w,c
  9489  004314  10DE               	iorwf	postinc2,w,c
  9490  004316  B4D8               	btfsc	status,2,c
  9491  004318  EF90  F021         	goto	u3421
  9492  00431C  EF92  F021         	goto	u3420
  9493  004320                     u3421:
  9494  004320  EFAD  F021         	goto	l3272
  9495  004324                     u3420:
  9496  004324  EE20 F004          	lfsr	2,4
  9497  004328  5008               	movf	fputc@fp^0,w,c
  9498  00432A  26D9               	addwf	fsr2l,f,c
  9499  00432C  5009               	movf	(fputc@fp+1)^0,w,c
  9500  00432E  22DA               	addwfc	fsr2h,f,c
  9501  004330  EE10 F002          	lfsr	1,2
  9502  004334  5008               	movf	fputc@fp^0,w,c
  9503  004336  26E1               	addwf	fsr1l,f,c
  9504  004338  5009               	movf	(fputc@fp+1)^0,w,c
  9505  00433A  22E2               	addwfc	fsr1h,f,c
  9506  00433C  50DE               	movf	postinc2,w,c
  9507  00433E  5CE6               	subwf	postinc1,w,c
  9508  004340  50E6               	movf	postinc1,w,c
  9509  004342  0A80               	xorlw	128
  9510  004344  6E0E               	movwf	(??_fputc+4)^0,c
  9511  004346  50DE               	movf	postinc2,w,c
  9512  004348  0A80               	xorlw	128
  9513  00434A  580E               	subwfb	(??_fputc+4)^0,w,c
  9514  00434C  B0D8               	btfsc	status,0,c
  9515  00434E  EFAB  F021         	goto	u3431
  9516  004352  EFAD  F021         	goto	u3430
  9517  004356                     u3431:
  9518  004356  EFB6  F021         	goto	l1120
  9519  00435A                     u3430:
  9520  00435A                     l3272:
  9521  00435A  EE20 F002          	lfsr	2,2
  9522  00435E  5008               	movf	fputc@fp^0,w,c
  9523  004360  26D9               	addwf	fsr2l,f,c
  9524  004362  5009               	movf	(fputc@fp+1)^0,w,c
  9525  004364  22DA               	addwfc	fsr2h,f,c
  9526  004366  2ADE               	incf	postinc2,f,c
  9527  004368  0E00               	movlw	0
  9528  00436A  22DD               	addwfc	postdec2,f,c
  9529  00436C                     l1120:
  9530  00436C  0012               	return		;funcret
  9531  00436E                     __end_of_fputc:
  9532                           	callstack 0
  9533                           
  9534 ;; *************** function _putch *****************
  9535 ;; Defined at:
  9536 ;;		line 142 in file "main.c"
  9537 ;; Parameters:    Size  Location     Type
  9538 ;;  c               1    wreg     unsigned char 
  9539 ;; Auto vars:     Size  Location     Type
  9540 ;;  c               1    4[COMRAM] unsigned char 
  9541 ;; Return value:  Size  Location     Type
  9542 ;;                  1    wreg      void 
  9543 ;; Registers used:
  9544 ;;		wreg, fsr2l, fsr2h, status,2, status,0, cstack
  9545 ;; Tracked objects:
  9546 ;;		On entry : 0/0
  9547 ;;		On exit  : 0/0
  9548 ;;		Unchanged: 0/0
  9549 ;; Data sizes:     COMRAM   BANK0   BANK1   BANK2   BANK3   BANK4   BANK5
  9550 ;;      Params:         0       0       0       0       0       0       0
  9551 ;;      Locals:         1       0       0       0       0       0       0
  9552 ;;      Temps:          0       0       0       0       0       0       0
  9553 ;;      Totals:         1       0       0       0       0       0       0
  9554 ;;Total ram usage:        1 bytes
  9555 ;; Hardware stack levels used: 1
  9556 ;; Hardware stack levels required when called: 2
  9557 ;; This function calls:
  9558 ;;		_sendData
  9559 ;; This function is called by:
  9560 ;;		_fputc
  9561 ;; This function uses a non-reentrant model
  9562 ;;
  9563                           
  9564                           	psect	text32
  9565  0049B2                     __ptext32:
  9566                           	callstack 0
  9567  0049B2                     _putch:
  9568                           	callstack 24
  9569                           
  9570                           ;incstack = 0
  9571                           ;putch@c stored from wreg
  9572  0049B2  6E05               	movwf	putch@c^0,c
  9573  0049B4                     
  9574                           ;main.c: 143:     sendData(c);
  9575  0049B4  5005               	movf	putch@c^0,w,c
  9576  0049B6  ECB7  F021         	call	_sendData
  9577  0049BA  0012               	return		;funcret
  9578  0049BC                     __end_of_putch:
  9579                           	callstack 0
  9580                           
  9581 ;; *************** function _sendData *****************
  9582 ;; Defined at:
  9583 ;;		line 94 in file "main.c"
  9584 ;; Parameters:    Size  Location     Type
  9585 ;;  dado            1    wreg     unsigned char 
  9586 ;; Auto vars:     Size  Location     Type
  9587 ;;  dado            1    3[COMRAM] unsigned char 
  9588 ;; Return value:  Size  Location     Type
  9589 ;;                  1    wreg      void 
  9590 ;; Registers used:
  9591 ;;		wreg, fsr2l, fsr2h, status,2, status,0, cstack
  9592 ;; Tracked objects:
  9593 ;;		On entry : 0/0
  9594 ;;		On exit  : 0/0
  9595 ;;		Unchanged: 0/0
  9596 ;; Data sizes:     COMRAM   BANK0   BANK1   BANK2   BANK3   BANK4   BANK5
  9597 ;;      Params:         0       0       0       0       0       0       0
  9598 ;;      Locals:         1       0       0       0       0       0       0
  9599 ;;      Temps:          1       0       0       0       0       0       0
  9600 ;;      Totals:         2       0       0       0       0       0       0
  9601 ;;Total ram usage:        2 bytes
  9602 ;; Hardware stack levels used: 1
  9603 ;; Hardware stack levels required when called: 1
  9604 ;; This function calls:
  9605 ;;		_pulseE
  9606 ;;		_waitIdle
  9607 ;; This function is called by:
  9608 ;;		_putch
  9609 ;; This function uses a non-reentrant model
  9610 ;;
  9611                           
  9612                           	psect	text33
  9613  00436E                     __ptext33:
  9614                           	callstack 0
  9615  00436E                     _sendData:
  9616                           	callstack 24
  9617                           
  9618                           ;incstack = 0
  9619                           ;sendData@dado stored from wreg
  9620  00436E  6E04               	movwf	sendData@dado^0,c
  9621  004370                     
  9622                           ;main.c: 95:     pLCD ->RS = 1;
  9623  004370  C0F2  FFD9         	movff	_pLCD,fsr2l
  9624  004374  C0F3  FFDA         	movff	_pLCD+1,fsr2h
  9625  004378  0100               	movlb	0	; () banked
  9626  00437A  80DF               	bsf	indf2,0,c
  9627                           
  9628                           ;main.c: 96:     pLCD ->R_W = 0;
  9629  00437C  C0F2  FFD9         	movff	_pLCD,fsr2l
  9630  004380  C0F3  FFDA         	movff	_pLCD+1,fsr2h
  9631  004384  92DF               	bcf	indf2,1,c
  9632  004386                     
  9633                           ; BSR set to: 0
  9634                           ;main.c: 97:     pLCD ->NData = dado >> 4;
  9635  004386  C004  F003         	movff	sendData@dado,??_sendData
  9636  00438A  3A03               	swapf	??_sendData^0,f,c
  9637  00438C  0E0F               	movlw	15
  9638  00438E  1603               	andwf	??_sendData^0,f,c
  9639  004390  C0F2  FFD9         	movff	_pLCD,fsr2l
  9640  004394  C0F3  FFDA         	movff	_pLCD+1,fsr2h
  9641  004398  3A03               	swapf	??_sendData^0,f,c
  9642  00439A  50DF               	movf	223,w,c
  9643  00439C  1803               	xorwf	??_sendData^0,w,c
  9644  00439E  0B0F               	andlw	-241
  9645  0043A0  1803               	xorwf	??_sendData^0,w,c
  9646  0043A2  6EDF               	movwf	223,c
  9647  0043A4                     
  9648                           ; BSR set to: 0
  9649                           ;main.c: 98:     pulseE();
  9650  0043A4  EC7A  F024         	call	_pulseE	;wreg free
  9651  0043A8                     
  9652                           ;main.c: 100:     pLCD -> RS = 1;
  9653  0043A8  C0F2  FFD9         	movff	_pLCD,fsr2l
  9654  0043AC  C0F3  FFDA         	movff	_pLCD+1,fsr2h
  9655  0043B0  0100               	movlb	0	; () banked
  9656  0043B2  80DF               	bsf	indf2,0,c
  9657  0043B4                     
  9658                           ; BSR set to: 0
  9659                           ;main.c: 101:     pLCD->NData = dado & 0x0F;
  9660  0043B4  C004  F003         	movff	sendData@dado,??_sendData
  9661  0043B8  0E0F               	movlw	15
  9662  0043BA  1603               	andwf	??_sendData^0,f,c
  9663  0043BC  C0F2  FFD9         	movff	_pLCD,fsr2l
  9664  0043C0  C0F3  FFDA         	movff	_pLCD+1,fsr2h
  9665  0043C4  3A03               	swapf	??_sendData^0,f,c
  9666  0043C6  50DF               	movf	223,w,c
  9667  0043C8  1803               	xorwf	??_sendData^0,w,c
  9668  0043CA  0B0F               	andlw	-241
  9669  0043CC  1803               	xorwf	??_sendData^0,w,c
  9670  0043CE  6EDF               	movwf	223,c
  9671                           
  9672                           ;main.c: 102:     pulseE();
  9673  0043D0  EC7A  F024         	call	_pulseE	;wreg free
  9674  0043D4                     
  9675                           ;main.c: 103:     waitIdle();
  9676  0043D4  EC66  F020         	call	_waitIdle	;wreg free
  9677  0043D8  0012               	return		;funcret
  9678  0043DA                     __end_of_sendData:
  9679                           	callstack 0
  9680                           
  9681 ;; *************** function _atoi *****************
  9682 ;; Defined at:
  9683 ;;		line 4 in file "C:\Program Files\Microchip\xc8\v2.32\pic\sources\c99\common\atoi.c"
  9684 ;; Parameters:    Size  Location     Type
  9685 ;;  s               2    7[COMRAM] PTR const unsigned char 
  9686 ;;		 -> STR_17(5), STR_13(5), STR_9(5), STR_5(5), 
  9687 ;;		 -> STR_1(3), 
  9688 ;; Auto vars:     Size  Location     Type
  9689 ;;  n               2   20[COMRAM] int 
  9690 ;;  neg             2   13[COMRAM] int 
  9691 ;; Return value:  Size  Location     Type
  9692 ;;                  2    7[COMRAM] int 
  9693 ;; Registers used:
  9694 ;;		wreg, status,2, status,0, tblptrl, tblptrh, tblptru, prodl, prodh, cstack
  9695 ;; Tracked objects:
  9696 ;;		On entry : 0/0
  9697 ;;		On exit  : 0/0
  9698 ;;		Unchanged: 0/0
  9699 ;; Data sizes:     COMRAM   BANK0   BANK1   BANK2   BANK3   BANK4   BANK5
  9700 ;;      Params:         2       0       0       0       0       0       0
  9701 ;;      Locals:         9       0       0       0       0       0       0
  9702 ;;      Temps:          4       0       0       0       0       0       0
  9703 ;;      Totals:        15       0       0       0       0       0       0
  9704 ;;Total ram usage:       15 bytes
  9705 ;; Hardware stack levels used: 1
  9706 ;; Hardware stack levels required when called: 1
  9707 ;; This function calls:
  9708 ;;		___wmul
  9709 ;;		_isdigit
  9710 ;;		_isspace
  9711 ;; This function is called by:
  9712 ;;		_vfpfcnvrt
  9713 ;; This function uses a non-reentrant model
  9714 ;;
  9715                           
  9716                           	psect	text34
  9717  0038FC                     __ptext34:
  9718                           	callstack 0
  9719  0038FC                     _atoi:
  9720                           	callstack 26
  9721  0038FC  0E00               	movlw	0
  9722  0038FE  6E16               	movwf	(atoi@n+1)^0,c
  9723  003900  0E00               	movlw	0
  9724  003902  6E15               	movwf	atoi@n^0,c
  9725  003904  0E00               	movlw	0
  9726  003906  6E0F               	movwf	(atoi@neg+1)^0,c
  9727  003908  0E00               	movlw	0
  9728  00390A  6E0E               	movwf	atoi@neg^0,c
  9729  00390C  EF8A  F01C         	goto	l4392
  9730  003910                     l4390:
  9731  003910  4A08               	infsnz	atoi@s^0,f,c
  9732  003912  2A09               	incf	(atoi@s+1)^0,f,c
  9733  003914                     l4392:
  9734  003914  0E01               	movlw	1
  9735  003916  6E14               	movwf	_atoi$913^0,c
  9736  003918  C008  FFF6         	movff	atoi@s,tblptrl
  9737  00391C  C009  FFF7         	movff	atoi@s+1,tblptrh
  9738  003920                     	if	0	;tblptru may be non-zero
  9739  003920                     	endif
  9740  003920                     	if	0	;tblptru may be non-zero
  9741  003920                     	endif
  9742  003920  0008               	tblrd		*
  9743  003922  50F5               	movf	tablat,w,c
  9744  003924  0A20               	xorlw	32
  9745  003926  B4D8               	btfsc	status,2,c
  9746  003928  EF98  F01C         	goto	u5461
  9747  00392C  EF9A  F01C         	goto	u5460
  9748  003930                     u5461:
  9749  003930  EFB7  F01C         	goto	l4400
  9750  003934                     u5460:
  9751  003934  0EF7               	movlw	247
  9752  003936  6E0A               	movwf	??_atoi^0,c
  9753  003938  0EFF               	movlw	255
  9754  00393A  6E0B               	movwf	(??_atoi+1)^0,c
  9755  00393C  C008  FFF6         	movff	atoi@s,tblptrl
  9756  003940  C009  FFF7         	movff	atoi@s+1,tblptrh
  9757  003944                     	if	0	;tblptru may be non-zero
  9758  003944                     	endif
  9759  003944                     	if	0	;tblptru may be non-zero
  9760  003944                     	endif
  9761  003944  0008               	tblrd		*
  9762  003946  50F5               	movf	tablat,w,c
  9763  003948  6E0C               	movwf	(??_atoi+2)^0,c
  9764  00394A  6A0D               	clrf	(??_atoi+3)^0,c
  9765  00394C  500A               	movf	??_atoi^0,w,c
  9766  00394E  260C               	addwf	(??_atoi+2)^0,f,c
  9767  003950  500B               	movf	(??_atoi+1)^0,w,c
  9768  003952  220D               	addwfc	(??_atoi+3)^0,f,c
  9769  003954  500D               	movf	(??_atoi+3)^0,w,c
  9770  003956  E109               	bnz	u5470
  9771  003958  0E05               	movlw	5
  9772  00395A  5C0C               	subwf	(??_atoi+2)^0,w,c
  9773  00395C  A0D8               	btfss	status,0,c
  9774  00395E  EFB3  F01C         	goto	u5471
  9775  003962  EFB5  F01C         	goto	u5470
  9776  003966                     u5471:
  9777  003966  EFB7  F01C         	goto	l4400
  9778  00396A                     u5470:
  9779  00396A  0E00               	movlw	0
  9780  00396C  6E14               	movwf	_atoi$913^0,c
  9781  00396E                     l4400:
  9782  00396E  C014  F010         	movff	_atoi$913,_atoi$912
  9783  003972  6A11               	clrf	(_atoi$912+1)^0,c
  9784  003974  5010               	movf	_atoi$912^0,w,c
  9785  003976  1011               	iorwf	(_atoi$912+1)^0,w,c
  9786  003978  A4D8               	btfss	status,2,c
  9787  00397A  EFC1  F01C         	goto	u5481
  9788  00397E  EFC3  F01C         	goto	u5480
  9789  003982                     u5481:
  9790  003982  EF88  F01C         	goto	l4390
  9791  003986                     u5480:
  9792  003986  EFCD  F01C         	goto	l4410
  9793  00398A                     l4406:
  9794  00398A  0E00               	movlw	0
  9795  00398C  6E0F               	movwf	(atoi@neg+1)^0,c
  9796  00398E  0E01               	movlw	1
  9797  003990  6E0E               	movwf	atoi@neg^0,c
  9798  003992                     l4408:
  9799  003992  4A08               	infsnz	atoi@s^0,f,c
  9800  003994  2A09               	incf	(atoi@s+1)^0,f,c
  9801  003996  EF02  F01D         	goto	l4416
  9802  00399A                     l4410:
  9803  00399A  C008  FFF6         	movff	atoi@s,tblptrl
  9804  00399E  C009  FFF7         	movff	atoi@s+1,tblptrh
  9805  0039A2                     	if	0	;tblptru may be non-zero
  9806  0039A2                     	endif
  9807  0039A2                     	if	0	;tblptru may be non-zero
  9808  0039A2                     	endif
  9809  0039A2  0008               	tblrd		*
  9810  0039A4  50F5               	movf	tablat,w,c
  9811  0039A6  6E0A               	movwf	??_atoi^0,c
  9812  0039A8  6A0B               	clrf	(??_atoi+1)^0,c
  9813                           
  9814                           ; Switch on 2 bytes has been partitioned into a top level switch of size 1, and 1 sub-sw
      +                          itches
  9815                           ; Switch size 1, requested type "simple"
  9816                           ; Number of cases is 1, Range of values is 0 to 0
  9817                           ; switch strategies available:
  9818                           ; Name         Instructions Cycles
  9819                           ; simple_byte            4     3 (average)
  9820                           ;	Chosen strategy is simple_byte
  9821  0039AA  500B               	movf	(??_atoi+1)^0,w,c
  9822  0039AC  0A00               	xorlw	0	; case 0
  9823  0039AE  B4D8               	btfsc	status,2,c
  9824  0039B0  EFDC  F01C         	goto	l5160
  9825  0039B4  EF02  F01D         	goto	l4416
  9826  0039B8                     l5160:
  9827                           
  9828                           ; Switch size 1, requested type "simple"
  9829                           ; Number of cases is 2, Range of values is 43 to 45
  9830                           ; switch strategies available:
  9831                           ; Name         Instructions Cycles
  9832                           ; simple_byte            7     4 (average)
  9833                           ;	Chosen strategy is simple_byte
  9834  0039B8  500A               	movf	??_atoi^0,w,c
  9835  0039BA  0A2B               	xorlw	43	; case 43
  9836  0039BC  B4D8               	btfsc	status,2,c
  9837  0039BE  EFC9  F01C         	goto	l4408
  9838  0039C2  0A06               	xorlw	6	; case 45
  9839  0039C4  B4D8               	btfsc	status,2,c
  9840  0039C6  EFC5  F01C         	goto	l4406
  9841  0039CA  EF02  F01D         	goto	l4416
  9842  0039CE                     l4412:
  9843  0039CE  C015  F001         	movff	atoi@n,___wmul@multiplier
  9844  0039D2  C016  F002         	movff	atoi@n+1,___wmul@multiplier+1
  9845  0039D6  0E00               	movlw	0
  9846  0039D8  6E04               	movwf	(___wmul@multiplicand+1)^0,c
  9847  0039DA  0E0A               	movlw	10
  9848  0039DC  6E03               	movwf	___wmul@multiplicand^0,c
  9849  0039DE  ECA3  F024         	call	___wmul	;wreg free
  9850  0039E2  C008  FFF6         	movff	atoi@s,tblptrl
  9851  0039E6  C009  FFF7         	movff	atoi@s+1,tblptrh
  9852  0039EA                     	if	0	;tblptru may be non-zero
  9853  0039EA                     	endif
  9854  0039EA                     	if	0	;tblptru may be non-zero
  9855  0039EA                     	endif
  9856  0039EA  0008               	tblrd		*
  9857  0039EC  50F5               	movf	tablat,w,c
  9858  0039EE  5E01               	subwf	?___wmul^0,f,c
  9859  0039F0  0E00               	movlw	0
  9860  0039F2  5A02               	subwfb	(?___wmul+1)^0,f,c
  9861  0039F4  0E30               	movlw	48
  9862  0039F6  2401               	addwf	?___wmul^0,w,c
  9863  0039F8  6E15               	movwf	atoi@n^0,c
  9864  0039FA  0E00               	movlw	0
  9865  0039FC  2002               	addwfc	(?___wmul+1)^0,w,c
  9866  0039FE  6E16               	movwf	(atoi@n+1)^0,c
  9867  003A00  EFC9  F01C         	goto	l4408
  9868  003A04                     l4416:
  9869  003A04  0ED0               	movlw	208
  9870  003A06  6E0A               	movwf	??_atoi^0,c
  9871  003A08  0EFF               	movlw	255
  9872  003A0A  6E0B               	movwf	(??_atoi+1)^0,c
  9873  003A0C  C008  FFF6         	movff	atoi@s,tblptrl
  9874  003A10  C009  FFF7         	movff	atoi@s+1,tblptrh
  9875  003A14                     	if	0	;tblptru may be non-zero
  9876  003A14                     	endif
  9877  003A14                     	if	0	;tblptru may be non-zero
  9878  003A14                     	endif
  9879  003A14  0008               	tblrd		*
  9880  003A16  50F5               	movf	tablat,w,c
  9881  003A18  6E0C               	movwf	(??_atoi+2)^0,c
  9882  003A1A  6A0D               	clrf	(??_atoi+3)^0,c
  9883  003A1C  500A               	movf	??_atoi^0,w,c
  9884  003A1E  260C               	addwf	(??_atoi+2)^0,f,c
  9885  003A20  500B               	movf	(??_atoi+1)^0,w,c
  9886  003A22  220D               	addwfc	(??_atoi+3)^0,f,c
  9887  003A24  500D               	movf	(??_atoi+3)^0,w,c
  9888  003A26  E10A               	bnz	u5490
  9889  003A28  0E0A               	movlw	10
  9890  003A2A  5C0C               	subwf	(??_atoi+2)^0,w,c
  9891  003A2C  A0D8               	btfss	status,0,c
  9892  003A2E  EF1B  F01D         	goto	u5491
  9893  003A32  EF1E  F01D         	goto	u5490
  9894  003A36                     u5491:
  9895  003A36  0E01               	movlw	1
  9896  003A38  EF1F  F01D         	goto	u5500
  9897  003A3C                     u5490:
  9898  003A3C  0E00               	movlw	0
  9899  003A3E                     u5500:
  9900  003A3E  6E12               	movwf	_atoi$914^0,c
  9901  003A40  6A13               	clrf	(_atoi$914+1)^0,c
  9902  003A42  5012               	movf	_atoi$914^0,w,c
  9903  003A44  1013               	iorwf	(_atoi$914+1)^0,w,c
  9904  003A46  A4D8               	btfss	status,2,c
  9905  003A48  EF28  F01D         	goto	u5511
  9906  003A4C  EF2A  F01D         	goto	u5510
  9907  003A50                     u5511:
  9908  003A50  EFE7  F01C         	goto	l4412
  9909  003A54                     u5510:
  9910  003A54  500E               	movf	atoi@neg^0,w,c
  9911  003A56  100F               	iorwf	(atoi@neg+1)^0,w,c
  9912  003A58  A4D8               	btfss	status,2,c
  9913  003A5A  EF31  F01D         	goto	u5521
  9914  003A5E  EF33  F01D         	goto	u5520
  9915  003A62                     u5521:
  9916  003A62  EF41  F01D         	goto	l1072
  9917  003A66                     u5520:
  9918  003A66  C015  F00A         	movff	atoi@n,??_atoi
  9919  003A6A  C016  F00B         	movff	atoi@n+1,??_atoi+1
  9920  003A6E  1E0A               	comf	??_atoi^0,f,c
  9921  003A70  1E0B               	comf	(??_atoi+1)^0,f,c
  9922  003A72  4A0A               	infsnz	??_atoi^0,f,c
  9923  003A74  2A0B               	incf	(??_atoi+1)^0,f,c
  9924  003A76  C00A  F008         	movff	??_atoi,?_atoi
  9925  003A7A  C00B  F009         	movff	??_atoi+1,?_atoi+1
  9926  003A7E  EF45  F01D         	goto	l1075
  9927  003A82                     l1072:
  9928  003A82  C015  F008         	movff	atoi@n,?_atoi
  9929  003A86  C016  F009         	movff	atoi@n+1,?_atoi+1
  9930  003A8A                     l1075:
  9931  003A8A  0012               	return		;funcret
  9932  003A8C                     __end_of_atoi:
  9933                           	callstack 0
  9934                           
  9935 ;; *************** function _isspace *****************
  9936 ;; Defined at:
  9937 ;;		line 5 in file "C:\Program Files\Microchip\xc8\v2.32\pic\sources\c99\common\isspace.c"
  9938 ;; Parameters:    Size  Location     Type
  9939 ;;  c               2    0[COMRAM] int 
  9940 ;; Auto vars:     Size  Location     Type
  9941 ;;		None
  9942 ;; Return value:  Size  Location     Type
  9943 ;;                  2    0[COMRAM] int 
  9944 ;; Registers used:
  9945 ;;		wreg, status,2, status,0
  9946 ;; Tracked objects:
  9947 ;;		On entry : 0/0
  9948 ;;		On exit  : 0/0
  9949 ;;		Unchanged: 0/0
  9950 ;; Data sizes:     COMRAM   BANK0   BANK1   BANK2   BANK3   BANK4   BANK5
  9951 ;;      Params:         2       0       0       0       0       0       0
  9952 ;;      Locals:         1       0       0       0       0       0       0
  9953 ;;      Temps:          4       0       0       0       0       0       0
  9954 ;;      Totals:         7       0       0       0       0       0       0
  9955 ;;Total ram usage:        7 bytes
  9956 ;; Hardware stack levels used: 1
  9957 ;; This function calls:
  9958 ;;		Nothing
  9959 ;; This function is called by:
  9960 ;;		_atoi
  9961 ;;		___strtoxl
  9962 ;; This function uses a non-reentrant model
  9963 ;;
  9964                           
  9965                           	psect	text35
  9966  004694                     __ptext35:
  9967                           	callstack 0
  9968  004694                     _isspace:
  9969                           	callstack 28
  9970  004694  0E01               	movlw	1
  9971  004696  6E07               	movwf	_isspace$943^0,c
  9972  004698  0E20               	movlw	32
  9973  00469A  1801               	xorwf	isspace@c^0,w,c
  9974  00469C  1002               	iorwf	(isspace@c+1)^0,w,c
  9975  00469E  B4D8               	btfsc	status,2,c
  9976  0046A0  EF54  F023         	goto	u4851
  9977  0046A4  EF56  F023         	goto	u4850
  9978  0046A8                     u4851:
  9979  0046A8  EF6F  F023         	goto	l4048
  9980  0046AC                     u4850:
  9981  0046AC  0EF7               	movlw	247
  9982  0046AE  6E03               	movwf	??_isspace^0,c
  9983  0046B0  0EFF               	movlw	255
  9984  0046B2  6E04               	movwf	(??_isspace+1)^0,c
  9985  0046B4  C001  F005         	movff	isspace@c,??_isspace+2
  9986  0046B8  C002  F006         	movff	isspace@c+1,??_isspace+3
  9987  0046BC  5003               	movf	??_isspace^0,w,c
  9988  0046BE  2605               	addwf	(??_isspace+2)^0,f,c
  9989  0046C0  5004               	movf	(??_isspace+1)^0,w,c
  9990  0046C2  2206               	addwfc	(??_isspace+3)^0,f,c
  9991  0046C4  5006               	movf	(??_isspace+3)^0,w,c
  9992  0046C6  E109               	bnz	u4860
  9993  0046C8  0E05               	movlw	5
  9994  0046CA  5C05               	subwf	(??_isspace+2)^0,w,c
  9995  0046CC  A0D8               	btfss	status,0,c
  9996  0046CE  EF6B  F023         	goto	u4861
  9997  0046D2  EF6D  F023         	goto	u4860
  9998  0046D6                     u4861:
  9999  0046D6  EF6F  F023         	goto	l4048
 10000  0046DA                     u4860:
 10001  0046DA  0E00               	movlw	0
 10002  0046DC  6E07               	movwf	_isspace$943^0,c
 10003  0046DE                     l4048:
 10004  0046DE  C007  F001         	movff	_isspace$943,?_isspace
 10005  0046E2  6A02               	clrf	(?_isspace+1)^0,c
 10006  0046E4  0012               	return		;funcret
 10007  0046E6                     __end_of_isspace:
 10008                           	callstack 0
 10009                           
 10010 ;; *************** function _isdigit *****************
 10011 ;; Defined at:
 10012 ;;		line 5 in file "C:\Program Files\Microchip\xc8\v2.32\pic\sources\c99\common\isdigit.c"
 10013 ;; Parameters:    Size  Location     Type
 10014 ;;  c               2    0[COMRAM] int 
 10015 ;; Auto vars:     Size  Location     Type
 10016 ;;		None
 10017 ;; Return value:  Size  Location     Type
 10018 ;;                  2    0[COMRAM] int 
 10019 ;; Registers used:
 10020 ;;		wreg, status,2, status,0
 10021 ;; Tracked objects:
 10022 ;;		On entry : 0/0
 10023 ;;		On exit  : 0/0
 10024 ;;		Unchanged: 0/0
 10025 ;; Data sizes:     COMRAM   BANK0   BANK1   BANK2   BANK3   BANK4   BANK5
 10026 ;;      Params:         2       0       0       0       0       0       0
 10027 ;;      Locals:         0       0       0       0       0       0       0
 10028 ;;      Temps:          4       0       0       0       0       0       0
 10029 ;;      Totals:         6       0       0       0       0       0       0
 10030 ;;Total ram usage:        6 bytes
 10031 ;; Hardware stack levels used: 1
 10032 ;; This function calls:
 10033 ;;		Nothing
 10034 ;; This function is called by:
 10035 ;;		_vfpfcnvrt
 10036 ;;		_atoi
 10037 ;;		___strtoxl
 10038 ;; This function uses a non-reentrant model
 10039 ;;
 10040                           
 10041                           	psect	text36
 10042  004854                     __ptext36:
 10043                           	callstack 0
 10044  004854                     _isdigit:
 10045                           	callstack 28
 10046  004854  0ED0               	movlw	208
 10047  004856  6E03               	movwf	??_isdigit^0,c
 10048  004858  0EFF               	movlw	255
 10049  00485A  6E04               	movwf	(??_isdigit+1)^0,c
 10050  00485C  C001  F005         	movff	isdigit@c,??_isdigit+2
 10051  004860  C002  F006         	movff	isdigit@c+1,??_isdigit+3
 10052  004864  5003               	movf	??_isdigit^0,w,c
 10053  004866  2605               	addwf	(??_isdigit+2)^0,f,c
 10054  004868  5004               	movf	(??_isdigit+1)^0,w,c
 10055  00486A  2206               	addwfc	(??_isdigit+3)^0,f,c
 10056  00486C  5006               	movf	(??_isdigit+3)^0,w,c
 10057  00486E  E10A               	bnz	u4830
 10058  004870  0E0A               	movlw	10
 10059  004872  5C05               	subwf	(??_isdigit+2)^0,w,c
 10060  004874  A0D8               	btfss	status,0,c
 10061  004876  EF3F  F024         	goto	u4831
 10062  00487A  EF42  F024         	goto	u4830
 10063  00487E                     u4831:
 10064  00487E  0E01               	movlw	1
 10065  004880  EF43  F024         	goto	u4840
 10066  004884                     u4830:
 10067  004884  0E00               	movlw	0
 10068  004886                     u4840:
 10069  004886  6E01               	movwf	?_isdigit^0,c
 10070  004888  6A02               	clrf	(?_isdigit+1)^0,c
 10071  00488A  0012               	return		;funcret
 10072  00488C                     __end_of_isdigit:
 10073                           	callstack 0
 10074                           
 10075 ;; *************** function ___wmul *****************
 10076 ;; Defined at:
 10077 ;;		line 15 in file "C:\Program Files\Microchip\xc8\v2.32\pic\sources\c99\common\Umul16.c"
 10078 ;; Parameters:    Size  Location     Type
 10079 ;;  multiplier      2    0[COMRAM] unsigned int 
 10080 ;;  multiplicand    2    2[COMRAM] unsigned int 
 10081 ;; Auto vars:     Size  Location     Type
 10082 ;;  product         2    4[COMRAM] unsigned int 
 10083 ;; Return value:  Size  Location     Type
 10084 ;;                  2    0[COMRAM] unsigned int 
 10085 ;; Registers used:
 10086 ;;		wreg, status,2, status,0, prodl, prodh
 10087 ;; Tracked objects:
 10088 ;;		On entry : 0/0
 10089 ;;		On exit  : 0/0
 10090 ;;		Unchanged: 0/0
 10091 ;; Data sizes:     COMRAM   BANK0   BANK1   BANK2   BANK3   BANK4   BANK5
 10092 ;;      Params:         4       0       0       0       0       0       0
 10093 ;;      Locals:         2       0       0       0       0       0       0
 10094 ;;      Temps:          0       0       0       0       0       0       0
 10095 ;;      Totals:         6       0       0       0       0       0       0
 10096 ;;Total ram usage:        6 bytes
 10097 ;; Hardware stack levels used: 1
 10098 ;; This function calls:
 10099 ;;		Nothing
 10100 ;; This function is called by:
 10101 ;;		_atoi
 10102 ;; This function uses a non-reentrant model
 10103 ;;
 10104                           
 10105                           	psect	text37
 10106  004946                     __ptext37:
 10107                           	callstack 0
 10108  004946                     ___wmul:
 10109                           	callstack 26
 10110  004946  5001               	movf	___wmul@multiplier^0,w,c
 10111  004948  0203               	mulwf	___wmul@multiplicand^0,c
 10112  00494A  CFF3 F005          	movff	prodl,___wmul@product
 10113  00494E  CFF4 F006          	movff	prodh,___wmul@product+1
 10114  004952  5001               	movf	___wmul@multiplier^0,w,c
 10115  004954  0204               	mulwf	(___wmul@multiplicand+1)^0,c
 10116  004956  50F3               	movf	243,w,c
 10117  004958  2606               	addwf	(___wmul@product+1)^0,f,c
 10118  00495A  5002               	movf	(___wmul@multiplier+1)^0,w,c
 10119  00495C  0203               	mulwf	___wmul@multiplicand^0,c
 10120  00495E  50F3               	movf	243,w,c
 10121  004960  2606               	addwf	(___wmul@product+1)^0,f,c
 10122  004962  C005  F001         	movff	___wmul@product,?___wmul
 10123  004966  C006  F002         	movff	___wmul@product+1,?___wmul+1
 10124  00496A  0012               	return		;funcret
 10125  00496C                     __end_of___wmul:
 10126                           	callstack 0
 10127                           
 10128 ;; *************** function _pega_tecla *****************
 10129 ;; Defined at:
 10130 ;;		line 252 in file "main.c"
 10131 ;; Parameters:    Size  Location     Type
 10132 ;;		None
 10133 ;; Auto vars:     Size  Location     Type
 10134 ;;  tecla           1    1[COMRAM] unsigned char 
 10135 ;; Return value:  Size  Location     Type
 10136 ;;                  1    wreg      unsigned char 
 10137 ;; Registers used:
 10138 ;;		wreg, status,2, status,0, cstack
 10139 ;; Tracked objects:
 10140 ;;		On entry : 0/0
 10141 ;;		On exit  : 0/0
 10142 ;;		Unchanged: 0/0
 10143 ;; Data sizes:     COMRAM   BANK0   BANK1   BANK2   BANK3   BANK4   BANK5
 10144 ;;      Params:         0       0       0       0       0       0       0
 10145 ;;      Locals:         1       0       0       0       0       0       0
 10146 ;;      Temps:          0       0       0       0       0       0       0
 10147 ;;      Totals:         1       0       0       0       0       0       0
 10148 ;;Total ram usage:        1 bytes
 10149 ;; Hardware stack levels used: 1
 10150 ;; Hardware stack levels required when called: 1
 10151 ;; This function calls:
 10152 ;;		_verifica_linha_col
 10153 ;; This function is called by:
 10154 ;;		_main
 10155 ;; This function uses a non-reentrant model
 10156 ;;
 10157                           
 10158                           	psect	text38
 10159  00496C                     __ptext38:
 10160                           	callstack 0
 10161  00496C                     _pega_tecla:
 10162                           	callstack 29
 10163  00496C                     
 10164                           ;main.c: 253:     char tecla = 'n';
 10165  00496C  0E6E               	movlw	110
 10166  00496E  6E02               	movwf	pega_tecla@tecla^0,c
 10167                           
 10168                           ;main.c: 254:     while (tecla == 'n')
 10169  004970  EFBD  F024         	goto	l4854
 10170  004974                     l4852:
 10171                           
 10172                           ;main.c: 255:         tecla = verifica_linha_col();
 10173  004974  EC09  F019         	call	_verifica_linha_col	;wreg free
 10174  004978  6E02               	movwf	pega_tecla@tecla^0,c
 10175  00497A                     l4854:
 10176                           
 10177                           ;main.c: 254:     while (tecla == 'n')
 10178  00497A  0E6E               	movlw	110
 10179  00497C  1802               	xorwf	pega_tecla@tecla^0,w,c
 10180  00497E  B4D8               	btfsc	status,2,c
 10181  004980  EFC4  F024         	goto	u6461
 10182  004984  EFC6  F024         	goto	u6460
 10183  004988                     u6461:
 10184  004988  EFBA  F024         	goto	l4852
 10185  00498C                     u6460:
 10186  00498C                     
 10187                           ;main.c: 256:     return tecla;
 10188  00498C  5002               	movf	pega_tecla@tecla^0,w,c
 10189  00498E  0012               	return		;funcret
 10190  004990                     __end_of_pega_tecla:
 10191                           	callstack 0
 10192                           
 10193 ;; *************** function _verifica_linha_col *****************
 10194 ;; Defined at:
 10195 ;;		line 146 in file "main.c"
 10196 ;; Parameters:    Size  Location     Type
 10197 ;;		None
 10198 ;; Auto vars:     Size  Location     Type
 10199 ;;		None
 10200 ;; Return value:  Size  Location     Type
 10201 ;;                  1    wreg      unsigned char 
 10202 ;; Registers used:
 10203 ;;		wreg
 10204 ;; Tracked objects:
 10205 ;;		On entry : 0/0
 10206 ;;		On exit  : 0/0
 10207 ;;		Unchanged: 0/0
 10208 ;; Data sizes:     COMRAM   BANK0   BANK1   BANK2   BANK3   BANK4   BANK5
 10209 ;;      Params:         0       0       0       0       0       0       0
 10210 ;;      Locals:         0       0       0       0       0       0       0
 10211 ;;      Temps:          1       0       0       0       0       0       0
 10212 ;;      Totals:         1       0       0       0       0       0       0
 10213 ;;Total ram usage:        1 bytes
 10214 ;; Hardware stack levels used: 1
 10215 ;; This function calls:
 10216 ;;		Nothing
 10217 ;; This function is called by:
 10218 ;;		_pega_tecla
 10219 ;; This function uses a non-reentrant model
 10220 ;;
 10221                           
 10222                           	psect	text39
 10223  003212                     __ptext39:
 10224                           	callstack 0
 10225  003212                     _verifica_linha_col:
 10226                           	callstack 29
 10227  003212                     
 10228                           ;main.c: 147:     PORTBbits.RB0 = 0;
 10229  003212  9081               	bcf	129,0,c	;volatile
 10230                           
 10231                           ;main.c: 148:     PORTBbits.RB1 = 1;
 10232  003214  8281               	bsf	129,1,c	;volatile
 10233                           
 10234                           ;main.c: 149:     PORTBbits.RB2 = 1;
 10235  003216  8481               	bsf	129,2,c	;volatile
 10236                           
 10237                           ;main.c: 150:     PORTBbits.RB3 = 1;
 10238  003218  8681               	bsf	129,3,c	;volatile
 10239                           
 10240                           ;main.c: 152:     if (PORTBbits.RB4 == 0) {
 10241  00321A  B881               	btfsc	129,4,c	;volatile
 10242  00321C  EF12  F019         	goto	u5821
 10243  003220  EF14  F019         	goto	u5820
 10244  003224                     u5821:
 10245  003224  EF25  F019         	goto	l50
 10246  003228                     u5820:
 10247  003228                     
 10248                           ;main.c: 153:         _delay((unsigned long)((100)*(4000000/4000.0)));
 10249  003228  0E82               	movlw	130
 10250  00322A  6E01               	movwf	??_verifica_linha_col^0,c
 10251  00322C  0EDE               	movlw	222
 10252  00322E                     u6827:
 10253  00322E  2EE8               	decfsz	wreg,f,c
 10254  003230  D7FE               	bra	u6827
 10255  003232  2E01               	decfsz	??_verifica_linha_col^0,f,c
 10256  003234  D7FC               	bra	u6827
 10257  003236                     l51:
 10258  003236  A881               	btfss	129,4,c	;volatile
 10259  003238  EF20  F019         	goto	u5831
 10260  00323C  EF22  F019         	goto	u5830
 10261  003240                     u5831:
 10262  003240  EF1B  F019         	goto	l51
 10263  003244                     u5830:
 10264  003244                     
 10265                           ;main.c: 155:         return '7';
 10266  003244  0E37               	movlw	55
 10267  003246  EF9A  F01A         	goto	l54
 10268  00324A                     l50:
 10269                           
 10270                           ;main.c: 157:     if (PORTBbits.RB5 == 0) {
 10271  00324A  BA81               	btfsc	129,5,c	;volatile
 10272  00324C  EF2A  F019         	goto	u5841
 10273  003250  EF2C  F019         	goto	u5840
 10274  003254                     u5841:
 10275  003254  EF3D  F019         	goto	l55
 10276  003258                     u5840:
 10277  003258                     
 10278                           ;main.c: 158:         _delay((unsigned long)((100)*(4000000/4000.0)));
 10279  003258  0E82               	movlw	130
 10280  00325A  6E01               	movwf	??_verifica_linha_col^0,c
 10281  00325C  0EDE               	movlw	222
 10282  00325E                     u6837:
 10283  00325E  2EE8               	decfsz	wreg,f,c
 10284  003260  D7FE               	bra	u6837
 10285  003262  2E01               	decfsz	??_verifica_linha_col^0,f,c
 10286  003264  D7FC               	bra	u6837
 10287  003266                     l56:
 10288  003266  AA81               	btfss	129,5,c	;volatile
 10289  003268  EF38  F019         	goto	u5851
 10290  00326C  EF3A  F019         	goto	u5850
 10291  003270                     u5851:
 10292  003270  EF33  F019         	goto	l56
 10293  003274                     u5850:
 10294  003274                     
 10295                           ;main.c: 160:         return '8';
 10296  003274  0E38               	movlw	56
 10297  003276  EF9A  F01A         	goto	l54
 10298  00327A                     l55:
 10299                           
 10300                           ;main.c: 162:     if (PORTBbits.RB6 == 0) {
 10301  00327A  BC81               	btfsc	129,6,c	;volatile
 10302  00327C  EF42  F019         	goto	u5861
 10303  003280  EF44  F019         	goto	u5860
 10304  003284                     u5861:
 10305  003284  EF55  F019         	goto	l59
 10306  003288                     u5860:
 10307  003288                     
 10308                           ;main.c: 163:         _delay((unsigned long)((100)*(4000000/4000.0)));
 10309  003288  0E82               	movlw	130
 10310  00328A  6E01               	movwf	??_verifica_linha_col^0,c
 10311  00328C  0EDE               	movlw	222
 10312  00328E                     u6847:
 10313  00328E  2EE8               	decfsz	wreg,f,c
 10314  003290  D7FE               	bra	u6847
 10315  003292  2E01               	decfsz	??_verifica_linha_col^0,f,c
 10316  003294  D7FC               	bra	u6847
 10317  003296                     l60:
 10318  003296  AC81               	btfss	129,6,c	;volatile
 10319  003298  EF50  F019         	goto	u5871
 10320  00329C  EF52  F019         	goto	u5870
 10321  0032A0                     u5871:
 10322  0032A0  EF4B  F019         	goto	l60
 10323  0032A4                     u5870:
 10324  0032A4                     
 10325                           ;main.c: 165:         return '9';
 10326  0032A4  0E39               	movlw	57
 10327  0032A6  EF9A  F01A         	goto	l54
 10328  0032AA                     l59:
 10329                           
 10330                           ;main.c: 167:     if (PORTBbits.RB7 == 0) {
 10331  0032AA  BE81               	btfsc	129,7,c	;volatile
 10332  0032AC  EF5A  F019         	goto	u5881
 10333  0032B0  EF5C  F019         	goto	u5880
 10334  0032B4                     u5881:
 10335  0032B4  EF6D  F019         	goto	l63
 10336  0032B8                     u5880:
 10337  0032B8                     
 10338                           ;main.c: 168:         _delay((unsigned long)((100)*(4000000/4000.0)));
 10339  0032B8  0E82               	movlw	130
 10340  0032BA  6E01               	movwf	??_verifica_linha_col^0,c
 10341  0032BC  0EDE               	movlw	222
 10342  0032BE                     u6857:
 10343  0032BE  2EE8               	decfsz	wreg,f,c
 10344  0032C0  D7FE               	bra	u6857
 10345  0032C2  2E01               	decfsz	??_verifica_linha_col^0,f,c
 10346  0032C4  D7FC               	bra	u6857
 10347  0032C6                     l64:
 10348  0032C6  AE81               	btfss	129,7,c	;volatile
 10349  0032C8  EF68  F019         	goto	u5891
 10350  0032CC  EF6A  F019         	goto	u5890
 10351  0032D0                     u5891:
 10352  0032D0  EF63  F019         	goto	l64
 10353  0032D4                     u5890:
 10354  0032D4                     
 10355                           ;main.c: 170:         return '/';
 10356  0032D4  0E2F               	movlw	47
 10357  0032D6  EF9A  F01A         	goto	l54
 10358  0032DA                     l63:
 10359                           
 10360                           ;main.c: 172:     PORTBbits.RB0 = 1;
 10361  0032DA  8081               	bsf	129,0,c	;volatile
 10362                           
 10363                           ;main.c: 173:     PORTBbits.RB1 = 0;
 10364  0032DC  9281               	bcf	129,1,c	;volatile
 10365                           
 10366                           ;main.c: 174:     PORTBbits.RB2 = 1;
 10367  0032DE  8481               	bsf	129,2,c	;volatile
 10368                           
 10369                           ;main.c: 175:     PORTBbits.RB3 = 1;
 10370  0032E0  8681               	bsf	129,3,c	;volatile
 10371                           
 10372                           ;main.c: 177:     if (PORTBbits.RB4 == 0) {
 10373  0032E2  B881               	btfsc	129,4,c	;volatile
 10374  0032E4  EF76  F019         	goto	u5901
 10375  0032E8  EF78  F019         	goto	u5900
 10376  0032EC                     u5901:
 10377  0032EC  EF89  F019         	goto	l67
 10378  0032F0                     u5900:
 10379  0032F0                     
 10380                           ;main.c: 178:         _delay((unsigned long)((100)*(4000000/4000.0)));
 10381  0032F0  0E82               	movlw	130
 10382  0032F2  6E01               	movwf	??_verifica_linha_col^0,c
 10383  0032F4  0EDE               	movlw	222
 10384  0032F6                     u6867:
 10385  0032F6  2EE8               	decfsz	wreg,f,c
 10386  0032F8  D7FE               	bra	u6867
 10387  0032FA  2E01               	decfsz	??_verifica_linha_col^0,f,c
 10388  0032FC  D7FC               	bra	u6867
 10389  0032FE                     l68:
 10390  0032FE  A881               	btfss	129,4,c	;volatile
 10391  003300  EF84  F019         	goto	u5911
 10392  003304  EF86  F019         	goto	u5910
 10393  003308                     u5911:
 10394  003308  EF7F  F019         	goto	l68
 10395  00330C                     u5910:
 10396  00330C                     
 10397                           ;main.c: 180:         return '4';
 10398  00330C  0E34               	movlw	52
 10399  00330E  EF9A  F01A         	goto	l54
 10400  003312                     l67:
 10401                           
 10402                           ;main.c: 182:     if (PORTBbits.RB5 == 0) {
 10403  003312  BA81               	btfsc	129,5,c	;volatile
 10404  003314  EF8E  F019         	goto	u5921
 10405  003318  EF90  F019         	goto	u5920
 10406  00331C                     u5921:
 10407  00331C  EFA1  F019         	goto	l71
 10408  003320                     u5920:
 10409  003320                     
 10410                           ;main.c: 183:         _delay((unsigned long)((100)*(4000000/4000.0)));
 10411  003320  0E82               	movlw	130
 10412  003322  6E01               	movwf	??_verifica_linha_col^0,c
 10413  003324  0EDE               	movlw	222
 10414  003326                     u6877:
 10415  003326  2EE8               	decfsz	wreg,f,c
 10416  003328  D7FE               	bra	u6877
 10417  00332A  2E01               	decfsz	??_verifica_linha_col^0,f,c
 10418  00332C  D7FC               	bra	u6877
 10419  00332E                     l72:
 10420  00332E  AA81               	btfss	129,5,c	;volatile
 10421  003330  EF9C  F019         	goto	u5931
 10422  003334  EF9E  F019         	goto	u5930
 10423  003338                     u5931:
 10424  003338  EF97  F019         	goto	l72
 10425  00333C                     u5930:
 10426  00333C                     
 10427                           ;main.c: 185:         return '5';
 10428  00333C  0E35               	movlw	53
 10429  00333E  EF9A  F01A         	goto	l54
 10430  003342                     l71:
 10431                           
 10432                           ;main.c: 187:     if (PORTBbits.RB6 == 0) {
 10433  003342  BC81               	btfsc	129,6,c	;volatile
 10434  003344  EFA6  F019         	goto	u5941
 10435  003348  EFA8  F019         	goto	u5940
 10436  00334C                     u5941:
 10437  00334C  EFB9  F019         	goto	l75
 10438  003350                     u5940:
 10439  003350                     
 10440                           ;main.c: 188:         _delay((unsigned long)((100)*(4000000/4000.0)));
 10441  003350  0E82               	movlw	130
 10442  003352  6E01               	movwf	??_verifica_linha_col^0,c
 10443  003354  0EDE               	movlw	222
 10444  003356                     u6887:
 10445  003356  2EE8               	decfsz	wreg,f,c
 10446  003358  D7FE               	bra	u6887
 10447  00335A  2E01               	decfsz	??_verifica_linha_col^0,f,c
 10448  00335C  D7FC               	bra	u6887
 10449  00335E                     l76:
 10450  00335E  AC81               	btfss	129,6,c	;volatile
 10451  003360  EFB4  F019         	goto	u5951
 10452  003364  EFB6  F019         	goto	u5950
 10453  003368                     u5951:
 10454  003368  EFAF  F019         	goto	l76
 10455  00336C                     u5950:
 10456  00336C                     
 10457                           ;main.c: 190:         return '6';
 10458  00336C  0E36               	movlw	54
 10459  00336E  EF9A  F01A         	goto	l54
 10460  003372                     l75:
 10461                           
 10462                           ;main.c: 192:     if (PORTBbits.RB7 == 0) {
 10463  003372  BE81               	btfsc	129,7,c	;volatile
 10464  003374  EFBE  F019         	goto	u5961
 10465  003378  EFC0  F019         	goto	u5960
 10466  00337C                     u5961:
 10467  00337C  EFD1  F019         	goto	l79
 10468  003380                     u5960:
 10469  003380                     
 10470                           ;main.c: 193:         _delay((unsigned long)((100)*(4000000/4000.0)));
 10471  003380  0E82               	movlw	130
 10472  003382  6E01               	movwf	??_verifica_linha_col^0,c
 10473  003384  0EDE               	movlw	222
 10474  003386                     u6897:
 10475  003386  2EE8               	decfsz	wreg,f,c
 10476  003388  D7FE               	bra	u6897
 10477  00338A  2E01               	decfsz	??_verifica_linha_col^0,f,c
 10478  00338C  D7FC               	bra	u6897
 10479  00338E                     l80:
 10480  00338E  AE81               	btfss	129,7,c	;volatile
 10481  003390  EFCC  F019         	goto	u5971
 10482  003394  EFCE  F019         	goto	u5970
 10483  003398                     u5971:
 10484  003398  EFC7  F019         	goto	l80
 10485  00339C                     u5970:
 10486  00339C                     
 10487                           ;main.c: 195:         return 'x';
 10488  00339C  0E78               	movlw	120
 10489  00339E  EF9A  F01A         	goto	l54
 10490  0033A2                     l79:
 10491                           
 10492                           ;main.c: 198:     PORTBbits.RB0 = 1;
 10493  0033A2  8081               	bsf	129,0,c	;volatile
 10494                           
 10495                           ;main.c: 199:     PORTBbits.RB1 = 1;
 10496  0033A4  8281               	bsf	129,1,c	;volatile
 10497                           
 10498                           ;main.c: 200:     PORTBbits.RB2 = 0;
 10499  0033A6  9481               	bcf	129,2,c	;volatile
 10500                           
 10501                           ;main.c: 201:     PORTBbits.RB3 = 1;
 10502  0033A8  8681               	bsf	129,3,c	;volatile
 10503                           
 10504                           ;main.c: 203:     if (PORTBbits.RB4 == 0) {
 10505  0033AA  B881               	btfsc	129,4,c	;volatile
 10506  0033AC  EFDA  F019         	goto	u5981
 10507  0033B0  EFDC  F019         	goto	u5980
 10508  0033B4                     u5981:
 10509  0033B4  EFED  F019         	goto	l83
 10510  0033B8                     u5980:
 10511  0033B8                     
 10512                           ;main.c: 204:         _delay((unsigned long)((100)*(4000000/4000.0)));
 10513  0033B8  0E82               	movlw	130
 10514  0033BA  6E01               	movwf	??_verifica_linha_col^0,c
 10515  0033BC  0EDE               	movlw	222
 10516  0033BE                     u6907:
 10517  0033BE  2EE8               	decfsz	wreg,f,c
 10518  0033C0  D7FE               	bra	u6907
 10519  0033C2  2E01               	decfsz	??_verifica_linha_col^0,f,c
 10520  0033C4  D7FC               	bra	u6907
 10521  0033C6                     l84:
 10522  0033C6  A881               	btfss	129,4,c	;volatile
 10523  0033C8  EFE8  F019         	goto	u5991
 10524  0033CC  EFEA  F019         	goto	u5990
 10525  0033D0                     u5991:
 10526  0033D0  EFE3  F019         	goto	l84
 10527  0033D4                     u5990:
 10528  0033D4                     
 10529                           ;main.c: 206:         return '1';
 10530  0033D4  0E31               	movlw	49
 10531  0033D6  EF9A  F01A         	goto	l54
 10532  0033DA                     l83:
 10533                           
 10534                           ;main.c: 208:     if (PORTBbits.RB5 == 0) {
 10535  0033DA  BA81               	btfsc	129,5,c	;volatile
 10536  0033DC  EFF2  F019         	goto	u6001
 10537  0033E0  EFF4  F019         	goto	u6000
 10538  0033E4                     u6001:
 10539  0033E4  EF05  F01A         	goto	l87
 10540  0033E8                     u6000:
 10541  0033E8                     
 10542                           ;main.c: 209:         _delay((unsigned long)((100)*(4000000/4000.0)));
 10543  0033E8  0E82               	movlw	130
 10544  0033EA  6E01               	movwf	??_verifica_linha_col^0,c
 10545  0033EC  0EDE               	movlw	222
 10546  0033EE                     u6917:
 10547  0033EE  2EE8               	decfsz	wreg,f,c
 10548  0033F0  D7FE               	bra	u6917
 10549  0033F2  2E01               	decfsz	??_verifica_linha_col^0,f,c
 10550  0033F4  D7FC               	bra	u6917
 10551  0033F6                     l88:
 10552  0033F6  AA81               	btfss	129,5,c	;volatile
 10553  0033F8  EF00  F01A         	goto	u6011
 10554  0033FC  EF02  F01A         	goto	u6010
 10555  003400                     u6011:
 10556  003400  EFFB  F019         	goto	l88
 10557  003404                     u6010:
 10558  003404                     
 10559                           ;main.c: 211:         return '2';
 10560  003404  0E32               	movlw	50
 10561  003406  EF9A  F01A         	goto	l54
 10562  00340A                     l87:
 10563                           
 10564                           ;main.c: 213:     if (PORTBbits.RB6 == 0) {
 10565  00340A  BC81               	btfsc	129,6,c	;volatile
 10566  00340C  EF0A  F01A         	goto	u6021
 10567  003410  EF0C  F01A         	goto	u6020
 10568  003414                     u6021:
 10569  003414  EF1D  F01A         	goto	l91
 10570  003418                     u6020:
 10571  003418                     
 10572                           ;main.c: 214:         _delay((unsigned long)((100)*(4000000/4000.0)));
 10573  003418  0E82               	movlw	130
 10574  00341A  6E01               	movwf	??_verifica_linha_col^0,c
 10575  00341C  0EDE               	movlw	222
 10576  00341E                     u6927:
 10577  00341E  2EE8               	decfsz	wreg,f,c
 10578  003420  D7FE               	bra	u6927
 10579  003422  2E01               	decfsz	??_verifica_linha_col^0,f,c
 10580  003424  D7FC               	bra	u6927
 10581  003426                     l92:
 10582  003426  AC81               	btfss	129,6,c	;volatile
 10583  003428  EF18  F01A         	goto	u6031
 10584  00342C  EF1A  F01A         	goto	u6030
 10585  003430                     u6031:
 10586  003430  EF13  F01A         	goto	l92
 10587  003434                     u6030:
 10588  003434                     
 10589                           ;main.c: 216:         return '3';
 10590  003434  0E33               	movlw	51
 10591  003436  EF9A  F01A         	goto	l54
 10592  00343A                     l91:
 10593                           
 10594                           ;main.c: 218:     if (PORTBbits.RB7 == 0) {
 10595  00343A  BE81               	btfsc	129,7,c	;volatile
 10596  00343C  EF22  F01A         	goto	u6041
 10597  003440  EF24  F01A         	goto	u6040
 10598  003444                     u6041:
 10599  003444  EF35  F01A         	goto	l95
 10600  003448                     u6040:
 10601  003448                     
 10602                           ;main.c: 219:         _delay((unsigned long)((100)*(4000000/4000.0)));
 10603  003448  0E82               	movlw	130
 10604  00344A  6E01               	movwf	??_verifica_linha_col^0,c
 10605  00344C  0EDE               	movlw	222
 10606  00344E                     u6937:
 10607  00344E  2EE8               	decfsz	wreg,f,c
 10608  003450  D7FE               	bra	u6937
 10609  003452  2E01               	decfsz	??_verifica_linha_col^0,f,c
 10610  003454  D7FC               	bra	u6937
 10611  003456                     l96:
 10612  003456  AE81               	btfss	129,7,c	;volatile
 10613  003458  EF30  F01A         	goto	u6051
 10614  00345C  EF32  F01A         	goto	u6050
 10615  003460                     u6051:
 10616  003460  EF2B  F01A         	goto	l96
 10617  003464                     u6050:
 10618  003464                     
 10619                           ;main.c: 221:         return '-';
 10620  003464  0E2D               	movlw	45
 10621  003466  EF9A  F01A         	goto	l54
 10622  00346A                     l95:
 10623                           
 10624                           ;main.c: 224:     PORTBbits.RB0 = 1;
 10625  00346A  8081               	bsf	129,0,c	;volatile
 10626                           
 10627                           ;main.c: 225:     PORTBbits.RB1 = 1;
 10628  00346C  8281               	bsf	129,1,c	;volatile
 10629                           
 10630                           ;main.c: 226:     PORTBbits.RB2 = 1;
 10631  00346E  8481               	bsf	129,2,c	;volatile
 10632                           
 10633                           ;main.c: 227:     PORTBbits.RB3 = 0;
 10634  003470  9681               	bcf	129,3,c	;volatile
 10635                           
 10636                           ;main.c: 229:     if (PORTBbits.RB4 == 0) {
 10637  003472  B881               	btfsc	129,4,c	;volatile
 10638  003474  EF3E  F01A         	goto	u6061
 10639  003478  EF40  F01A         	goto	u6060
 10640  00347C                     u6061:
 10641  00347C  EF51  F01A         	goto	l99
 10642  003480                     u6060:
 10643  003480                     
 10644                           ;main.c: 230:         _delay((unsigned long)((100)*(4000000/4000.0)));
 10645  003480  0E82               	movlw	130
 10646  003482  6E01               	movwf	??_verifica_linha_col^0,c
 10647  003484  0EDE               	movlw	222
 10648  003486                     u6947:
 10649  003486  2EE8               	decfsz	wreg,f,c
 10650  003488  D7FE               	bra	u6947
 10651  00348A  2E01               	decfsz	??_verifica_linha_col^0,f,c
 10652  00348C  D7FC               	bra	u6947
 10653  00348E                     l100:
 10654  00348E  A881               	btfss	129,4,c	;volatile
 10655  003490  EF4C  F01A         	goto	u6071
 10656  003494  EF4E  F01A         	goto	u6070
 10657  003498                     u6071:
 10658  003498  EF47  F01A         	goto	l100
 10659  00349C                     u6070:
 10660  00349C                     
 10661                           ;main.c: 232:         return 'C';
 10662  00349C  0E43               	movlw	67
 10663  00349E  EF9A  F01A         	goto	l54
 10664  0034A2                     l99:
 10665                           
 10666                           ;main.c: 234:     if (PORTBbits.RB5 == 0) {
 10667  0034A2  BA81               	btfsc	129,5,c	;volatile
 10668  0034A4  EF56  F01A         	goto	u6081
 10669  0034A8  EF58  F01A         	goto	u6080
 10670  0034AC                     u6081:
 10671  0034AC  EF69  F01A         	goto	l103
 10672  0034B0                     u6080:
 10673  0034B0                     
 10674                           ;main.c: 235:         _delay((unsigned long)((100)*(4000000/4000.0)));
 10675  0034B0  0E82               	movlw	130
 10676  0034B2  6E01               	movwf	??_verifica_linha_col^0,c
 10677  0034B4  0EDE               	movlw	222
 10678  0034B6                     u6957:
 10679  0034B6  2EE8               	decfsz	wreg,f,c
 10680  0034B8  D7FE               	bra	u6957
 10681  0034BA  2E01               	decfsz	??_verifica_linha_col^0,f,c
 10682  0034BC  D7FC               	bra	u6957
 10683  0034BE                     l104:
 10684  0034BE  AA81               	btfss	129,5,c	;volatile
 10685  0034C0  EF64  F01A         	goto	u6091
 10686  0034C4  EF66  F01A         	goto	u6090
 10687  0034C8                     u6091:
 10688  0034C8  EF5F  F01A         	goto	l104
 10689  0034CC                     u6090:
 10690  0034CC                     
 10691                           ;main.c: 237:         return '0';
 10692  0034CC  0E30               	movlw	48
 10693  0034CE  EF9A  F01A         	goto	l54
 10694  0034D2                     l103:
 10695                           
 10696                           ;main.c: 239:     if (PORTBbits.RB6 == 0) {
 10697  0034D2  BC81               	btfsc	129,6,c	;volatile
 10698  0034D4  EF6E  F01A         	goto	u6101
 10699  0034D8  EF70  F01A         	goto	u6100
 10700  0034DC                     u6101:
 10701  0034DC  EF81  F01A         	goto	l107
 10702  0034E0                     u6100:
 10703  0034E0                     
 10704                           ;main.c: 240:         _delay((unsigned long)((100)*(4000000/4000.0)));
 10705  0034E0  0E82               	movlw	130
 10706  0034E2  6E01               	movwf	??_verifica_linha_col^0,c
 10707  0034E4  0EDE               	movlw	222
 10708  0034E6                     u6967:
 10709  0034E6  2EE8               	decfsz	wreg,f,c
 10710  0034E8  D7FE               	bra	u6967
 10711  0034EA  2E01               	decfsz	??_verifica_linha_col^0,f,c
 10712  0034EC  D7FC               	bra	u6967
 10713  0034EE                     l108:
 10714  0034EE  AC81               	btfss	129,6,c	;volatile
 10715  0034F0  EF7C  F01A         	goto	u6111
 10716  0034F4  EF7E  F01A         	goto	u6110
 10717  0034F8                     u6111:
 10718  0034F8  EF77  F01A         	goto	l108
 10719  0034FC                     u6110:
 10720  0034FC                     
 10721                           ;main.c: 242:         return '=';
 10722  0034FC  0E3D               	movlw	61
 10723  0034FE  EF9A  F01A         	goto	l54
 10724  003502                     l107:
 10725                           
 10726                           ;main.c: 244:     if (PORTBbits.RB7 == 0) {
 10727  003502  BE81               	btfsc	129,7,c	;volatile
 10728  003504  EF86  F01A         	goto	u6121
 10729  003508  EF88  F01A         	goto	u6120
 10730  00350C                     u6121:
 10731  00350C  EF99  F01A         	goto	l4686
 10732  003510                     u6120:
 10733  003510                     
 10734                           ;main.c: 245:         _delay((unsigned long)((100)*(4000000/4000.0)));
 10735  003510  0E82               	movlw	130
 10736  003512  6E01               	movwf	??_verifica_linha_col^0,c
 10737  003514  0EDE               	movlw	222
 10738  003516                     u6977:
 10739  003516  2EE8               	decfsz	wreg,f,c
 10740  003518  D7FE               	bra	u6977
 10741  00351A  2E01               	decfsz	??_verifica_linha_col^0,f,c
 10742  00351C  D7FC               	bra	u6977
 10743  00351E                     l112:
 10744  00351E  AE81               	btfss	129,7,c	;volatile
 10745  003520  EF94  F01A         	goto	u6131
 10746  003524  EF96  F01A         	goto	u6130
 10747  003528                     u6131:
 10748  003528  EF8F  F01A         	goto	l112
 10749  00352C                     u6130:
 10750  00352C                     
 10751                           ;main.c: 247:         return '+';
 10752  00352C  0E2B               	movlw	43
 10753  00352E  EF9A  F01A         	goto	l54
 10754  003532                     l4686:
 10755                           
 10756                           ;main.c: 249:     return 'n';
 10757  003532  0E6E               	movlw	110
 10758  003534                     l54:
 10759  003534  0012               	return		;funcret
 10760  003536                     __end_of_verifica_linha_col:
 10761                           	callstack 0
 10762                           
 10763 ;; *************** function _initLCD *****************
 10764 ;; Defined at:
 10765 ;;		line 107 in file "main.c"
 10766 ;; Parameters:    Size  Location     Type
 10767 ;;		None
 10768 ;; Auto vars:     Size  Location     Type
 10769 ;;		None
 10770 ;; Return value:  Size  Location     Type
 10771 ;;                  1    wreg      void 
 10772 ;; Registers used:
 10773 ;;		wreg, fsr2l, fsr2h, status,2, status,0, cstack
 10774 ;; Tracked objects:
 10775 ;;		On entry : 0/0
 10776 ;;		On exit  : 0/0
 10777 ;;		Unchanged: 0/0
 10778 ;; Data sizes:     COMRAM   BANK0   BANK1   BANK2   BANK3   BANK4   BANK5
 10779 ;;      Params:         0       0       0       0       0       0       0
 10780 ;;      Locals:         0       0       0       0       0       0       0
 10781 ;;      Temps:          0       0       0       0       0       0       0
 10782 ;;      Totals:         0       0       0       0       0       0       0
 10783 ;;Total ram usage:        0 bytes
 10784 ;; Hardware stack levels used: 1
 10785 ;; Hardware stack levels required when called: 2
 10786 ;; This function calls:
 10787 ;;		_pulseE
 10788 ;;		_sendCMD
 10789 ;;		_waitIdle
 10790 ;; This function is called by:
 10791 ;;		_main
 10792 ;; This function uses a non-reentrant model
 10793 ;;
 10794                           
 10795                           	psect	text40
 10796  0044B0                     __ptext40:
 10797                           	callstack 0
 10798  0044B0                     _initLCD:
 10799                           	callstack 28
 10800  0044B0                     
 10801                           ;main.c: 108:     TRISD = 0;
 10802  0044B0  0E00               	movlw	0
 10803  0044B2  6E95               	movwf	149,c	;volatile
 10804  0044B4                     
 10805                           ;main.c: 110:     pLCD = (struct tDisplayPort *) &PORTD;
 10806  0044B4  0E83               	movlw	131
 10807  0044B6  0100               	movlb	0	; () banked
 10808  0044B8  6FF2               	movwf	_pLCD& (0+255),b
 10809  0044BA  0E0F               	movlw	15
 10810  0044BC  6FF3               	movwf	(_pLCD+1)& (0+255),b
 10811  0044BE                     
 10812                           ; BSR set to: 0
 10813                           ;main.c: 111:     pLCD ->E = 0;
 10814  0044BE  C0F2  FFD9         	movff	_pLCD,fsr2l
 10815  0044C2  C0F3  FFDA         	movff	_pLCD+1,fsr2h
 10816  0044C6  94DF               	bcf	indf2,2,c
 10817  0044C8                     
 10818                           ; BSR set to: 0
 10819                           ;main.c: 112:     pLCD ->RS = 0;
 10820  0044C8  C0F2  FFD9         	movff	_pLCD,fsr2l
 10821  0044CC  C0F3  FFDA         	movff	_pLCD+1,fsr2h
 10822  0044D0  90DF               	bcf	indf2,0,c
 10823  0044D2                     
 10824                           ; BSR set to: 0
 10825                           ;main.c: 113:     pLCD ->R_W = 0;
 10826  0044D2  C0F2  FFD9         	movff	_pLCD,fsr2l
 10827  0044D6  C0F3  FFDA         	movff	_pLCD+1,fsr2h
 10828  0044DA  92DF               	bcf	indf2,1,c
 10829  0044DC                     
 10830                           ; BSR set to: 0
 10831                           ;main.c: 114:     TRISD = 0;
 10832  0044DC  0E00               	movlw	0
 10833  0044DE  6E95               	movwf	149,c	;volatile
 10834  0044E0                     
 10835                           ; BSR set to: 0
 10836                           ;main.c: 116:     pLCD->NData = 2;
 10837  0044E0  C0F2  FFD9         	movff	_pLCD,fsr2l
 10838  0044E4  C0F3  FFDA         	movff	_pLCD+1,fsr2h
 10839  0044E8  50DF               	movf	223,w,c
 10840  0044EA  0B0F               	andlw	-241
 10841  0044EC  0920               	iorlw	32
 10842  0044EE  6EDF               	movwf	223,c
 10843  0044F0                     
 10844                           ; BSR set to: 0
 10845                           ;main.c: 117:     pulseE();
 10846  0044F0  EC7A  F024         	call	_pulseE	;wreg free
 10847  0044F4                     
 10848                           ;main.c: 118:     waitIdle();
 10849  0044F4  EC66  F020         	call	_waitIdle	;wreg free
 10850  0044F8                     
 10851                           ;main.c: 119:     sendCMD(0x28);
 10852  0044F8  0E28               	movlw	40
 10853  0044FA  ECED  F021         	call	_sendCMD
 10854  0044FE                     
 10855                           ;main.c: 120:     sendCMD(0x06);
 10856  0044FE  0E06               	movlw	6
 10857  004500  ECED  F021         	call	_sendCMD
 10858  004504                     
 10859                           ;main.c: 121:     sendCMD(0x0E);
 10860  004504  0E0E               	movlw	14
 10861  004506  ECED  F021         	call	_sendCMD
 10862  00450A                     
 10863                           ;main.c: 122:     sendCMD(0X18);
 10864  00450A  0E18               	movlw	24
 10865  00450C  ECED  F021         	call	_sendCMD
 10866  004510                     
 10867                           ;main.c: 123:     sendCMD(0x01);
 10868  004510  0E01               	movlw	1
 10869  004512  ECED  F021         	call	_sendCMD
 10870  004516  0012               	return		;funcret
 10871  004518                     __end_of_initLCD:
 10872                           	callstack 0
 10873                           
 10874 ;; *************** function _sendCMD *****************
 10875 ;; Defined at:
 10876 ;;		line 81 in file "main.c"
 10877 ;; Parameters:    Size  Location     Type
 10878 ;;  dado            1    wreg     unsigned char 
 10879 ;; Auto vars:     Size  Location     Type
 10880 ;;  dado            1    3[COMRAM] unsigned char 
 10881 ;; Return value:  Size  Location     Type
 10882 ;;                  1    wreg      void 
 10883 ;; Registers used:
 10884 ;;		wreg, fsr2l, fsr2h, status,2, status,0, cstack
 10885 ;; Tracked objects:
 10886 ;;		On entry : 0/0
 10887 ;;		On exit  : 0/0
 10888 ;;		Unchanged: 0/0
 10889 ;; Data sizes:     COMRAM   BANK0   BANK1   BANK2   BANK3   BANK4   BANK5
 10890 ;;      Params:         0       0       0       0       0       0       0
 10891 ;;      Locals:         1       0       0       0       0       0       0
 10892 ;;      Temps:          1       0       0       0       0       0       0
 10893 ;;      Totals:         2       0       0       0       0       0       0
 10894 ;;Total ram usage:        2 bytes
 10895 ;; Hardware stack levels used: 1
 10896 ;; Hardware stack levels required when called: 1
 10897 ;; This function calls:
 10898 ;;		_pulseE
 10899 ;;		_waitIdle
 10900 ;; This function is called by:
 10901 ;;		_initLCD
 10902 ;;		_main
 10903 ;;		_gotoXY
 10904 ;; This function uses a non-reentrant model
 10905 ;;
 10906                           
 10907                           	psect	text41
 10908  0043DA                     __ptext41:
 10909                           	callstack 0
 10910  0043DA                     _sendCMD:
 10911                           	callstack 29
 10912                           
 10913                           ;incstack = 0
 10914                           ;sendCMD@dado stored from wreg
 10915  0043DA  6E04               	movwf	sendCMD@dado^0,c
 10916  0043DC                     
 10917                           ;main.c: 82:     pLCD ->RS = 0;
 10918  0043DC  C0F2  FFD9         	movff	_pLCD,fsr2l
 10919  0043E0  C0F3  FFDA         	movff	_pLCD+1,fsr2h
 10920  0043E4  0100               	movlb	0	; () banked
 10921  0043E6  90DF               	bcf	indf2,0,c
 10922                           
 10923                           ;main.c: 83:     pLCD ->R_W = 0;
 10924  0043E8  C0F2  FFD9         	movff	_pLCD,fsr2l
 10925  0043EC  C0F3  FFDA         	movff	_pLCD+1,fsr2h
 10926  0043F0  92DF               	bcf	indf2,1,c
 10927  0043F2                     
 10928                           ; BSR set to: 0
 10929                           ;main.c: 84:     pLCD ->NData = dado >> 4;
 10930  0043F2  C004  F003         	movff	sendCMD@dado,??_sendCMD
 10931  0043F6  3A03               	swapf	??_sendCMD^0,f,c
 10932  0043F8  0E0F               	movlw	15
 10933  0043FA  1603               	andwf	??_sendCMD^0,f,c
 10934  0043FC  C0F2  FFD9         	movff	_pLCD,fsr2l
 10935  004400  C0F3  FFDA         	movff	_pLCD+1,fsr2h
 10936  004404  3A03               	swapf	??_sendCMD^0,f,c
 10937  004406  50DF               	movf	223,w,c
 10938  004408  1803               	xorwf	??_sendCMD^0,w,c
 10939  00440A  0B0F               	andlw	-241
 10940  00440C  1803               	xorwf	??_sendCMD^0,w,c
 10941  00440E  6EDF               	movwf	223,c
 10942  004410                     
 10943                           ; BSR set to: 0
 10944                           ;main.c: 85:     pulseE();
 10945  004410  EC7A  F024         	call	_pulseE	;wreg free
 10946  004414                     
 10947                           ;main.c: 87:     pLCD -> RS = 0;
 10948  004414  C0F2  FFD9         	movff	_pLCD,fsr2l
 10949  004418  C0F3  FFDA         	movff	_pLCD+1,fsr2h
 10950  00441C  0100               	movlb	0	; () banked
 10951  00441E  90DF               	bcf	indf2,0,c
 10952  004420                     
 10953                           ; BSR set to: 0
 10954                           ;main.c: 88:     pLCD->NData = dado & 0x0F;
 10955  004420  C004  F003         	movff	sendCMD@dado,??_sendCMD
 10956  004424  0E0F               	movlw	15
 10957  004426  1603               	andwf	??_sendCMD^0,f,c
 10958  004428  C0F2  FFD9         	movff	_pLCD,fsr2l
 10959  00442C  C0F3  FFDA         	movff	_pLCD+1,fsr2h
 10960  004430  3A03               	swapf	??_sendCMD^0,f,c
 10961  004432  50DF               	movf	223,w,c
 10962  004434  1803               	xorwf	??_sendCMD^0,w,c
 10963  004436  0B0F               	andlw	-241
 10964  004438  1803               	xorwf	??_sendCMD^0,w,c
 10965  00443A  6EDF               	movwf	223,c
 10966                           
 10967                           ;main.c: 89:     pulseE();
 10968  00443C  EC7A  F024         	call	_pulseE	;wreg free
 10969  004440                     
 10970                           ;main.c: 90:     waitIdle();
 10971  004440  EC66  F020         	call	_waitIdle	;wreg free
 10972  004444  0012               	return		;funcret
 10973  004446                     __end_of_sendCMD:
 10974                           	callstack 0
 10975                           
 10976 ;; *************** function _waitIdle *****************
 10977 ;; Defined at:
 10978 ;;		line 55 in file "main.c"
 10979 ;; Parameters:    Size  Location     Type
 10980 ;;		None
 10981 ;; Auto vars:     Size  Location     Type
 10982 ;;  aux             1    1[COMRAM] unsigned char 
 10983 ;; Return value:  Size  Location     Type
 10984 ;;                  1    wreg      void 
 10985 ;; Registers used:
 10986 ;;		wreg, fsr2l, fsr2h, status,2, status,0
 10987 ;; Tracked objects:
 10988 ;;		On entry : 0/0
 10989 ;;		On exit  : 0/0
 10990 ;;		Unchanged: 0/0
 10991 ;; Data sizes:     COMRAM   BANK0   BANK1   BANK2   BANK3   BANK4   BANK5
 10992 ;;      Params:         0       0       0       0       0       0       0
 10993 ;;      Locals:         1       0       0       0       0       0       0
 10994 ;;      Temps:          1       0       0       0       0       0       0
 10995 ;;      Totals:         2       0       0       0       0       0       0
 10996 ;;Total ram usage:        2 bytes
 10997 ;; Hardware stack levels used: 1
 10998 ;; This function calls:
 10999 ;;		Nothing
 11000 ;; This function is called by:
 11001 ;;		_sendCMD
 11002 ;;		_sendData
 11003 ;;		_initLCD
 11004 ;; This function uses a non-reentrant model
 11005 ;;
 11006                           
 11007                           	psect	text42
 11008  0040CC                     __ptext42:
 11009                           	callstack 0
 11010  0040CC                     _waitIdle:
 11011                           	callstack 29
 11012  0040CC                     
 11013                           ;main.c: 56:     char aux = 0xFF;
 11014  0040CC  6802               	setf	waitIdle@aux^0,c
 11015  0040CE                     
 11016                           ;main.c: 57:     TRISD = 0xF0;
 11017  0040CE  0EF0               	movlw	240
 11018  0040D0  6E95               	movwf	149,c	;volatile
 11019  0040D2                     
 11020                           ;main.c: 58:     pLCD->RS = 0;
 11021  0040D2  C0F2  FFD9         	movff	_pLCD,fsr2l
 11022  0040D6  C0F3  FFDA         	movff	_pLCD+1,fsr2h
 11023  0040DA  0100               	movlb	0	; () banked
 11024  0040DC  90DF               	bcf	indf2,0,c
 11025  0040DE                     
 11026                           ; BSR set to: 0
 11027                           ;main.c: 59:     pLCD->R_W = 1;
 11028  0040DE  C0F2  FFD9         	movff	_pLCD,fsr2l
 11029  0040E2  C0F3  FFDA         	movff	_pLCD+1,fsr2h
 11030  0040E6  82DF               	bsf	indf2,1,c
 11031                           
 11032                           ;main.c: 61:     while (aux & 0x80) {
 11033  0040E8  EFB0  F020         	goto	l3242
 11034  0040EC                     l3224:
 11035                           
 11036                           ; BSR set to: 0
 11037                           ;main.c: 62:         pLCD->E = 1;
 11038  0040EC  C0F2  FFD9         	movff	_pLCD,fsr2l
 11039  0040F0  C0F3  FFDA         	movff	_pLCD+1,fsr2h
 11040  0040F4  84DF               	bsf	indf2,2,c
 11041  0040F6                     
 11042                           ; BSR set to: 0
 11043                           ;main.c: 63:         _delay((unsigned long)((500)*(4000000/4000000.0)));
 11044  0040F6  0EA6               	movlw	166
 11045  0040F8                     u6987:
 11046  0040F8  2EE8               	decfsz	wreg,f,c
 11047  0040FA  D7FE               	bra	u6987
 11048  0040FC  D000               	nop2	
 11049  0040FE                     
 11050                           ;main.c: 65:         pLCD->E = 0;
 11051  0040FE  C0F2  FFD9         	movff	_pLCD,fsr2l
 11052  004102  C0F3  FFDA         	movff	_pLCD+1,fsr2h
 11053  004106  0100               	movlb	0	; () banked
 11054  004108  94DF               	bcf	indf2,2,c
 11055                           
 11056                           ;main.c: 66:         _delay((unsigned long)((500)*(4000000/4000000.0)));
 11057  00410A  0EA6               	movlw	166
 11058  00410C                     u6997:
 11059  00410C  2EE8               	decfsz	wreg,f,c
 11060  00410E  D7FE               	bra	u6997
 11061  004110  D000               	nop2	
 11062  004112                     
 11063                           ;main.c: 68:         aux = (pLCD->NData) << 4;
 11064  004112  C0F2  FFD9         	movff	_pLCD,fsr2l
 11065  004116  C0F3  FFDA         	movff	_pLCD+1,fsr2h
 11066  00411A  0100               	movlb	0	; () banked
 11067  00411C  38DF               	swapf	223,w,c
 11068  00411E  0B0F               	andlw	15
 11069  004120  6E01               	movwf	??_waitIdle^0,c
 11070  004122  3801               	swapf	??_waitIdle^0,w,c
 11071  004124  0BF0               	andlw	240
 11072  004126  6E02               	movwf	waitIdle@aux^0,c
 11073  004128                     
 11074                           ; BSR set to: 0
 11075                           ;main.c: 69:         pLCD->E = 1;
 11076  004128  C0F2  FFD9         	movff	_pLCD,fsr2l
 11077  00412C  C0F3  FFDA         	movff	_pLCD+1,fsr2h
 11078  004130  84DF               	bsf	indf2,2,c
 11079  004132                     
 11080                           ; BSR set to: 0
 11081                           ;main.c: 70:         _delay((unsigned long)((500)*(4000000/4000000.0)));
 11082  004132  0EA6               	movlw	166
 11083  004134                     u7007:
 11084  004134  2EE8               	decfsz	wreg,f,c
 11085  004136  D7FE               	bra	u7007
 11086  004138  D000               	nop2	
 11087  00413A                     
 11088                           ;main.c: 71:         pLCD->E = 0;
 11089  00413A  C0F2  FFD9         	movff	_pLCD,fsr2l
 11090  00413E  C0F3  FFDA         	movff	_pLCD+1,fsr2h
 11091  004142  0100               	movlb	0	; () banked
 11092  004144  94DF               	bcf	indf2,2,c
 11093  004146                     
 11094                           ; BSR set to: 0
 11095                           ;main.c: 72:         _delay((unsigned long)((500)*(4000000/4000000.0)));
 11096  004146  0EA6               	movlw	166
 11097  004148                     u7017:
 11098  004148  2EE8               	decfsz	wreg,f,c
 11099  00414A  D7FE               	bra	u7017
 11100  00414C  D000               	nop2	
 11101  00414E                     
 11102                           ;main.c: 73:         aux = aux | (pLCD->NData);
 11103  00414E  C0F2  FFD9         	movff	_pLCD,fsr2l
 11104  004152  C0F3  FFDA         	movff	_pLCD+1,fsr2h
 11105  004156  0100               	movlb	0	; () banked
 11106  004158  38DF               	swapf	223,w,c
 11107  00415A  0B0F               	andlw	15
 11108  00415C  1002               	iorwf	waitIdle@aux^0,w,c
 11109  00415E  6E02               	movwf	waitIdle@aux^0,c
 11110  004160                     l3242:
 11111                           
 11112                           ; BSR set to: 0
 11113                           ;main.c: 61:     while (aux & 0x80) {
 11114  004160  BE02               	btfsc	waitIdle@aux^0,7,c
 11115  004162  EFB5  F020         	goto	u3391
 11116  004166  EFB7  F020         	goto	u3390
 11117  00416A                     u3391:
 11118  00416A  EF76  F020         	goto	l3224
 11119  00416E                     u3390:
 11120  00416E                     
 11121                           ; BSR set to: 0
 11122                           ;main.c: 75:     pLCD->R_W = 0;
 11123  00416E  C0F2  FFD9         	movff	_pLCD,fsr2l
 11124  004172  C0F3  FFDA         	movff	_pLCD+1,fsr2h
 11125  004176  92DF               	bcf	indf2,1,c
 11126  004178                     
 11127                           ; BSR set to: 0
 11128                           ;main.c: 76:     TRISD = 0x00;
 11129  004178  0E00               	movlw	0
 11130  00417A  6E95               	movwf	149,c	;volatile
 11131  00417C                     
 11132                           ; BSR set to: 0
 11133  00417C  0012               	return		;funcret
 11134  00417E                     __end_of_waitIdle:
 11135                           	callstack 0
 11136                           
 11137 ;; *************** function _pulseE *****************
 11138 ;; Defined at:
 11139 ;;		line 47 in file "main.c"
 11140 ;; Parameters:    Size  Location     Type
 11141 ;;		None
 11142 ;; Auto vars:     Size  Location     Type
 11143 ;;		None
 11144 ;; Return value:  Size  Location     Type
 11145 ;;                  1    wreg      void 
 11146 ;; Registers used:
 11147 ;;		wreg, fsr2l, fsr2h
 11148 ;; Tracked objects:
 11149 ;;		On entry : 0/0
 11150 ;;		On exit  : 0/0
 11151 ;;		Unchanged: 0/0
 11152 ;; Data sizes:     COMRAM   BANK0   BANK1   BANK2   BANK3   BANK4   BANK5
 11153 ;;      Params:         0       0       0       0       0       0       0
 11154 ;;      Locals:         0       0       0       0       0       0       0
 11155 ;;      Temps:          0       0       0       0       0       0       0
 11156 ;;      Totals:         0       0       0       0       0       0       0
 11157 ;;Total ram usage:        0 bytes
 11158 ;; Hardware stack levels used: 1
 11159 ;; This function calls:
 11160 ;;		Nothing
 11161 ;; This function is called by:
 11162 ;;		_sendCMD
 11163 ;;		_sendData
 11164 ;;		_initLCD
 11165 ;; This function uses a non-reentrant model
 11166 ;;
 11167                           
 11168                           	psect	text43
 11169  0048F4                     __ptext43:
 11170                           	callstack 0
 11171  0048F4                     _pulseE:
 11172                           	callstack 29
 11173  0048F4                     
 11174                           ;main.c: 48:     _delay((unsigned long)((500)*(4000000/4000000.0)));
 11175  0048F4  0EA6               	movlw	166
 11176  0048F6                     u7027:
 11177  0048F6  2EE8               	decfsz	wreg,f,c
 11178  0048F8  D7FE               	bra	u7027
 11179  0048FA  D000               	nop2	
 11180  0048FC                     
 11181                           ;main.c: 49:     pLCD->E = 1;
 11182  0048FC  C0F2  FFD9         	movff	_pLCD,fsr2l
 11183  004900  C0F3  FFDA         	movff	_pLCD+1,fsr2h
 11184  004904  0100               	movlb	0	; () banked
 11185  004906  84DF               	bsf	indf2,2,c
 11186  004908                     
 11187                           ; BSR set to: 0
 11188                           ;main.c: 50:     _delay((unsigned long)((500)*(4000000/4000000.0)));
 11189  004908  0EA6               	movlw	166
 11190  00490A                     u7037:
 11191  00490A  2EE8               	decfsz	wreg,f,c
 11192  00490C  D7FE               	bra	u7037
 11193  00490E  D000               	nop2	
 11194                           
 11195                           ;main.c: 51:     pLCD->E = 0;
 11196  004910  C0F2  FFD9         	movff	_pLCD,fsr2l
 11197  004914  C0F3  FFDA         	movff	_pLCD+1,fsr2h
 11198  004918  0100               	movlb	0	; () banked
 11199  00491A  94DF               	bcf	indf2,2,c
 11200  00491C                     
 11201                           ; BSR set to: 0
 11202  00491C  0012               	return		;funcret
 11203  00491E                     __end_of_pulseE:
 11204                           	callstack 0
 11205                           
 11206 ;; *************** function ___xxtofl *****************
 11207 ;; Defined at:
 11208 ;;		line 10 in file "C:\Program Files\Microchip\xc8\v2.32\pic\sources\c99\common\xxtofl.c"
 11209 ;; Parameters:    Size  Location     Type
 11210 ;;  sign            1    wreg     unsigned char 
 11211 ;;  val             4   56[COMRAM] long 
 11212 ;; Auto vars:     Size  Location     Type
 11213 ;;  sign            1   64[COMRAM] unsigned char 
 11214 ;;  arg             4   66[COMRAM] unsigned long 
 11215 ;;  exp             1   65[COMRAM] unsigned char 
 11216 ;; Return value:  Size  Location     Type
 11217 ;;                  4   56[COMRAM] unsigned char 
 11218 ;; Registers used:
 11219 ;;		wreg, status,2, status,0
 11220 ;; Tracked objects:
 11221 ;;		On entry : 0/0
 11222 ;;		On exit  : 0/0
 11223 ;;		Unchanged: 0/0
 11224 ;; Data sizes:     COMRAM   BANK0   BANK1   BANK2   BANK3   BANK4   BANK5
 11225 ;;      Params:         4       0       0       0       0       0       0
 11226 ;;      Locals:         6       0       0       0       0       0       0
 11227 ;;      Temps:          4       0       0       0       0       0       0
 11228 ;;      Totals:        14       0       0       0       0       0       0
 11229 ;;Total ram usage:       14 bytes
 11230 ;; Hardware stack levels used: 1
 11231 ;; This function calls:
 11232 ;;		Nothing
 11233 ;; This function is called by:
 11234 ;;		_main
 11235 ;; This function uses a non-reentrant model
 11236 ;;
 11237                           
 11238                           	psect	text44
 11239  003748                     __ptext44:
 11240                           	callstack 0
 11241  003748                     ___xxtofl:
 11242                           	callstack 30
 11243                           
 11244                           ; BSR set to: 0
 11245                           ;incstack = 0
 11246                           ;___xxtofl@sign stored from wreg
 11247  003748  6E41               	movwf	___xxtofl@sign^0,c
 11248  00374A  5041               	movf	___xxtofl@sign^0,w,c
 11249  00374C  B4D8               	btfsc	status,2,c
 11250  00374E  EFAB  F01B         	goto	u6471
 11251  003752  EFAD  F01B         	goto	u6470
 11252  003756                     u6471:
 11253  003756  EFCF  F01B         	goto	l823
 11254  00375A                     u6470:
 11255  00375A  BE3C               	btfsc	(___xxtofl@val+3)^0,7,c
 11256  00375C  EFB4  F01B         	goto	u6480
 11257  003760  EFB2  F01B         	goto	u6481
 11258  003764                     u6481:
 11259  003764  EFCF  F01B         	goto	l823
 11260  003768                     u6480:
 11261  003768  C039  F03D         	movff	___xxtofl@val,??___xxtofl
 11262  00376C  C03A  F03E         	movff	___xxtofl@val+1,??___xxtofl+1
 11263  003770  C03B  F03F         	movff	___xxtofl@val+2,??___xxtofl+2
 11264  003774  C03C  F040         	movff	___xxtofl@val+3,??___xxtofl+3
 11265  003778  1E3D               	comf	??___xxtofl^0,f,c
 11266  00377A  1E3E               	comf	(??___xxtofl+1)^0,f,c
 11267  00377C  1E3F               	comf	(??___xxtofl+2)^0,f,c
 11268  00377E  1E40               	comf	(??___xxtofl+3)^0,f,c
 11269  003780  2A3D               	incf	??___xxtofl^0,f,c
 11270  003782  0E00               	movlw	0
 11271  003784  223E               	addwfc	(??___xxtofl+1)^0,f,c
 11272  003786  223F               	addwfc	(??___xxtofl+2)^0,f,c
 11273  003788  2240               	addwfc	(??___xxtofl+3)^0,f,c
 11274  00378A  C03D  F043         	movff	??___xxtofl,___xxtofl@arg
 11275  00378E  C03E  F044         	movff	??___xxtofl+1,___xxtofl@arg+1
 11276  003792  C03F  F045         	movff	??___xxtofl+2,___xxtofl@arg+2
 11277  003796  C040  F046         	movff	??___xxtofl+3,___xxtofl@arg+3
 11278  00379A  EFD7  F01B         	goto	l4876
 11279  00379E                     l823:
 11280  00379E  C039  F043         	movff	___xxtofl@val,___xxtofl@arg
 11281  0037A2  C03A  F044         	movff	___xxtofl@val+1,___xxtofl@arg+1
 11282  0037A6  C03B  F045         	movff	___xxtofl@val+2,___xxtofl@arg+2
 11283  0037AA  C03C  F046         	movff	___xxtofl@val+3,___xxtofl@arg+3
 11284  0037AE                     l4876:
 11285  0037AE  5039               	movf	___xxtofl@val^0,w,c
 11286  0037B0  103A               	iorwf	(___xxtofl@val+1)^0,w,c
 11287  0037B2  103B               	iorwf	(___xxtofl@val+2)^0,w,c
 11288  0037B4  103C               	iorwf	(___xxtofl@val+3)^0,w,c
 11289  0037B6  A4D8               	btfss	status,2,c
 11290  0037B8  EFE0  F01B         	goto	u6491
 11291  0037BC  EFE2  F01B         	goto	u6490
 11292  0037C0                     u6491:
 11293  0037C0  EFEC  F01B         	goto	l4882
 11294  0037C4                     u6490:
 11295  0037C4  0E00               	movlw	0
 11296  0037C6  6E39               	movwf	?___xxtofl^0,c
 11297  0037C8  0E00               	movlw	0
 11298  0037CA  6E3A               	movwf	(?___xxtofl+1)^0,c
 11299  0037CC  0E00               	movlw	0
 11300  0037CE  6E3B               	movwf	(?___xxtofl+2)^0,c
 11301  0037D0  0E00               	movlw	0
 11302  0037D2  6E3C               	movwf	(?___xxtofl+3)^0,c
 11303  0037D4  EF7D  F01C         	goto	l826
 11304  0037D8                     l4882:
 11305  0037D8  0E96               	movlw	150
 11306  0037DA  6E42               	movwf	___xxtofl@exp^0,c
 11307  0037DC  EFF6  F01B         	goto	l4886
 11308  0037E0                     l4884:
 11309  0037E0  2A42               	incf	___xxtofl@exp^0,f,c
 11310  0037E2  90D8               	bcf	status,0,c
 11311  0037E4  3246               	rrcf	(___xxtofl@arg+3)^0,f,c
 11312  0037E6  3245               	rrcf	(___xxtofl@arg+2)^0,f,c
 11313  0037E8  3244               	rrcf	(___xxtofl@arg+1)^0,f,c
 11314  0037EA  3243               	rrcf	___xxtofl@arg^0,f,c
 11315  0037EC                     l4886:
 11316  0037EC  0E00               	movlw	0
 11317  0037EE  1443               	andwf	___xxtofl@arg^0,w,c
 11318  0037F0  6E3D               	movwf	??___xxtofl^0,c
 11319  0037F2  0E00               	movlw	0
 11320  0037F4  1444               	andwf	(___xxtofl@arg+1)^0,w,c
 11321  0037F6  6E3E               	movwf	(??___xxtofl+1)^0,c
 11322  0037F8  0E00               	movlw	0
 11323  0037FA  1445               	andwf	(___xxtofl@arg+2)^0,w,c
 11324  0037FC  6E3F               	movwf	(??___xxtofl+2)^0,c
 11325  0037FE  0EFE               	movlw	254
 11326  003800  1446               	andwf	(___xxtofl@arg+3)^0,w,c
 11327  003802  6E40               	movwf	(??___xxtofl+3)^0,c
 11328  003804  503D               	movf	??___xxtofl^0,w,c
 11329  003806  103E               	iorwf	(??___xxtofl+1)^0,w,c
 11330  003808  103F               	iorwf	(??___xxtofl+2)^0,w,c
 11331  00380A  1040               	iorwf	(??___xxtofl+3)^0,w,c
 11332  00380C  A4D8               	btfss	status,2,c
 11333  00380E  EF0B  F01C         	goto	u6501
 11334  003812  EF0D  F01C         	goto	u6500
 11335  003816                     u6501:
 11336  003816  EFF0  F01B         	goto	l4884
 11337  00381A                     u6500:
 11338  00381A  EF1B  F01C         	goto	l830
 11339  00381E                     l4888:
 11340  00381E  2A42               	incf	___xxtofl@exp^0,f,c
 11341  003820  0E01               	movlw	1
 11342  003822  2643               	addwf	___xxtofl@arg^0,f,c
 11343  003824  0E00               	movlw	0
 11344  003826  2244               	addwfc	(___xxtofl@arg+1)^0,f,c
 11345  003828  2245               	addwfc	(___xxtofl@arg+2)^0,f,c
 11346  00382A  2246               	addwfc	(___xxtofl@arg+3)^0,f,c
 11347  00382C  90D8               	bcf	status,0,c
 11348  00382E  3246               	rrcf	(___xxtofl@arg+3)^0,f,c
 11349  003830  3245               	rrcf	(___xxtofl@arg+2)^0,f,c
 11350  003832  3244               	rrcf	(___xxtofl@arg+1)^0,f,c
 11351  003834  3243               	rrcf	___xxtofl@arg^0,f,c
 11352  003836                     l830:
 11353  003836  0E00               	movlw	0
 11354  003838  1443               	andwf	___xxtofl@arg^0,w,c
 11355  00383A  6E3D               	movwf	??___xxtofl^0,c
 11356  00383C  0E00               	movlw	0
 11357  00383E  1444               	andwf	(___xxtofl@arg+1)^0,w,c
 11358  003840  6E3E               	movwf	(??___xxtofl+1)^0,c
 11359  003842  0E00               	movlw	0
 11360  003844  1445               	andwf	(___xxtofl@arg+2)^0,w,c
 11361  003846  6E3F               	movwf	(??___xxtofl+2)^0,c
 11362  003848  0EFF               	movlw	255
 11363  00384A  1446               	andwf	(___xxtofl@arg+3)^0,w,c
 11364  00384C  6E40               	movwf	(??___xxtofl+3)^0,c
 11365  00384E  503D               	movf	??___xxtofl^0,w,c
 11366  003850  103E               	iorwf	(??___xxtofl+1)^0,w,c
 11367  003852  103F               	iorwf	(??___xxtofl+2)^0,w,c
 11368  003854  1040               	iorwf	(??___xxtofl+3)^0,w,c
 11369  003856  A4D8               	btfss	status,2,c
 11370  003858  EF30  F01C         	goto	u6511
 11371  00385C  EF32  F01C         	goto	u6510
 11372  003860                     u6511:
 11373  003860  EF0F  F01C         	goto	l4888
 11374  003864                     u6510:
 11375  003864  EF3A  F01C         	goto	l4896
 11376  003868                     l4894:
 11377  003868  0642               	decf	___xxtofl@exp^0,f,c
 11378  00386A  90D8               	bcf	status,0,c
 11379  00386C  3643               	rlcf	___xxtofl@arg^0,f,c
 11380  00386E  3644               	rlcf	(___xxtofl@arg+1)^0,f,c
 11381  003870  3645               	rlcf	(___xxtofl@arg+2)^0,f,c
 11382  003872  3646               	rlcf	(___xxtofl@arg+3)^0,f,c
 11383  003874                     l4896:
 11384  003874  BE45               	btfsc	(___xxtofl@arg+2)^0,7,c
 11385  003876  EF3F  F01C         	goto	u6521
 11386  00387A  EF41  F01C         	goto	u6520
 11387  00387E                     u6521:
 11388  00387E  EF49  F01C         	goto	l837
 11389  003882                     u6520:
 11390  003882  0E02               	movlw	2
 11391  003884  6042               	cpfslt	___xxtofl@exp^0,c
 11392  003886  EF47  F01C         	goto	u6531
 11393  00388A  EF49  F01C         	goto	u6530
 11394  00388E                     u6531:
 11395  00388E  EF34  F01C         	goto	l4894
 11396  003892                     u6530:
 11397  003892                     l837:
 11398  003892  B042               	btfsc	___xxtofl@exp^0,0,c
 11399  003894  EF4E  F01C         	goto	u6541
 11400  003898  EF50  F01C         	goto	u6540
 11401  00389C                     u6541:
 11402  00389C  EF51  F01C         	goto	l4902
 11403  0038A0                     u6540:
 11404  0038A0  9E45               	bcf	(___xxtofl@arg+2)^0,7,c
 11405  0038A2                     l4902:
 11406  0038A2  90D8               	bcf	status,0,c
 11407  0038A4  3242               	rrcf	___xxtofl@exp^0,f,c
 11408  0038A6  C042  F03D         	movff	___xxtofl@exp,??___xxtofl
 11409  0038AA  6A3E               	clrf	(??___xxtofl+1)^0,c
 11410  0038AC  6A3F               	clrf	(??___xxtofl+2)^0,c
 11411  0038AE  6A40               	clrf	(??___xxtofl+3)^0,c
 11412  0038B0  C03D  F040         	movff	??___xxtofl,??___xxtofl+3
 11413  0038B4  6A3F               	clrf	(??___xxtofl+2)^0,c
 11414  0038B6  6A3E               	clrf	(??___xxtofl+1)^0,c
 11415  0038B8  6A3D               	clrf	??___xxtofl^0,c
 11416  0038BA  503D               	movf	??___xxtofl^0,w,c
 11417  0038BC  1243               	iorwf	___xxtofl@arg^0,f,c
 11418  0038BE  503E               	movf	(??___xxtofl+1)^0,w,c
 11419  0038C0  1244               	iorwf	(___xxtofl@arg+1)^0,f,c
 11420  0038C2  503F               	movf	(??___xxtofl+2)^0,w,c
 11421  0038C4  1245               	iorwf	(___xxtofl@arg+2)^0,f,c
 11422  0038C6  5040               	movf	(??___xxtofl+3)^0,w,c
 11423  0038C8  1246               	iorwf	(___xxtofl@arg+3)^0,f,c
 11424  0038CA  5041               	movf	___xxtofl@sign^0,w,c
 11425  0038CC  B4D8               	btfsc	status,2,c
 11426  0038CE  EF6B  F01C         	goto	u6551
 11427  0038D2  EF6D  F01C         	goto	u6550
 11428  0038D6                     u6551:
 11429  0038D6  EF75  F01C         	goto	l4912
 11430  0038DA                     u6550:
 11431  0038DA  BE3C               	btfsc	(___xxtofl@val+3)^0,7,c
 11432  0038DC  EF74  F01C         	goto	u6560
 11433  0038E0  EF72  F01C         	goto	u6561
 11434  0038E4                     u6561:
 11435  0038E4  EF75  F01C         	goto	l4912
 11436  0038E8                     u6560:
 11437  0038E8  8E46               	bsf	(___xxtofl@arg+3)^0,7,c
 11438  0038EA                     l4912:
 11439  0038EA  C043  F039         	movff	___xxtofl@arg,?___xxtofl
 11440  0038EE  C044  F03A         	movff	___xxtofl@arg+1,?___xxtofl+1
 11441  0038F2  C045  F03B         	movff	___xxtofl@arg+2,?___xxtofl+2
 11442  0038F6  C046  F03C         	movff	___xxtofl@arg+3,?___xxtofl+3
 11443  0038FA                     l826:
 11444  0038FA  0012               	return		;funcret
 11445  0038FC                     __end_of___xxtofl:
 11446                           	callstack 0
 11447                           
 11448                           	psect	rparam
 11449  0000                     
 11450                           	psect	idloc
 11451                           
 11452                           ;Config register IDLOC0 @ 0x200000
 11453                           ;	unspecified, using default values
 11454  200000                     	org	2097152
 11455  200000  FF                 	db	255
 11456                           
 11457                           ;Config register IDLOC1 @ 0x200001
 11458                           ;	unspecified, using default values
 11459  200001                     	org	2097153
 11460  200001  FF                 	db	255
 11461                           
 11462                           ;Config register IDLOC2 @ 0x200002
 11463                           ;	unspecified, using default values
 11464  200002                     	org	2097154
 11465  200002  FF                 	db	255
 11466                           
 11467                           ;Config register IDLOC3 @ 0x200003
 11468                           ;	unspecified, using default values
 11469  200003                     	org	2097155
 11470  200003  FF                 	db	255
 11471                           
 11472                           ;Config register IDLOC4 @ 0x200004
 11473                           ;	unspecified, using default values
 11474  200004                     	org	2097156
 11475  200004  FF                 	db	255
 11476                           
 11477                           ;Config register IDLOC5 @ 0x200005
 11478                           ;	unspecified, using default values
 11479  200005                     	org	2097157
 11480  200005  FF                 	db	255
 11481                           
 11482                           ;Config register IDLOC6 @ 0x200006
 11483                           ;	unspecified, using default values
 11484  200006                     	org	2097158
 11485  200006  FF                 	db	255
 11486                           
 11487                           ;Config register IDLOC7 @ 0x200007
 11488                           ;	unspecified, using default values
 11489  200007                     	org	2097159
 11490  200007  FF                 	db	255
 11491                           
 11492                           	psect	config
 11493                           
 11494                           ; Padding undefined space
 11495  300000                     	org	3145728
 11496  300000  FF                 	db	255
 11497                           
 11498                           ;Config register CONFIG1H @ 0x300001
 11499                           ;	unspecified, using default values
 11500                           ;	Oscillator Selection bits
 11501                           ;	OSC = 0x7, unprogrammed default
 11502                           ;	Fail-Safe Clock Monitor Enable bit
 11503                           ;	FCMEN = 0x0, unprogrammed default
 11504                           ;	Internal/External Oscillator Switchover bit
 11505                           ;	IESO = 0x0, unprogrammed default
 11506  300001                     	org	3145729
 11507  300001  07                 	db	7
 11508                           
 11509                           ;Config register CONFIG2L @ 0x300002
 11510                           ;	unspecified, using default values
 11511                           ;	Power-up Timer Enable bit
 11512                           ;	PWRT = 0x1, unprogrammed default
 11513                           ;	Brown-out Reset Enable bits
 11514                           ;	BOREN = 0x3, unprogrammed default
 11515                           ;	Brown Out Reset Voltage bits
 11516                           ;	BORV = 0x3, unprogrammed default
 11517  300002                     	org	3145730
 11518  300002  1F                 	db	31
 11519                           
 11520                           ;Config register CONFIG2H @ 0x300003
 11521                           ;	unspecified, using default values
 11522                           ;	Watchdog Timer Enable bit
 11523                           ;	WDT = 0x1, unprogrammed default
 11524                           ;	Watchdog Timer Postscale Select bits
 11525                           ;	WDTPS = 0xF, unprogrammed default
 11526  300003                     	org	3145731
 11527  300003  1F                 	db	31
 11528                           
 11529                           ; Padding undefined space
 11530  300004                     	org	3145732
 11531  300004  FF                 	db	255
 11532                           
 11533                           ;Config register CONFIG3H @ 0x300005
 11534                           ;	unspecified, using default values
 11535                           ;	CCP2 MUX bit
 11536                           ;	CCP2MX = 0x1, unprogrammed default
 11537                           ;	PORTB A/D Enable bit
 11538                           ;	PBADEN = 0x1, unprogrammed default
 11539                           ;	Low-Power Timer1 Oscillator Enable bit
 11540                           ;	LPT1OSC = 0x0, unprogrammed default
 11541                           ;	MCLR Pin Enable bit
 11542                           ;	MCLRE = 0x1, unprogrammed default
 11543  300005                     	org	3145733
 11544  300005  83                 	db	131
 11545                           
 11546                           ;Config register CONFIG4L @ 0x300006
 11547                           ;	unspecified, using default values
 11548                           ;	Stack Full/Underflow Reset Enable bit
 11549                           ;	STVREN = 0x1, unprogrammed default
 11550                           ;	Single-Supply ICSP Enable bit
 11551                           ;	LVP = 0x1, unprogrammed default
 11552                           ;	Extended Instruction Set Enable bit
 11553                           ;	XINST = 0x0, unprogrammed default
 11554                           ;	Background Debugger Enable bit
 11555                           ;	DEBUG = 0x1, unprogrammed default
 11556  300006                     	org	3145734
 11557  300006  85                 	db	133
 11558                           
 11559                           ; Padding undefined space
 11560  300007                     	org	3145735
 11561  300007  FF                 	db	255
 11562                           
 11563                           ;Config register CONFIG5L @ 0x300008
 11564                           ;	unspecified, using default values
 11565                           ;	Code Protection bit
 11566                           ;	CP0 = 0x1, unprogrammed default
 11567                           ;	Code Protection bit
 11568                           ;	CP1 = 0x1, unprogrammed default
 11569                           ;	Code Protection bit
 11570                           ;	CP2 = 0x1, unprogrammed default
 11571                           ;	Code Protection bit
 11572                           ;	CP3 = 0x1, unprogrammed default
 11573  300008                     	org	3145736
 11574  300008  0F                 	db	15
 11575                           
 11576                           ;Config register CONFIG5H @ 0x300009
 11577                           ;	unspecified, using default values
 11578                           ;	Boot Block Code Protection bit
 11579                           ;	CPB = 0x1, unprogrammed default
 11580                           ;	Data EEPROM Code Protection bit
 11581                           ;	CPD = 0x1, unprogrammed default
 11582  300009                     	org	3145737
 11583  300009  C0                 	db	192
 11584                           
 11585                           ;Config register CONFIG6L @ 0x30000A
 11586                           ;	unspecified, using default values
 11587                           ;	Write Protection bit
 11588                           ;	WRT0 = 0x1, unprogrammed default
 11589                           ;	Write Protection bit
 11590                           ;	WRT1 = 0x1, unprogrammed default
 11591                           ;	Write Protection bit
 11592                           ;	WRT2 = 0x1, unprogrammed default
 11593                           ;	Write Protection bit
 11594                           ;	WRT3 = 0x1, unprogrammed default
 11595  30000A                     	org	3145738
 11596  30000A  0F                 	db	15
 11597                           
 11598                           ;Config register CONFIG6H @ 0x30000B
 11599                           ;	unspecified, using default values
 11600                           ;	Configuration Register Write Protection bit
 11601                           ;	WRTC = 0x1, unprogrammed default
 11602                           ;	Boot Block Write Protection bit
 11603                           ;	WRTB = 0x1, unprogrammed default
 11604                           ;	Data EEPROM Write Protection bit
 11605                           ;	WRTD = 0x1, unprogrammed default
 11606  30000B                     	org	3145739
 11607  30000B  E0                 	db	224
 11608                           
 11609                           ;Config register CONFIG7L @ 0x30000C
 11610                           ;	unspecified, using default values
 11611                           ;	Table Read Protection bit
 11612                           ;	EBTR0 = 0x1, unprogrammed default
 11613                           ;	Table Read Protection bit
 11614                           ;	EBTR1 = 0x1, unprogrammed default
 11615                           ;	Table Read Protection bit
 11616                           ;	EBTR2 = 0x1, unprogrammed default
 11617                           ;	Table Read Protection bit
 11618                           ;	EBTR3 = 0x1, unprogrammed default
 11619  30000C                     	org	3145740
 11620  30000C  0F                 	db	15
 11621                           
 11622                           ;Config register CONFIG7H @ 0x30000D
 11623                           ;	unspecified, using default values
 11624                           ;	Boot Block Table Read Protection bit
 11625                           ;	EBTRB = 0x1, unprogrammed default
 11626  30000D                     	org	3145741
 11627  30000D  40                 	db	64
 11628                           tosu	equ	0xFFF
 11629                           tosh	equ	0xFFE
 11630                           tosl	equ	0xFFD
 11631                           stkptr	equ	0xFFC
 11632                           pclatu	equ	0xFFB
 11633                           pclath	equ	0xFFA
 11634                           pcl	equ	0xFF9
 11635                           tblptru	equ	0xFF8
 11636                           tblptrh	equ	0xFF7
 11637                           tblptrl	equ	0xFF6
 11638                           tablat	equ	0xFF5
 11639                           prodh	equ	0xFF4
 11640                           prodl	equ	0xFF3
 11641                           indf0	equ	0xFEF
 11642                           postinc0	equ	0xFEE
 11643                           postdec0	equ	0xFED
 11644                           preinc0	equ	0xFEC
 11645                           plusw0	equ	0xFEB
 11646                           fsr0h	equ	0xFEA
 11647                           fsr0l	equ	0xFE9
 11648                           wreg	equ	0xFE8
 11649                           indf1	equ	0xFE7
 11650                           postinc1	equ	0xFE6
 11651                           postdec1	equ	0xFE5
 11652                           preinc1	equ	0xFE4
 11653                           plusw1	equ	0xFE3
 11654                           fsr1h	equ	0xFE2
 11655                           fsr1l	equ	0xFE1
 11656                           bsr	equ	0xFE0
 11657                           indf2	equ	0xFDF
 11658                           postinc2	equ	0xFDE
 11659                           postdec2	equ	0xFDD
 11660                           preinc2	equ	0xFDC
 11661                           plusw2	equ	0xFDB
 11662                           fsr2h	equ	0xFDA
 11663                           fsr2l	equ	0xFD9
 11664                           status	equ	0xFD8

Data Sizes:
    Strings     27
    Constant    0
    Data        0
    BSS         98
    Persistent  2
    Stack       0

Auto Spaces:
    Space          Size  Autos    Used
    COMRAM          127    127     127
    BANK0           128     96     116
    BANK1           256      0      80
    BANK2           256      0       0
    BANK3           256      0       0
    BANK4           256      0       0
    BANK5           256      0       0

Pointer List with Targets:

    __strtoxl@endptr	PTR PTR unsigned char  size(2) Largest target is 0
		 -> NULL(NULL[0]), 

    __strtoxl@s	PTR const unsigned char  size(2) Largest target is 10
		 -> main@vetaux2(BANK0[10]), main@vetaux1(BANK0[10]), 

    __strtoxl@cp	PTR const unsigned char  size(2) Largest target is 10
		 -> main@vetaux2(BANK0[10]), main@vetaux1(BANK0[10]), 

    strtol@endptr	PTR PTR unsigned char  size(2) Largest target is 0
		 -> NULL(NULL[0]), 

    strtol@s	PTR const unsigned char  size(2) Largest target is 10
		 -> main@vetaux2(BANK0[10]), main@vetaux1(BANK0[10]), 

    strncmp@_r	PTR const unsigned char  size(2) Largest target is 3
		 -> STR_31(CODE[3]), 

    strncmp@r	PTR const unsigned char  size(2) Largest target is 3
		 -> STR_31(CODE[3]), 

    strncmp@_l	PTR const unsigned char  size(2) Largest target is 3
		 -> vfpfcnvrt@ct(BANK0[3]), 

    strncmp@l	PTR const unsigned char  size(2) Largest target is 3
		 -> vfpfcnvrt@ct(BANK0[3]), 

    strlen@s	PTR const unsigned char  size(2) Largest target is 80
		 -> dbuf(BANK1[80]), 

    strlen@a	PTR const unsigned char  size(2) Largest target is 80
		 -> dbuf(BANK1[80]), 

    strcpy@dest	PTR unsigned char  size(2) Largest target is 80
		 -> dbuf(BANK1[80]), 

    strcpy@d	PTR unsigned char  size(2) Largest target is 80
		 -> dbuf(BANK1[80]), 

    strcpy@src	PTR const unsigned char  size(2) Largest target is 80
		 -> STR_26(CODE[4]), STR_25(CODE[4]), STR_22(CODE[4]), STR_21(CODE[4]), 
		 -> dbuf(BANK1[80]), 

    strcpy@s	PTR const unsigned char  size(2) Largest target is 80
		 -> STR_26(CODE[4]), STR_25(CODE[4]), STR_22(CODE[4]), STR_21(CODE[4]), 
		 -> dbuf(BANK1[80]), 

    fputs@s	PTR const unsigned char  size(2) Largest target is 80
		 -> dbuf(BANK1[80]), 

    fputs@fp	PTR struct _IO_FILE size(2) Largest target is 0
		 -> NULL(NULL[0]), 

    S727_IO_FILE$buffer	PTR unsigned char  size(2) Largest target is 0

    fputc@fp.buffer	PTR unsigned char  size(2) Largest target is 0

    fputc@fp	PTR struct _IO_FILE size(2) Largest target is 0
		 -> NULL(NULL[0]), 

    atoi@s	PTR const unsigned char  size(2) Largest target is 5
		 -> STR_17(CODE[5]), STR_13(CODE[5]), STR_9(CODE[5]), STR_5(CODE[5]), 
		 -> STR_1(CODE[3]), 

    vfprintf@ap	PTR PTR void  size(2) Largest target is 2
		 -> printf@ap(COMRAM[2]), 

    vfprintf@fp	PTR struct _IO_FILE size(2) Largest target is 0
		 -> NULL(NULL[0]), 

    vfprintf@fmt	PTR const unsigned char  size(2) Largest target is 5
		 -> STR_17(CODE[5]), STR_13(CODE[5]), STR_9(CODE[5]), STR_5(CODE[5]), 
		 -> STR_1(CODE[3]), 

    vfprintf@cfmt	PTR unsigned char  size(2) Largest target is 5
		 -> STR_17(CODE[5]), STR_13(CODE[5]), STR_9(CODE[5]), STR_5(CODE[5]), 
		 -> STR_1(CODE[3]), 

    vfpfcnvrt@fp	PTR struct _IO_FILE size(2) Largest target is 0
		 -> NULL(NULL[0]), 

    vfpfcnvrt@ap	PTR PTR void  size(2) Largest target is 2
		 -> printf@ap(COMRAM[2]), 

    vfpfcnvrt@fmt	PTR PTR unsigned char  size(2) Largest target is 2
		 -> vfprintf@cfmt(COMRAM[2]), 

    efgtoa@fp	PTR struct _IO_FILE size(2) Largest target is 0
		 -> NULL(NULL[0]), 

    sp__strcpy	PTR unsigned char  size(2) Largest target is 80
		 -> dbuf(BANK1[80]), 

    ctoa@fp	PTR struct _IO_FILE size(2) Largest target is 0
		 -> NULL(NULL[0]), 

    pad@fp	PTR struct _IO_FILE size(2) Largest target is 0
		 -> NULL(NULL[0]), 

    pad@buf	PTR unsigned char  size(2) Largest target is 80
		 -> dbuf(BANK1[80]), 

    printf@fmt	PTR const unsigned char  size(2) Largest target is 5
		 -> STR_17(CODE[5]), STR_13(CODE[5]), STR_9(CODE[5]), STR_5(CODE[5]), 
		 -> STR_1(CODE[3]), 

    printf@ap	PTR void [1] size(2) Largest target is 2
		 -> ?_printf(BANK0[2]), 

    pLCD	PTR struct tDisplayPort size(2) Largest target is 1
		 -> NULL(NULL[0]), PORTD(SFR[1]), 


Critical Paths under _main in COMRAM

    _main->_printf
    _strtol->___strtoxl
    ___strtoxl->_toupper
    _toupper->_islower
    _printf->_vfprintf
    _vfprintf->_vfpfcnvrt
    _vfpfcnvrt->_efgtoa
    _efgtoa->_floorf
    _tolower->_isupper
    _pad->_fputs
    _fputs->_fputc
    _floorf->___fldiv
    ___flsub->___flmul
    ___flge->___flmul
    _ctoa->_fputc
    _fputc->_putch
    _putch->_sendData
    _sendData->_waitIdle
    _atoi->_isspace
    _pega_tecla->_verifica_linha_col
    _initLCD->_sendCMD
    _sendCMD->_waitIdle
    ___xxtofl->_strtol

Critical Paths under _main in BANK0

    _main->_printf
    _printf->_vfprintf
    _vfprintf->_vfpfcnvrt

Critical Paths under _main in BANK1

    None.

Critical Paths under _main in BANK2

    None.

Critical Paths under _main in BANK3

    None.

Critical Paths under _main in BANK4

    None.

Critical Paths under _main in BANK5

    None.

Call Graph Tables:

 ---------------------------------------------------------------------------------
 (Depth) Function   	        Calls       Base Space   Used Autos Params    Refs
 ---------------------------------------------------------------------------------
 (0) _main                                                72    72      0   53924
                                             24 BANK0     72    72      0
                            ___fladd
                            ___fldiv
                             ___fleq
                            ___flmul
                            ___flsub
                           ___xxtofl
                            _initLCD
                         _pega_tecla
                             _printf
                            _sendCMD
                             _strtol
 ---------------------------------------------------------------------------------
 (1) _strtol                                               6     0      6    3612
                                             50 COMRAM     6     0      6
                          ___strtoxl
 ---------------------------------------------------------------------------------
 (2) ___strtoxl                                           36    29      7    3090
                                             14 COMRAM    36    29      7
                             ___lmul
                            _isalpha
                            _isdigit
                            _isspace
                            _toupper
 ---------------------------------------------------------------------------------
 (3) _toupper                                              8     6      2     412
                                              6 COMRAM     8     6      2
                            _islower
 ---------------------------------------------------------------------------------
 (4) _islower                                              6     4      2     161
                                              0 COMRAM     6     4      2
 ---------------------------------------------------------------------------------
 (3) _isalpha                                              6     4      2     161
                                              0 COMRAM     6     4      2
 ---------------------------------------------------------------------------------
 (3) ___lmul                                              12     4      8     370
                                              0 COMRAM    12     4      8
 ---------------------------------------------------------------------------------
 (1) _printf                                              10     4      6   34222
                                            125 COMRAM     2     2      0
                                             18 BANK0      6     0      6
                           _vfprintf
 ---------------------------------------------------------------------------------
 (2) _vfprintf                                             8     2      6   33780
                                            123 COMRAM     2     2      0
                                             12 BANK0      6     0      6
                          _vfpfcnvrt
 ---------------------------------------------------------------------------------
 (3) _vfpfcnvrt                                           48    42      6   33405
                                            113 COMRAM    10     4      6
                                              0 BANK0     12    12      0
                               _atoi
                               _ctoa
                             _efgtoa
                              _fputc
                            _isdigit
                            _isupper
                            _strncmp
                            _tolower
 ---------------------------------------------------------------------------------
 (4) _strncmp                                             11     5      6     453
                                              0 COMRAM    11     5      6
 ---------------------------------------------------------------------------------
 (4) _efgtoa                                              68    61      7   25526
                                             45 COMRAM    68    61      7
                            ___awdiv
                            ___awmod
                            ___fladd
                            ___fldiv
                             ___fleq
                             ___flge
                            ___flmul
                            ___flneg
                            ___flsub
                            ___fltol
                      ___fpclassifyf
                             _floorf
                            _isupper
                                _pad
                             _strcpy
                            _tolower
 ---------------------------------------------------------------------------------
 (4) _tolower                                              8     6      2     944
                                              6 COMRAM     8     6      2
                            _isupper
 ---------------------------------------------------------------------------------
 (5) _isupper                                              6     4      2     465
                                              0 COMRAM     6     4      2
 ---------------------------------------------------------------------------------
 (5) _strcpy                                              10     6      4     856
                                              0 COMRAM    10     6      4
 ---------------------------------------------------------------------------------
 (5) _pad                                                 11     5      6    4171
                                             21 COMRAM    11     5      6
                              _fputc
                              _fputs
                             _strlen
 ---------------------------------------------------------------------------------
 (6) _strlen                                               4     2      2     166
                                              0 COMRAM     4     2      2
 ---------------------------------------------------------------------------------
 (6) _fputs                                                7     3      4    1738
                                             14 COMRAM     7     3      4
                              _fputc
 ---------------------------------------------------------------------------------
 (5) _floorf                                              20    16      4     490
                                             25 COMRAM    20    16      4
                            ___fldiv (ARG)
 ---------------------------------------------------------------------------------
 (5) ___fpclassifyf                                       14    10      4     287
                                              0 COMRAM    14    10      4
 ---------------------------------------------------------------------------------
 (5) ___fltol                                             10     6      4     381
                                              0 COMRAM    10     6      4
 ---------------------------------------------------------------------------------
 (5) ___flsub                                              8     0      8    3649
                                             25 COMRAM     8     0      8
                            ___fladd
                            ___flmul (ARG)
 ---------------------------------------------------------------------------------
 (6) ___fladd                                             16     8      8    2718
                                              0 COMRAM    16     8      8
 ---------------------------------------------------------------------------------
 (5) ___flneg                                              4     0      4     121
                                              0 COMRAM     4     0      4
 ---------------------------------------------------------------------------------
 (5) ___flmul                                             25    17      8    2960
                                              0 COMRAM    25    17      8
 ---------------------------------------------------------------------------------
 (5) ___flge                                              12     4      8     790
                                             25 COMRAM    12     4      8
                            ___flmul (ARG)
 ---------------------------------------------------------------------------------
 (5) ___fleq                                              12     4      8    1406
                                              0 COMRAM    12     4      8
 ---------------------------------------------------------------------------------
 (5) ___fldiv                                             25    17      8    2311
                                              0 COMRAM    25    17      8
 ---------------------------------------------------------------------------------
 (5) ___awmod                                              6     2      4     448
                                              0 COMRAM     6     2      4
 ---------------------------------------------------------------------------------
 (5) ___awdiv                                              8     4      4     452
                                              0 COMRAM     8     4      4
 ---------------------------------------------------------------------------------
 (4) _ctoa                                                 8     5      3    1692
                                             14 COMRAM     8     5      3
                              _fputc
 ---------------------------------------------------------------------------------
 (4) _fputc                                                9     5      4    1337
                                              5 COMRAM     9     5      4
                              _putch
 ---------------------------------------------------------------------------------
 (5) _putch                                                1     1      0     113
                                              4 COMRAM     1     1      0
                           _sendData
 ---------------------------------------------------------------------------------
 (6) _sendData                                             2     2      0      91
                                              2 COMRAM     2     2      0
                             _pulseE
                           _waitIdle
 ---------------------------------------------------------------------------------
 (4) _atoi                                                15    13      2    1350
                                              7 COMRAM    15    13      2
                             ___wmul
                            _isdigit
                            _isspace
 ---------------------------------------------------------------------------------
 (3) _isspace                                              7     5      2     283
                                              0 COMRAM     7     5      2
 ---------------------------------------------------------------------------------
 (3) _isdigit                                              6     4      2     313
                                              0 COMRAM     6     4      2
 ---------------------------------------------------------------------------------
 (5) ___wmul                                               6     2      4     357
                                              0 COMRAM     6     2      4
 ---------------------------------------------------------------------------------
 (1) _pega_tecla                                           1     1      0      46
                                              1 COMRAM     1     1      0
                 _verifica_linha_col
 ---------------------------------------------------------------------------------
 (2) _verifica_linha_col                                   1     1      0       0
                                              0 COMRAM     1     1      0
 ---------------------------------------------------------------------------------
 (1) _initLCD                                              0     0      0     138
                             _pulseE
                            _sendCMD
                           _waitIdle
 ---------------------------------------------------------------------------------
 (1) _sendCMD                                              2     2      0      91
                                              2 COMRAM     2     2      0
                             _pulseE
                           _waitIdle
 ---------------------------------------------------------------------------------
 (2) _waitIdle                                             2     2      0      47
                                              0 COMRAM     2     2      0
 ---------------------------------------------------------------------------------
 (2) _pulseE                                               0     0      0       0
 ---------------------------------------------------------------------------------
 (1) ___xxtofl                                            14    10      4     474
                                             56 COMRAM    14    10      4
                             _strtol (ARG)
 ---------------------------------------------------------------------------------
 Estimated maximum stack depth 6
 ---------------------------------------------------------------------------------

 Call Graph Graphs:

 _main (ROOT)
   ___fladd
   ___fldiv
   ___fleq
   ___flmul
   ___flsub
     ___fladd
     ___flmul (ARG)
   ___xxtofl
     _strtol (ARG)
       ___strtoxl
         ___lmul
         _isalpha
         _isdigit
         _isspace
         _toupper
           _islower
   _initLCD
     _pulseE
     _sendCMD
       _pulseE
       _waitIdle
     _waitIdle
   _pega_tecla
     _verifica_linha_col
   _printf
     _vfprintf
       _vfpfcnvrt
         _atoi
           ___wmul
           _isdigit
           _isspace
         _ctoa
           _fputc
             _putch
               _sendData
                 _pulseE
                 _waitIdle
         _efgtoa
           ___awdiv
           ___awmod
           ___fladd
           ___fldiv
           ___fleq
           ___flge
             ___flmul (ARG)
           ___flmul
           ___flneg
           ___flsub
           ___fltol
           ___fpclassifyf
           _floorf
             ___fldiv (ARG)
           _isupper
           _pad
             _fputc
             _fputs
               _fputc
             _strlen
           _strcpy
           _tolower
             _isupper
         _fputc
         _isdigit
         _isupper
         _strncmp
         _tolower
   _sendCMD
   _strtol

 Address spaces:
Name               Size   Autos  Total    Cost      Usage
BIGRAM             5FF      0       0      17        0.0%
EEDATA             100      0       0       0        0.0%
BITBANK5           100      0       0      16        0.0%
BANK5              100      0       0      14        0.0%
BITBANK4           100      0       0      12        0.0%
BANK4              100      0       0      13        0.0%
BITBANK3           100      0       0      10        0.0%
BANK3              100      0       0      11        0.0%
BITBANK2           100      0       0       8        0.0%
BANK2              100      0       0       9        0.0%
BITBANK1           100      0       0       6        0.0%
BANK1              100      0      50       7       31.2%
BITBANK0            80      0       0       4        0.0%
BANK0               80     60      74       5       90.6%
BITCOMRAM           7F      0       0       0        0.0%
COMRAM              7F     7F      7F       1      100.0%
BITSFR               0      0       0     200        0.0%
SFR                  0      0       0     200        0.0%
STACK                0      0       0       2        0.0%
NULL                 0      0       0       0        0.0%
ABS                  0      0     143      15        0.0%
DATA                 0      0     143       3        0.0%
CODE                 0      0       0       0        0.0%


Microchip Technology PIC18 Macro Assembler V2.32 build 20210201212658 
Symbol Table                                                                                   Sun May 16 18:19:25 2021

               ___fldiv@aexp 0019                 ___fldiv@bexp 0018                 ___fldiv@sign 0011  
                         l23 491C                           l32 4444                           l50 324A  
                         l51 3236                           l35 43D8                           l60 3296  
                         l29 417C                           l38 4516                           l54 3534  
                         l71 3342                           l63 32DA                           l55 327A  
                         l47 49BA                           l80 338E                           l72 332E  
                         l64 32C6                           l56 3266                           l91 343A  
                         l83 33DA                           l75 3372                           l67 3312  
                         l59 32AA                           l92 3426                           l84 33C6  
                         l76 335E                           l68 32FE                           l95 346A  
                         l87 340A                           l79 33A2                           l96 3456  
                         l88 33F6                           l99 34A2                 ___awdiv@sign 0006  
        ___wmul@multiplicand 0003                          l100 348E                          l103 34D2  
                        l112 351E                          l104 34BE                          l120 498E  
                        l107 3502                          l108 34EE                          l132 1C32  
                        l412 422C                          l180 44AE                          l168 496A  
                        l433 3C4E                          l442 4852                          l427 42D6  
                        l179 449E                          l438 3C94                          l713 2446  
                        l705 25FC                          l465 3B90                          l722 2516  
                        l723 2504                          l830 3836                          l750 3210  
                        l823 379E                          l903 3DFA                          l399 40CA  
                        l752 3070                          l761 30B6                          l826 38FA  
                        l906 3E3C                          l738 472A                          l763 312E  
                        l755 3034                          l908 3E6A                          l764 311C  
                        l837 3892                          l782 2B12                          l926 12A6  
                        l846 4944                          l791 2D80                          l792 2D6E  
                        l696 232C                          l944 0A28                          l697 231A  
                        l786 2E76                          l698 22E0                          l890 3FCA  
                        l892 4006                          l972 0E5E                          l789 2D08  
                        l799 2E38                          l887 3F88                          _pad 3F42  
               ___awmod@sign 0006                          wreg 000FE8                 ___flmul@aexp 0012  
               ___flmul@bexp 0013                 ___flmul@sign 000D                 ___flmul@temp 0018  
               ___flmul@prod 0014                 ___fltol@exp1 000A                         l1120 436C  
                       l1032 4570                         l1105 481A                         l1033 4578  
                       l1026 205E                         l1018 213C                         l1043 3D92  
                       l1140 48C0                         l1220 2A4C                         l1134 4692  
                       l1072 3A82                         l1128 476E                         l1144 3F40  
                       l1216 299C                         l1081 3746                         l1233 45D0  
                       l1225 47AA                         l1154 48F2                         l1091 488A  
                       l1075 3A8A                         l1251 4636                         l1084 368A  
                       l1238 45D8                         l1246 462E                         l1191 27CE  
                       l1192 2816                         l1257 47E2                         l3210 48F4  
                       l4010 3556                         l4002 45B0                         l1099 46E4  
                       l3212 48FC                         l3220 40D2                         l3300 21BE  
                       l4020 363E                         l4012 35AC                         l4004 45C2  
                       l4100 06B4                         l3214 4908                         l3230 4112  
                       l3222 40DE                         l3310 21F4                         l3302 21C4  
                       l4030 3726                         l4022 367A                         l4014 35C0  
                       l4102 06C0                         l4110 06D6                         l1198 281E  
                       l3240 414E                         l3232 4128                         l3224 40EC  
                       l3216 40CC                         l4040 4694                         l3400 23BA  
                       l3320 2230                         l3312 2204                         l3304 21D2  
                       l4032 3736                         l4016 35CE                         l4024 36AE  
                       l4008 3536                         l4200 0AE4                         l4120 075E  
                       l4112 06FC                         l4104 06C8                         l5000 1674  
                       l3234 4132                         l3226 40F6                         l3242 4160  
                       l3218 40CE                         l4042 4698                         l3250 4386  
                       l3402 23E0                         l3410 2436                         l3330 224E  
                       l3322 223E                         l3314 2206                         l3306 21D4  
                       l4026 36EA                         l4210 0B2E                         l4202 0AF2  
                       l4130 07CC                         l4122 0776                         l4106 06CC  
                       l5010 16F0                         l5002 167C                         l3244 416E  
                       l3236 413A                         l3228 40FE                         l3500 4946  
                       l4036 4854                         l4044 46AC                         l3252 43A4  
                       l3260 49B4                         l4060 3DCE                         l4052 3D94  
                       l3420 248A                         l3412 245C                         l3404 2414  
                       l3340 2262                         l3332 2252                         l3324 2242  
                       l3308 21E4                         l3316 220E                         l4028 36FE  
                       l4300 0FB6                         l4220 0B74                         l4212 0B40  
                       l4204 0AF6                         l4140 0846                         l4124 077E  
                       l4116 0730                         l4108 06D0                         l5020 17BA  
                       l5012 1728                         l5004 1696                         l3246 4178  
                       l3238 4146                         l3502 4962                         l4046 46DA  
                       l3254 43A8                         l3270 4324                         l3262 42D8  
                       l4070 3E1A                         l4062 3DE0                         l4054 3DA8  
                       l3510 2E92                         l3430 24B4                         l3422 2498  
                       l3414 246C                         l3406 2416                         l3350 2276  
                       l3342 2266                         l3334 2256                         l3326 2246  
                       l3318 221E                         l4302 0FBC                         l4310 1052  
                       l4230 0C86                         l4222 0BD8                         l4206 0B08  
                       l4214 0B48                         l4142 084E                         l4134 0800  
                       l4118 0742                         l5110 1C16                         l5102 1BCE  
                       l5030 1814                         l5022 17EA                         l5014 1790  
                       l5006 169C                         l4048 46DE                         l4400 396E  
                       l3256 43B4                         l3248 4370                         l3272 435A  
                       l3264 42EA                         l4072 3E1E                         l4056 3DB4  
                       l3600 30C6                         l3520 2EC6                         l3512 2E94  
                       l3440 24E6                         l3432 24C4                         l3424 249A  
                       l3408 2426                         l3360 22C8                         l3352 227A  
                       l3344 226A                         l3336 225A                         l3328 224A  
                       l3280 2158                         l4320 10BE                         l4312 1070  
                       l4304 1014                         l4240 0D40                         l4232 0CBA  
                       l4224 0C30                         l4216 0B50                         l4208 0B16  
                       l4160 098A                         l4152 08C4                         l4136 0812  
                       l4128 07A6                         l4080 061E                         l5112 1C1C  
                       l5104 1BFE                         l5040 18D8                         l5032 181A  
                       l5016 179A                         l5008 16BE                         l4410 399A  
                       l3258 43D4                         l3266 42FC                         l4074 3E4C  
                       l4066 3DF2                         l4058 3DC0                         l3602 30D4  
                       l3530 2EF8                         l3514 2EA4                         l3522 2ECE  
                       l3506 2E78                         l3450 2540                         l3442 24FC  
                       l3426 24A8                         l3418 2480                         l3434 24C6  
                       l3370 230C                         l3362 22D8                         l3346 226E  
                       l3338 225E                         l3354 227E                         l3290 218C  
                       l3282 215A                         l4330 10FC                         l4322 10C2  
                       l4314 108C                         l4306 1048                         l4250 0E12  
                       l4242 0D50                         l4234 0CEC                         l4226 0C64  
                       l4218 0B60                         l4170 09E6                         l4162 0990  
                       l4154 08F8                         l4138 082E                         l4146 0876  
                       l4090 0670                         l4082 0626                         l5050 1966  
                       l5042 190C                         l5034 183C                         l5026 17F2  
                       l4420 3A42                         l4412 39CE                         l4404 3974  
                       l3268 4306                         l4076 3E5E                         l4068 3E06  
                       l3612 313E                         l3620 3186                         l3604 30D8  
                       l3540 2F2C                         l3532 2EFA                         l3524 2EDE  
                       l3516 2EB4                         l3508 2E84                         l3700 2BBC  
                       l3460 25BC                         l3452 257A                         l3428 24B0  
                       l3436 24D4                         l3372 230E                         l3364 22EE  
                       l3356 2282                         l3348 2272                         l3284 216A  
                       l3292 2194                         l3276 213E                         l4340 112E  
                       l4332 1104                         l4324 10D2                         l4316 109E  
                       l4308 104E                         l4260 0E56                         l4252 0E24  
                       l4244 0D84                         l4236 0D00                         l4228 0C68  
                       l4172 09FA                         l4156 08FC                         l4164 09C2  
                       l4148 088E                         l4092 0678                         l4084 0636  
                       l4500 1E16                         l5108 1C06                         l5060 1996  
                       l5044 1916                         l5036 186E                         l5028 17FA  
                       l4422 3A54                         l4406 398A                         l3630 31F0  
                       l3622 31A0                         l3614 314A                         l3606 30E6  
                       l3550 2F72                         l3534 2F0A                         l3542 2F34  
                       l3526 2EE4                         l3518 2EC4                         l3710 2C0E  
                       l3702 2BC8                         l3470 25DC                         l3462 25C0  
                       l3446 2526                         l3454 257C                         l3438 24D8  
                       l3390 2396                         l3382 235E                         l3374 2318  
                       l3366 22FA                         l3358 22AC                         l3294 21A4  
                       l3286 217A                         l3278 214A                         l4342 1134  
                       l4350 1182                         l4334 1112                         l4326 10E4  
                       l4318 10AE                         l4270 0F12                         l4262 0E7A  
                       l4246 0DDA                         l4254 0E28                         l4238 0D32  
                       l4190 0AAC                         l4174 0A02                         l4166 09D0  
                       l4158 0956                         l4094 0680                         l4086 0644  
                       l4430 3E6C                         l4510 1EBA                         l4502 1E48  
                       l5070 1A88                         l5062 19B8                         l5054 196E  
                       l5038 18A6                         l4424 3A66                         l5160 39B8  
                       l4416 3A04                         l4408 3992                         l3800 4062  
                       l3632 31FE                         l3624 31B6                         l3616 3158  
                       l3608 3114                         l3560 2F9A                         l3552 2F76  
                       l3544 2F44                         l3536 2F1A                         l3528 2EEA  
                       l3720 2C8C                         l3712 2C1E                         l3704 2BD8  
                       l3472 25EA                         l3464 25CE                         l3456 258C  
                       l3448 2532                         l3392 239A                         l3384 236E  
                       l3376 233A                         l3368 22FE                         l3296 21AA  
                       l3288 218A                         l3480 4738                         l4360 11D2  
                       l4352 1194                         l4344 115A                         l4336 111A  
                       l4328 10EC                         l4280 0F58                         l4272 0F20  
                       l4264 0EDE                         l4256 0E38                         l4248 0DDE  
                       l4192 0AB4                         l4184 0A48                         l4176 0A1C  
                       l4168 09D4                         l4096 0692                         l4088 064C  
                       l4440 3EC8                         l4432 3E96                         l4512 1ECC  
                       l4504 1E6C                         l5072 1A92                         l5064 19EA  
                       l5056 1976                         l5048 1936                         l4610 32D4  
                       l4602 3288                         l3810 409C                         l3802 406A  
                       l3634 3204                         l3626 31D0                         l3618 3182  
                       l3570 2FE8                         l3546 2F5A                         l3538 2F2A  
                       l3730 2D06                         l3722 2CC2                         l3714 2C3A  
                       l3706 2BE4                         l3650 2A6A                         l3474 25EC  
                       l3466 25D4                         l3458 259C                         l3394 23A8  
                       l3386 237C                         l3378 234A                         l3298 21BC  
                       l3482 474A                         l3490 489C                         l4362 11DA  
                       l4354 11AE                         l4346 1176                         l4338 1122  
                       l4290 0F82                         l4282 0F5C                         l4266 0EEE  
                       l4274 0F28                         l4258 0E4A                         l4186 0A5A  
                       l4194 0AB8                         l4178 0A34                         l4098 06A2  
                       l4442 3EE4                         l4530 1FFA                         l4514 1EE2  
                       l4522 1F4C                         l4506 1E9E                         l4450 47AC  
                       l5082 1AEA                         l5066 1A22                         l5058 1990  
                       l4620 3320                         l4604 32A4                         l3820 40C2  
                       l3812 409E                         l3804 4078                         l3636 3206  
                       l3628 31EC                         l3580 3032                         l3572 2FF8  
                       l3564 2FAE                         l3548 2F6A                         l3556 2F8A  
                       l3740 2D66                         l3732 2D18                         l3724 2CD0  
                       l3716 2C46                         l3708 2BF4                         l3660 2AB0  
                       l3652 2A7A                         l3644 2A4E                         l3900 4832  
                       l3468 25D6                         l3396 23AA                         l3388 238A  
                       l3484 474E                         l3492 48B4                         l4380 1260  
                       l4372 122A                         l4364 11EA                         l4356 11B4  
                       l4348 117C                         l4292 0F88                         l4284 0F62  
                       l4276 0F3A                         l4268 0F00                         l4196 0AC0  
                       l4188 0A76                         l4444 3EF6                         l4436 3EA2  
                       l4540 20BE                         l4532 202E                         l4524 1F7A  
                       l4516 1EF0                         l4460 4474                         l4700 260E  
                       l5084 1AF2                         l5076 1AB2                         l5068 1A54  
                       l5092 1B34                         l4622 333C                         l4614 32F0  
                       l4390 3910                         l3814 40A4                         l3806 407E  
                       l3830 4198                         l3590 3080                         l3582 303E  
                       l3574 3000                         l3566 2FC8                         l3558 2F9A  
                       l3750 2DD4                         l3734 2D26                         l3726 2CEE  
                       l3718 2C62                         l3670 2ADC                         l3662 2AB6  
                       l3654 2A8A                         l3646 2A5A                         l3902 4842  
                       l3398 23B4                         l3478 472C                         l3486 488C  
                       l4382 1266                         l4374 123C                         l4366 11F0  
                       l4358 11C6                         l4286 0F6E                         l4278 0F48  
                       l4294 0F8E                         l4198 0AD2                         l4446 3F1E  
                       l4438 3EB0                         l4550 20FA                         l4542 20CC  
                       l4534 206E                         l4518 1F20                         l4470 1C7E  
                       l4462 447E                         l4454 4446                         l4710 2664  
                       l4702 2616                         l5158 1B4A                         l5086 1B0C  
                       l5078 1AE2                         l5094 1B70                         ?_pad 0016  
                       l4640 33D4                         l4632 3380                         l4616 330C  
                       l4608 32B8                         l4392 3914                         l3808 4094  
                       l3816 40AA                         l3840 41CC                         l3832 419C  
                       l3824 417E                         l3592 3096                         l3584 305C  
                       l3576 3010                         l3568 2FD8                         l3760 2E3C  
                       l3744 2D90                         l3752 2DD8                         l3736 2D2A  
                       l3728 2CF8                         l3680 2B32                         l3672 2AEC  
                       l3664 2ABC                         l3656 2A9A                         l3648 2A68  
                       l3920 3AF6                         l3912 3AB6                         l3488 4898  
                       l3496 47E4                         l4376 1248                         l4368 11F6  
                       l4384 1282                         l4296 0FA0                         l4288 0F7E  
                       l4544 20E0                         l4528 1FE8                         l4480 1CE0  
                       l4472 1C82                         l4464 1C3A                         l4456 4456  
                       l4800 29BA                         l4712 2668                         l4704 2628  
                       l5096 1BA6                         l5088 1B12                         l4650 3418  
                       l4634 339C                         l4626 3350                         l4394 3918  
                       l3818 40BA                         l3850 4206                         l3842 41D4  
                       l3834 41AA                         l3826 4182                         l3594 309C  
                       l3586 305E                         l3578 3024                         l3770 2E66  
                       l3762 2E4C                         l3754 2DF2                         l3746 2D9C  
                       l3738 2D38                         l3690 2B72                         l3674 2AFC  
                       l3666 2ACA                         l3658 2AA0                         l3930 3B26  
                       l3922 3B04                         l3914 3AE0                         l3906 3A8C  
                       l4378 1250                         l4298 0FB2                         l4538 209A  
                       l4490 1D90                         l4482 1D1A                         l4474 1CA6  
                       l4466 1C5E                         l4554 2106                         l4458 4464  
                       l4562 4770                         l4570 4610                         l4802 29CA  
                       l4730 26E4                         l4722 26B0                         l4714 267A  
                       l4706 2644                         l4810 2A02                         l5098 1BAE  
                       l4900 38A0                         l4580 4410                         l4652 3434  
                       l4644 33E8                         l4628 336C                         l4396 3934  
                       l4388 38FC                         l3780 4008                         l3844 41E2  
                       l3852 420C                         l3836 41B2                         l3828 4190  
                       l3596 30A6                         l3588 306E                         l3860 422E  
                       l3764 2E5A                         l3756 2E06                         l3748 2DAA  
                       l3692 2B7E                         l3684 2B46                         l3676 2B02  
                       l3668 2ACC                         l3940 3B50                         l3932 3B30  
                       l3916 3AE2                         l3908 3AA2                         l4556 212A  
                       l4548 20EC                         l4484 1D3A                         l4476 1CAE  
                       l4492 1DA2                         l4468 1C6C                         l4572 4622  
                       l4812 2A14                         l4804 29D2                         l4740 2730  
                       l4732 26F8                         l4724 26C2                         l4716 26A6  
                       l4708 2654                         l4910 38E8                         l4902 38A2  
                       l4582 4414                         l4830 44D2                         l4822 44B0  
                       l4670 34CC                         l4662 3480                         l4646 3404  
                       l4638 33B8                         l4590 3228                         l4398 396A  
                       l3790 4034                         l3782 400C                         l3854 421C  
                       l3846 41F8                         l3838 41C4                         l3598 30B4  
                       l3870 42CE                         l3862 425C                         l3766 2E5C  
                       l3758 2E20                         l3694 2B96                         l3686 2B52  
                       l3678 2B22                         l3774 46E6                         l3942 3B60  
                       l3918 3AF2                         l3950 3F42                         l4494 1DC4  
                       l4486 1D48                         l4478 1CBC                         l4566 45DA  
                       l4814 2A24                         l4806 29E2                         l4750 2782  
                       l4742 2742                         l4726 26CE                         l4718 26AA  
                       l4912 38EA                         l4904 38A6                         l4584 4420  
                       l4576 43DC                         l4840 44F8                         l4832 44DC  
                       l4824 44B4                         l4680 3510                         l4664 349C  
                       l4656 3448                         l4592 3244                         l3792 403C  
                       l3784 401A                         l3856 4224                         l3848 4200  
                       l3872 42D4                         l3864 426C                         l3880 3BD0  
                       l3768 2E62                         l3696 2BA2                         l3688 2B5C  
                       l3776 46F6                         l3944 3B70                         l3928 3B1C  
                       l3960 3F94                         l3952 3F52                         l4496 1DD4  
                       l4816 2A2C                         l4808 29F2                         l4760 27C6  
                       l4752 2796                         l4744 2756                         l4736 270E  
                       l4728 26E0                         l4906 38CA                         l4586 4440  
                       l4578 43F2                         l4842 44FE                         l4834 44E0  
                       l4826 44BE                         l4682 352C                         l4674 34E0  
                       l4658 3464                         l4850 496C                         l3794 4040  
                       l3786 4022                         l3866 429A                         l3890 3C3C  
                       l3882 3BFE                         l3698 2BAE                         l3946 3B80  
                       l3938 3B44                         l3962 3FA8                         l3954 3F66  
                       l4498 1E06                         l4690 4518                         l4818 2A3C  
                       l4762 27DE                         l4754 279A                         l4746 2768  
                       l4738 2720                         l4930 12B0                         l4908 38DA  
                       l4844 4504                         l4836 44F0                         l4828 44C8  
                       l4676 34FC                         l4668 34B0                         l4596 3258  
                       l4588 3212                         l4852 4974                         l3796 4048  
                       l3788 4026                         l3868 42AA                         l3892 3C8C  
                       l3884 3C0E                         l3876 3B92                         l3980 3D28  
                       l3972 3C96                         l3964 3FAC                         l3956 3F74  
                       l4692 4520                         l4860 491E                         l4780 28C4  
                       l4772 286A                         l4764 27EE                         l4756 27AC  
                       l4748 277A                         l4940 12BA                         l4932 12B2  
                       l4924 12A8                         l4870 374A                         l4846 450A  
                       l4838 44F4                         l4686 3532                         l4598 3274  
                       l4854 497A                         l3798 405A                         l3894 3C92  
                       l3886 3C1C                         l3878 3BC0                         l3990 3D8A  
                       l3974 3CB6                         l3966 3FDA                         l3958 3F80  
                       l4694 452E                         l4862 4926                         l4790 2912  
                       l4782 28D6                         l4774 287C                         l4766 2802  
                       l4758 27B4                         l4950 1314                         l4942 12BC  
                       l4934 12B4                         l4926 12AC                         l4872 375A  
                       l4848 4510                         l4856 498C                         l3888 3C2E  
                       l3976 3CF4                         l3984 3D34                         l3968 3FEE  
                       l4696 4554                         l4792 2950                         l4784 28DA  
                       l4776 2890                         l4768 282E                         l4960 13F2  
                       l4952 131A                         l4944 12D8                         l4936 12B6  
                       l4928 12AE                         l4890 3820                         l4882 37D8  
                       l4874 3768                         l3898 481C                         l3986 3D46  
                       l3978 3D1C                         l3994 4638                         l4794 296E  
                       l4698 25FE                         l4866 48C2                         l4970 1496  
                       l4962 13FE                         l4954 1350                         l4946 12DC  
                       l4938 12B8                         l4892 382C                         l4884 37E0  
                       l4876 37AE                         l3996 4648                         l4796 297E  
                       l4788 2902                         l4980 152A                         l4972 14C0  
                       l4964 141A                         l4956 1386                         l4948 12F0  
                       l4894 3868                         l4886 37EC                         l4878 37C4  
                       l3998 457A                         l4798 29AC                         l4990 161C  
                       l4982 152E                         l4966 141E                         l4974 14CC  
                       l4958 13BC                         l4896 3874                         l4888 381E  
                       l4984 1564                         l4976 1502                         l4968 1454  
                       l4898 3882                         l4994 163C                         l4986 15AA  
                       l4978 150E                         l4996 166C                         l4988 1612  
                       STR_1 0619                         STR_2 0609                         STR_3 0609  
                       STR_4 0609                         STR_5 0601                         STR_6 0609  
                       STR_7 0609                         STR_8 0609                         STR_9 0601  
                       u4000 30B4                         u4001 30B0                         u4010 30D4  
                       u4011 30D0                         u4020 30E6                         u4100 2A68  
                       u4021 30E2                         u4101 2A64                         u4030 3114  
                       u4110 2A7A                         u4031 3110                         u4111 2A76  
                       u3400 42EA                         u4040 312A                         u4200 2D26  
                       u4120 2A8A                         u5000 07CC                         u3401 42E6  
                       u4041 3126                         u4201 2D22                         u4121 2A86  
                       u5001 07C8                         u3410 42FC                         u4050 313E  
                       u4210 2D38                         u4130 2ACA                         u5010 07FA  
                       u3411 42F8                         u4051 313A                         u4211 2D34  
                       u4131 2AC6                         u5011 07F4                         u3420 4324  
                       u4300 4034                         u4060 3158                         u4220 2D66  
                       u4140 2ADC                         u3500 21F4                         u5100 0A44  
                       u5020 07FC                         u3421 4320                         u4301 4030  
                       u4061 3154                         u4221 2D62                         u4141 2AD8  
                       u3501 21F0                         u5101 0A40                         u3430 435A  
                       u4310 405A                         u4070 31A0                         u4230 2D7C  
                       u4150 2AEC                         u3510 2230                         u5110 0A5A  
                       u5030 0812                         u3431 4356                         u4311 4056  
                       u4071 319C                         u4231 2D78                         u4151 2AE8  
                       u3511 222C                         u5111 0A56                         u5031 080E  
                       u6000 33E8                         u4320 4078                         u4400 421C  
                       u4080 31D0                         u4240 2D90                         u4160 2B22  
                       u3600 234A                         u3520 223E                         u3440 2158  
                       u5200 0C86                         u5120 0A76                         u5040 08C0  
                       u6001 33E4                         u4321 4074                         u4401 4218  
                       u4081 31CC                         u4241 2D8C                         u4161 2B1E  
                       u3601 2346                         u3521 223A                         u3441 2154  
                       u5201 0C82                         u5121 0A72                         u5041 08BC  
                       u6010 3404                         u4330 4094                         u4090 31FE  
                       u4410 425C                         u4250 2DAA                         u4170 2B32  
                       u3610 237C                         u3530 22AC                         u3450 216A  
                       u5210 0CEC                         u5130 0AAC                         u5050 0952  
                       u6011 3400                         u4331 4090                         u4091 31FA  
                       u4411 4258                         u4251 2DA6                         u4171 2B2E  
                       u3611 2378                         u3531 22A8                         u3451 2166  
                       u5211 0CE8                         u5131 0AA8                         u5051 094E  
                       u6100 34E0                         u6020 3418                         u4340 40BA  
                       u4420 429A                         u4260 2DF2                         u4180 2CAC  
                       u3700 24C4                         u3620 238A                         u3540 22C4  
                       u3460 217A                         u4500 3AA2                         u5300 0F20  
                       u5220 0D32                         u5140 0AD2                         u5060 09C2  
                       u6101 34DC                         u6021 3414                         u4341 40B6  
                       u4421 4296                         u4261 2DEE                         u3701 24C0  
                       u3621 2386                         u3541 22BE                         u3461 2176  
                       u4501 3A9E                         u5301 0F1C                         u5221 0D2E  
                       u5141 0ACE                         u5061 09BE                         u3390 416E  
                       u6110 34FC                         u6030 3434                         u4350 4190  
                       u4430 42CE                         u4270 2E20                         u4190 2D06  
                       u3710 24D4                         u3630 23A8                         u3550 22C6  
                       u3470 21BC                         u4510 3AD6                         u5310 0F3A  
                       u5230 0D40                         u5150 0AE4                         u5070 09E6  
                       u3391 416A                         u6111 34F8                         u6031 3430  
                       u4351 418C                         u4431 42CA                         u4271 2E1C  
                       u4191 2D02                         u3711 24D0                         u3631 23A4  
                       u3471 21B8                         u5311 0F36                         u5231 0D3C  
                       u5151 0AE0                         u5071 09E2                         u6120 3510  
                       u6040 3448                         u4360 41AA                         u4440 3BC0  
                       u4280 2E5A                         u3800 25BC                         u3720 24E6  
                       u3640 23E0                         u3560 22EE                         u3480 21D2  
                       u4520 3B04                         u4600 3FDA                         u5400 1194  
                       u5320 0F48                         u5240 0DDA                         u5160 0AF2  
                       u5080 09FA                         u6200 26E0                         u6121 350C  
                       u6041 3444                         u4361 41A6                         u4441 3BBC  
                       u4281 2E56                         u4185 2CA2                         u3801 25B8  
                       u3721 24E2                         u3641 23DC                         u3561 22EA  
                       u3481 21CE                         u4521 3B00                         u4601 3FD6  
                       u5401 1190                         u5321 0F44                         u5241 0DD6  
                       u5161 0AEE                         u5081 09F6                         u6201 26DC  
                       u6130 352C                         u6050 3464                         u4290 401A  
                       u4370 41C4                         u4450 3BFE                         u3810 25CE  
                       u3730 24FC                         u3650 2426                         u3570 230C  
                       u3490 21E4                         u4530 3B18                         u4610 3CD6  
                       u5410 11AE                         u5330 0FA0                         u5250 0E24  
                       u5170 0B08                         u5090 0A1C                         u6210 270A  
                main@equacao 00BA                         u6131 3528                         u6051 3460  
                       u4291 4016                         u4371 41C0                         u4451 3BFA  
                       u3811 25CA                         u3731 24F8                         u3651 2422  
                       u3571 2308                         u3491 21E0                         u4531 3B14  
                       u4515 3ACC                         u5411 11AA                         u5331 0F9C  
                       u5251 0E20                         u5171 0B04                         u5091 0A18  
                       u6211 2706                         u6060 3480                         u5500 3A3E  
                       u4380 41E2                         u3900 2EF8                         u4460 3C1C  
                       u3820 25EA                         u3740 2512                         u3660 245C  
                       u3580 232C                         u4540 3B40                         u4620 3CF4  
                       u4700 45AA                         u5420 11C6                         u5340 1070  
                       u5260 0E4A                         u5180 0B16                         u6140 4570  
                       u6300 27EE                         u6220 2720                         u6061 347C  
                       u4381 41DE                         u3901 2EF4                         u4461 3C18  
                       u3821 25E6                         u3741 250E                         u3661 2458  
                       u3581 2328                         u4541 3B3C                         u4621 3CF0  
                       u4701 45A4                         u5421 11C2                         u5341 106C  
                       u5261 0E46                         u5181 0B12                         u6141 456C  
                       u6301 27EA                         u6221 271C                         u6070 349C  
                       u5510 3A54                         u4390 41F8                         u3910 2F0A  
                       u4470 3C3C                         u3750 2526                         u3670 246C  
                       u3590 233A                         u4550 3B60                         u4630 3D1C  
                       u3830 476E                         u4710 45AC                         u5430 1224  
                       u5350 108C                         u5270 0EEE                         u5190 0B40  
                       u6310 2864                         u6230 2742                         u6150 2628  
                       u7007 4134                         u6071 3498                         u5511 3A50  
                       u4391 41F4                         u3911 2F06                         u4471 3C38  
                       u3751 2522                         u3671 2468                         u3591 2336  
                       u4551 3B5C                         u4631 3D18                         u4615 3CCC  
                       u3831 476A                         u5431 121E                         u5351 1088  
                       u5271 0EEA                         u5191 0B3C                         u6311 285E  
                       u6231 273E                         u6151 2624                         u6080 34B0  
                       u5520 3A66                         u3920 2F1A                         u4480 3C8C  
                       u3760 2540                         u3680 2498                         u4560 3B70  
                       u4640 3D46                         u4800 36CE                         u3840 48B4  
                       u4720 45C2                         u5440 1226                         u5360 109E  
                       u5280 0F00                         u5600 4464                         u6400 297E  
                       u6320 2866                         u6240 2756                         u6160 2640  
                       u7017 4148                         u6081 34AC                         u5521 3A62  
                       u3921 2F16                         u4481 3C88                         u3761 253C  
                       u3681 2494                         u4561 3B6C                         u4641 3D42  
                       u3841 48B0                         u4721 45BE                         u5361 109A  
                       u5281 0EFC                         u5601 4460                         u6401 297A  
                       u6241 2752                         u6161 263C                         u6090 34CC  
                       u3930 2F5A                         u4490 4832                         u3770 257A  
                       u3690 24A8                         u4810 36EA                         u4730 357E  
                       u4570 3F52                         u3850 4814                         u5450 123C  
                       u5370 10AE                         u5290 0F12                         u5530 3E96  
                       u5610 449E                         u6410 299C                         u6330 287C  
                       u6250 2768                         u6170 267A                         u7027 48F6  
                       u6091 34C8                         u3931 2F56                         u4491 482E  
                       u3771 2576                         u3691 24A4                         u4811 36E6  
                       u4571 3F4E                         u3851 480E                         u5451 1238  
                       u5371 10AA                         u5291 0F0E                         u5531 3E92  
                       u5611 449A                         u6411 2998                         u6331 2878  
                       u6251 2764                         u6171 2676                         u6500 381A  
                       u5460 3934                         u4900 3E3C                         u3940 2F9A  
                       u3780 258C                         u4660 3D80                         u4820 3726  
                       u4740 35AC                         u4580 3F74                         u3860 4816  
                       u5380 10E4                         u5540 3EC8                         u5700 1E6C  
                       u5620 1C5E                         u6420 29E2                         u6340 28BE  
                       u6260 277A                         u6180 26A6                         u6501 3816  
                       u7037 490A                         u5461 3930                         u4901 3E38  
                       u3941 2F96                         u3781 2588                         u4661 3D7A  
                       u4821 3722                         u4805 36C4                         u4741 35A8  
                       u4581 3F70                         u5381 10E0                         u5541 3EC4  
                       u5701 1E68                         u5621 1C5A                         u6421 29DE  
                       u6341 28B8                         u6261 2776                         u6181 26A2  
                       u6510 3864                         u4830 4884                         u5470 396A  
                       u4910 3E4C                         u3950 3010                         u3870 2E92  
                       u3790 259C                         u4670 3D82                         u4750 35CE  
                       u4590 3FCA                         u5390 1112                         u5550 3EE4  
                       u5710 1ECC                         u5630 1CA6                         u6430 29F2  
                       u6350 28C0                         u6270 27AC                         u6190 26C2  
                       u6511 3860                         u4831 487E                         u5471 3966  
                       u4911 3E48                         u3951 300C                         u3871 2E8E  
                       u3791 2598                         u4655 3D58                         u4751 35CA  
                       u4735 3574                         u4591 3FC6                         u5391 110E  
                       u5551 3EE0                         u5711 1EC8                         u5631 1CA2  
                       u6431 29EE                         u6271 27A8                         u6191 26BE  
                       u6520 3882                         u4840 4886                         u5480 3986  
                       u3960 3032                         u3880 2EA4                         u4680 4680  
                       u4920 0644                         u5560 3EF6                         u5720 1F7A  
                       u5640 1CE0                         u5800 460C                         u6440 2A14  
                       u6360 28D6                         u6280 27C6                         u6600 1386  
                       u6521 387E                         u5481 3982                         u3961 302E  
                       u3881 2EA0                         u4921 0640                         u5561 3EF2  
                       u5721 1F76                         u5641 1CDC                         u6441 2A10  
                       u6361 28D2                         u6281 27C2                         u6601 1382  
                       u6530 3892                         u4850 46AC                         u5490 3A3C  
                       u3970 305C                         u3890 2EB4                         u4770 363A  
                       u4690 4692                         u4930 0692                         u5570 3F1E  
                       u5730 1FE0                         u5650 1D88                         u5810 4622  
                       u6450 2A24                         u6370 28FE                         u6290 27DE  
                       u6610 13BC                         u6531 388E                         u4851 46A8  
                       u5491 3A36                         u3971 3058                         u3891 2EB0  
                       u4771 3636                         u4691 468E                         u4931 068E  
                       u5571 3F1A                         u5731 1FDA                         u5651 1D82  
                       u5811 461E                         u6451 2A20                         u6371 28FA  
                       u6291 27DA                         u6611 13B8                         u6540 38A0  
                       u5900 32F0                         u5820 3228                         u6460 498C  
                       u4860 46DA                         u3980 3080                         u4780 365E  
                       u4940 06A2                         u5740 1FE2                         u5660 1D8A  
                       u5580 47DC                         u6380 2912                         u6700 18D8  
                       u6620 13F2                         u6541 389C                         u5901 32EC  
                       u5821 3224                         u6461 4988                         u4861 46D6  
                       u3981 307C                         u4765 35E2                         u4941 069E  
                       u5581 47D6                         u6381 290E                         u6701 18D4  
                       u6621 13EE                         u6550 38DA                         u6470 375A  
                       u5910 330C                         u5830 3244                         u4870 3DA8  
                       u3990 3096                         u4790 367A                         u4766 35EC  
                       u4950 06B4                         u5750 1FFA                         u5670 1DA2  
                       u5590 47DE                         u6390 296E                         u6710 1932  
                       u6630 1454                         u6551 38D6                         u6471 3756  
                       u5911 3308                         u5831 3240                         u4871 3DA4  
                       u3991 3092                         u4791 3676                         u4767 35FC  
                       u4687 4676                         u4951 06B0                         u5751 1FF6  
                       u5671 1D9E                         u6391 296A                         u6711 192E  
                       u6631 1450                         u6560 38E8                         u6480 3768  
                       u5920 3320                         u5840 3258                         u4880 3DCE  
                       u4960 06FC                         u5760 20BE                         u5680 1DD4  
                       u6720 19EA                         u6640 1502                         u6561 38E4  
                       u6481 3764                         u5921 331C                         u5841 3254  
                       u4881 3DCA                         u4785 3654                         u4961 06F8  
                       u5761 20BA                         u5681 1DD0                         u6721 19E6  
                       u6641 14FE                         u6490 37C4                         u5930 333C  
                       u5850 3274                         u4890 3DEE                         u4970 072A  
                       u5690 1E16                         u5770 47A4                         u6730 1A54  
                       u6650 1564                         u6491 37C0                         u5931 3338  
                       u5851 3270                         u4891 3DEA                         u4971 0724  
                       u5691 1E12                         u5771 479E                         u6731 1A50  
                       u6651 1560                         u5940 3350                         u5860 3288  
                       u4980 072C                         u5780 47A6                         u6740 1AAE  
                       u6660 1638                         u5941 334C                         u5861 3284  
                       u6741 1AAA                         u6661 1634                         u5950 336C  
                       u5870 32A4                         u4990 0742                         u5790 460A  
                       u6750 1BA6                         u6670 16F0                         u6590 1350  
                       u5951 3368                         u5871 32A0                         u4991 073E  
                       u5791 4604                         u6751 1BA2                         u6807 1AFE  
                       u6671 16EC                         u6591 134C                         u5960 3380  
                       u5880 32B8                         u6760 1BCA                         u6680 17B6  
                       u5961 337C                         u5881 32B4                         u6817 1C24  
                       u6761 1BC6                         u6681 17B2                         u5970 339C  
                       u5890 32D4                         u6690 186E                         u6907 33BE  
                       u5971 3398                         u5891 32D0                         u6827 322E  
                       u6691 186A                         u5980 33B8                         u6917 33EE  
                       u5981 33B4                         u6837 325E                         u5990 33D4  
                       u6927 341E                         u5991 33D0                         u6847 328E  
                       u6937 344E                         u6857 32BE                         u6777 1688  
                       u6947 3486                         u6867 32F6                         u6787 1806  
                       u6957 34B6                         u6877 3326                         u6797 1982  
                       u6967 34E6                         u6887 3356                         u6977 3516  
                       u6897 3386                         u6987 40F8                         u6997 410C  
                       _pLCD 00F2                         _dbuf 0100                         _atoi 38FC  
                       _ctoa 3D94                         _main 12A8                         _prec 00EE  
                       _nout 00EA                         pad@i 001D                         pad@p 001A  
                       fsr1h 000FE2                         fsr2h 000FDA                         indf1 000FE7  
                       indf2 000FDF                         fsr1l 000FE1                         pad@w 001F  
                       fsr2l 000FD9                ___fpclassifyf 3C96                  main@vetaux1 009D  
                main@vetaux2 00A7                         prodh 000FF4                         prodl 000FF3  
                       start 0000              ___fldiv@new_exp 0012                 _tolower$1055 000D  
               ___param_bank 000000                        ??_pad 001C                ___fltol@sign1 0009  
                      ?_atoi 0008                        ?_ctoa 000F              __end_of___fladd 25FE  
                      ?_main 0001              __end_of___fldiv 3212              __end_of___awdiv 40CC  
            __end_of___flneg 4854                        STR_10 0609                        STR_11 0609  
                      STR_20 0609                        STR_12 0609                        STR_13 0601  
                      STR_21 0606                        STR_14 0609                        STR_22 060E  
                      STR_15 0609                        STR_31 0616                        STR_16 0609  
                      STR_17 0601                        STR_25 060A                        STR_18 0609  
                      STR_26 0612                        STR_19 0609              __end_of___awmod 422E  
                      STR_29 0616              __end_of___flmul 2E78              __end_of___flsub 472C  
            __end_of___fltol 3B92              ___awdiv@divisor 0003              ___awdiv@counter 0005  
               vfpfcnvrt@fmt 0074                        _PORTD 000F83                        _TRISD 000F95  
        ___lmul@multiplicand 0005              __end_of_initLCD 4518                        _flags 00F0  
                      _errno 00E8                        _fputc 42D8              __end_of_isalpha 47AC  
                      _fputs 472C              __end_of_isdigit 488C              __end_of_sendCMD 4446  
                      atoi@n 0015                        pad@fp 0016                        atoi@s 0008  
                      _width 00EC                        ctoa@c 0011                        _putch 49B2  
                      ctoa@l 0013                        main@a 00C4                        ctoa@w 0015  
                      main@i 00DA              __end_of_islower 47E4              __end_of_isspace 46E6  
            __end_of_isupper 481C                        tablat 000FF5                        status 000FD8  
             ?___fpclassifyf 0001              __end_of_tolower 45DA              __end_of_strncmp 3F42  
            __end_of_toupper 4638                 _toupper$1070 000D              __initialization 4990  
               __end_of_atoi 3A8C                 __end_of_ctoa 3E6C                 __end_of_main 1C3A  
                     ??_atoi 000A                       ??_ctoa 0012                       ??_main 0098  
              __activetblptr 000002                       _ADCON1 000FC1                       ?_fputc 0006  
                     ?_fputs 000F             ___awdiv@dividend 0001                       ?_putch 0001  
           __end_of___xxtofl 38FC                 ___strtoxl@cp 0030                 vfprintf@cfmt 007C  
                     ___flge 3B92                       ___fleq 422E                       ___lmul 4446  
                  ??___fladd 0009                       ___wmul 4946                    ??___fldiv 0009  
                  ??___awdiv 0005                    ??___flneg 0005                    ??___awmod 0005  
                  ??___flmul 0009                    ??___flsub 0022                    ??___fltol 0005  
                     _efgtoa 061E                       _floorf 3536             ___strtoxl@endptr 0011  
                     clear_0 4996                       clear_1 49A2             ___awdiv@quotient 0007  
            ___awmod@divisor 0003                       isa$std 000001              ___awmod@counter 0005  
                     _printf 491E                       pad@buf 0018                       _pulseE 48F4  
                     ctoa@fp 000F             __end_of_sendData 43DA                       main@op 00B9  
           ___strtoxl@prev_a 001A                       _strcpy 4638                       _strlen 488C  
                     _strtol 48C2                    ??_initLCD 0005                       fputc@c 0006  
           __end_of_waitIdle 417E                       fputs@c 0013                       fputs@i 0014  
                     fputs@s 000F                    ??_isalpha 0003                    ??_isdigit 0003  
                  ??_sendCMD 0003              ___fpclassifyf@e 0009              ___fpclassifyf@u 000B  
            ___fpclassifyf@x 0001                    ??_islower 0003                 __mediumconst 0000  
                  ??_isspace 0003                       tblptrh 000FF7                    ??_isupper 0003  
                     tblptrl 000FF6                       tblptru 000FF8                       putch@c 0005  
           __end_of_vfprintf 457A                    ??_tolower 0009                    ??_strncmp 0007  
                  ??_toupper 0009                   ___flge@ff1 001A                   ___flge@ff2 001E  
            ??___fpclassifyf 0005                 ___xxtofl@arg 0043                 ___xxtofl@exp 0042  
               ___xxtofl@val 0039                   ___fleq@ff1 0001                   ___fleq@ff2 0005  
                 __accesstop 0080      __end_of__initialization 49A8                   ___flneg@f1 0001  
              ___rparam_used 000001                   ___fltol@f1 0001                  sendCMD@dado 0004  
             __pcstackCOMRAM 0001           __size_of___strtoxl 0450                __end_of_fputc 436E  
              __end_of_fputs 4770                __end_of_putch 49BC   __end_of_verifica_linha_col 3536  
                    ??_fputc 000A                      ??_fputs 0013                      ??_putch 0005  
                 __pbssBANK0 00E0                   __pbssBANK1 0100                   _efgtoa$853 003E  
                 _efgtoa$847 003A                   _efgtoa$848 003C                   _efgtoa$857 0040  
                 _efgtoa$858 0042                   _efgtoa$859 0044                      ?___flge 001A  
                    ?___fleq 0001                      ?___lmul 0001                      ?___wmul 0001  
                    ?_efgtoa 002E                      ?_floorf 001A               ___lmul@product 0009  
                    ?_printf 0092                      ?_pulseE 0001                      ?_strcpy 0001  
                    ?_strlen 0001                      ?_strtol 0033                    ?___xxtofl 0039  
         __size_of_vfpfcnvrt 0504            __end_of___strtoxl 2A4E                    ?_sendData 0001  
                    __Hparam 0000                      __Lparam 0000                    ?_waitIdle 0001  
            __size_of___flge 0104              __size_of___fleq 00AA                      ___fladd 213E  
                    ___fldiv 2E78                      ___awdiv 4008                      ___flneg 481C  
            __size_of___lmul 006A                      ___awmod 417E                      ___flmul 2A4E  
                    ___flsub 46E6                      ___fltol 3A8C              __size_of___wmul 0026  
                  ?_vfprintf 008C                 __psmallconst 0600              __size_of_efgtoa 0C8A  
                 _pega_tecla 496C              __size_of_floorf 0212                      __pcinit 4990  
            pega_tecla@tecla 0002                      __ramtop 0600                  waitIdle@aux 0002  
                    __ptext0 12A8                      __ptext1 48C2                      __ptext2 25FE  
                    __ptext3 45DA                      __ptext4 47AC                      __ptext5 4770  
                    __ptext6 4446                      __ptext7 491E                      __ptext8 4518  
                    __ptext9 1C3A              __size_of_printf 0028              __size_of_pulseE 002A  
            __size_of_strcpy 005C              __size_of_strlen 0036                      _initLCD 44B0  
            __size_of_strtol 0032                 __size_of_pad 00C6                      _isalpha 4770  
                    _isdigit 4854                   ??___xxtofl 003D                      _sendCMD 43DA  
           ___awmod@dividend 0001                      _islower 47AC                      _isspace 4694  
                    _isupper 47E4                      efgtoa@c 0034                      efgtoa@d 0052  
                    efgtoa@e 006A                      efgtoa@f 0030                      efgtoa@g 0066  
                    efgtoa@h 005C                      efgtoa@i 0064                      efgtoa@l 0060  
                    efgtoa@m 004C                      efgtoa@n 006C                      efgtoa@p 0056  
                    efgtoa@t 0046                      efgtoa@u 006E                      efgtoa@w 0058  
                    atoi@neg 000E                      _tolower 457A                      _strncmp 3E6C  
                    _toupper 45DA         end_of_initialization 49A8                      floorf@e 0028  
                    floorf@m 0024                      floorf@u 002A                      floorf@x 001A  
                    fputc@fp 0008                __Lmediumconst 0000                      fputs@fp 0011  
                 ??_sendData 0003                   ??_waitIdle 0001            __end_of_vfpfcnvrt 213E  
                 efgtoa@mode 005B                   efgtoa@sign 0054                      postdec2 000FDD  
                    postinc0 000FEE                      postinc1 000FE6                      postinc2 000FDE  
                 ??_vfprintf 007C                      strcpy@d 0009                      strlen@a 0003  
                    strcpy@s 0007                      strlen@s 0001                      strtol@s 0033  
                  _PORTBbits 000F81                  ___fladd@grs 0010                ___xxtofl@sign 0041  
                  _TRISBbits 000F93                 strtol@endptr 0035                  ___fldiv@grs 0014  
                ___fldiv@rem 000D                  ___flmul@grs 000E               __end_of___flge 3C96  
             __end_of___fleq 42D8                  ?_pega_tecla 0001               __end_of___lmul 44B0  
                vfpfcnvrt@ap 0076                  vfpfcnvrt@ct 0088                  vfpfcnvrt@fp 0072  
             __end_of___wmul 496C               __end_of_efgtoa 12A8               __end_of_floorf 3748  
                 floorf@F527 00E0               __end_of_printf 4946               __end_of_pulseE 491E  
             __end_of_strcpy 4694               __end_of_strlen 48C2               __end_of_strtol 48F4  
        start_initialization 4990                  __end_of_pad 4008           _verifica_linha_col 3212  
      __end_of___fpclassifyf 3D94                  ___strtoxl@a 002C                  ___strtoxl@c 0032  
                ___strtoxl@s 000F                  vfprintf@fmt 008E          ?_verifica_linha_col 0001  
                   ??___flge 0022                     ??___fleq 0009                     ??___lmul 0009  
                   ??___wmul 0005              ___strtoxl@limit 0026                     ??_efgtoa 0035  
                   ??_floorf 001E                     ??_printf 007E                     ??_pulseE 0001  
                   ??_strcpy 0005                     ??_strlen 0003                     ??_strtol 0039  
                  ___fladd@a 0005                    ___fladd@b 0001                 sendData@dado 0004  
                  ___fldiv@a 0005                    ___fldiv@b 0001                    ___flmul@a 0005  
                  ___flmul@b 0001                    ___flsub@a 001E                    ___flsub@b 001A  
              __pcstackBANK0 0080         ??_verifica_linha_col 0001            __size_of___xxtofl 01B4  
        __size_of_pega_tecla 0024                    ___strtoxl 25FE                    __pnvBANK0 00F2  
                  _main$1300 00B1                    _main$1301 00B5            __size_of_sendData 006C  
                   ?___fladd 0001                     ?___fldiv 0001                     ?___awdiv 0001  
                   ?___flneg 0001                     ?___awmod 0001                     ?___flmul 0001  
                   ?___flsub 001A                     ?___fltol 0001            __size_of_waitIdle 00B2  
          __size_of_vfprintf 0062                     ?_initLCD 0001                  __smallconst 0600  
                   ?_isalpha 0001                     ?_isdigit 0001                     ?_sendCMD 0001  
                   ?_islower 0001                     ?_isspace 0001                     ?_isupper 0001  
                   ?_tolower 0007               __size_of_fputc 0096               __size_of_fputs 0044  
                   ?_strncmp 0001                     ?_toupper 0007               __size_of_putch 000A  
        ___strtoxl@conv_done 0025                   ?___strtoxl 000F               ___wmul@product 0005  
        ___strtoxl@is_signed 0015                    _vfpfcnvrt 1C3A                    main@a_261 00C6  
                  main@a_262 00C8                    main@a_272 00CC                    main@a_282 00D0  
                  main@a_267 00CA                    main@a_277 00CE            ___wmul@multiplier 0001  
                 vfpfcnvrt@c 008B                   vfpfcnvrt@f 0084            ___lmul@multiplier 0001  
                _INTCON2bits 000FF1               ___strtoxl$1034 001E               ___strtoxl$1035 0024  
             ___strtoxl$1036 0020               ___strtoxl$1037 0022                     __Hrparam 0000  
                 vfprintf@ap 0090                     __Lrparam 0000                   vfprintf@fp 008C  
             ___strtoxl@base 0013               ___strtoxl@sign 002A               ___strtoxl@skip 002B  
               ??_pega_tecla 0002             __size_of___fladd 04C0             __size_of___fldiv 039A  
           __size_of___awdiv 00C4             __size_of___flneg 0038             __size_of___awmod 00B0  
           __size_of___flmul 042A             __size_of___flsub 0046             __size_of___fltol 0106  
                 ?_vfpfcnvrt 0072           ___fpclassifyf@F465 00E4             __size_of_initLCD 0068  
                   ___xxtofl 3748                     _atoi$912 0010                     _atoi$913 0014  
                   _atoi$914 0012             __size_of_isalpha 003C             __size_of_isdigit 0038  
           __size_of_sendCMD 006C             __size_of_islower 0038             __size_of_isspace 0052  
                   __ptext10 3E6C                     __ptext11 061E                     __ptext20 3A8C  
                   __ptext12 457A                     __ptext21 46E6                     __ptext13 47E4  
                   __ptext30 3D94                     __ptext22 213E                     __ptext14 4638  
                   __ptext31 42D8                     __ptext23 481C                     __ptext15 3F42  
                   __ptext40 44B0                     __ptext32 49B2                     __ptext24 2A4E  
                   __ptext16 488C                     __ptext41 43DA                     __ptext33 436E  
                   __ptext25 3B92                     __ptext17 472C                     __ptext42 40CC  
                   __ptext34 38FC                     __ptext26 422E                     __ptext18 3536  
                   __ptext43 48F4                     __ptext35 4694                     __ptext27 2E78  
                   __ptext19 3C96                     __ptext44 3748                     __ptext36 4854  
                   __ptext28 417E                     __ptext37 4946                     __ptext29 4008  
                   __ptext38 496C                     __ptext39 3212             __size_of_isupper 0038  
           __size_of_tolower 0060                   strcpy@dest 0001             __size_of_strncmp 00D6  
           __size_of_toupper 005E                  ??___strtoxl 0016           __end_of_pega_tecla 4990  
              __size_of_atoi 0190                __size_of_ctoa 00D8                __size_of_main 0992  
                   _sendData 436E                     _waitIdle 40CC                     efgtoa@fp 002E  
                   efgtoa@ne 004A                     efgtoa@pp 0048                     efgtoa@ou 004E  
                   isa$xinst 000000                   strtol@base 0037                     _vfprintf 4518  
                  printf@fmt 0092                     main@num1 00D2                     main@num2 00D6  
                   main@resp 00DC                  _isspace$943 0007                     isalpha@c 0001  
                   isdigit@c 0001                     islower@c 0001                     isspace@c 0001  
                  strcpy@src 0003                     isupper@c 0001                    strncmp@_l 0001  
                  strncmp@_r 0003                  efgtoa@nmode 005A                     printf@ap 007E  
                ??_vfpfcnvrt 0078                _vfpfcnvrt$873 0080                _vfpfcnvrt$878 0082  
                   tolower@c 0007       __size_of___fpclassifyf 00FE                     strncmp@l 0008  
                   strncmp@n 0005                     strncmp@r 000A                     toupper@c 0007  
__size_of_verifica_linha_col 0324                ___fladd@signs 000D                 ___fladd@aexp 000E  
               ___fladd@bexp 000F  
